In archive Build/libwolfssl.a:

wolf_main.o:     file format elf32-littlearm


Disassembly of section .text.my_time:

00000000 <my_time>:
static int gTimeMs;
static int hw_get_time_sec(void)
{
    #warning Must implement your own time source if validating certificates

	return ++gTimeMs;
   0:	4b02      	ldr	r3, [pc, #8]	; (c <my_time+0xc>)
   2:	6818      	ldr	r0, [r3, #0]
   4:	3001      	adds	r0, #1
   6:	6018      	str	r0, [r3, #0]
/* This is used by wolfCrypt asn.c for cert time checking */
unsigned long my_time(unsigned long* timer)
{
    (void)timer;
    return hw_get_time_sec();
}
   8:	4770      	bx	lr
   a:	bf00      	nop
   c:	00000000 	.word	0x00000000

Disassembly of section .text.LowResTimer:

00000000 <LowResTimer>:
	return ++gTimeMs;
   0:	4b02      	ldr	r3, [pc, #8]	; (c <LowResTimer+0xc>)
   2:	6818      	ldr	r0, [r3, #0]
   4:	3001      	adds	r0, #1
   6:	6018      	str	r0, [r3, #0]
#ifndef WOLFCRYPT_ONLY
/* This is used by TLS only */
unsigned int LowResTimer(void)
{
    return hw_get_time_sec();
}
   8:	4770      	bx	lr
   a:	bf00      	nop
   c:	00000000 	.word	0x00000000

Disassembly of section .text.current_time:

00000000 <current_time>:
#ifndef NO_CRYPT_BENCHMARK
/* This is used by wolfCrypt benchmark tool only */
double current_time(int reset)
{
    double timeNow;
    int timeMs = gTimeMs;
   0:	4b0d      	ldr	r3, [pc, #52]	; (38 <current_time+0x38>)
{
   2:	e92d 41f0 	stmdb	sp!, {r4, r5, r6, r7, r8, lr}
    int timeMs = gTimeMs;
   6:	f8d3 8000 	ldr.w	r8, [r3]
    (void)reset;
    timeNow = (timeMs / 1000); // sec
   a:	f44f 777a 	mov.w	r7, #1000	; 0x3e8
   e:	fb98 f6f7 	sdiv	r6, r8, r7
  12:	4630      	mov	r0, r6
  14:	f7ff fffe 	bl	0 <__aeabi_i2d>
  18:	4604      	mov	r4, r0
    timeNow += (double)(timeMs % 1000) / 1000; // ms
  1a:	fb07 8016 	mls	r0, r7, r6, r8
    timeNow = (timeMs / 1000); // sec
  1e:	460d      	mov	r5, r1
    timeNow += (double)(timeMs % 1000) / 1000; // ms
  20:	f7ff fffe 	bl	0 <__aeabi_i2d>
  24:	4b05      	ldr	r3, [pc, #20]	; (3c <current_time+0x3c>)
  26:	2200      	movs	r2, #0
  28:	f7ff fffe 	bl	0 <__aeabi_ddiv>
  2c:	4622      	mov	r2, r4
  2e:	462b      	mov	r3, r5
  30:	f7ff fffe 	bl	0 <__aeabi_dadd>
    return timeNow;
}
  34:	e8bd 81f0 	ldmia.w	sp!, {r4, r5, r6, r7, r8, pc}
  38:	00000000 	.word	0x00000000
  3c:	408f4000 	.word	0x408f4000

Disassembly of section .text.hw_rand:

00000000 <hw_rand>:
static unsigned int gCounter;
unsigned int hw_rand(void)
{
    #warning Must implement your own random source

    return ++gCounter;
   0:	4b02      	ldr	r3, [pc, #8]	; (c <hw_rand+0xc>)
   2:	6818      	ldr	r0, [r3, #0]
   4:	3001      	adds	r0, #1
   6:	6018      	str	r0, [r3, #0]
}
   8:	4770      	bx	lr
   a:	bf00      	nop
   c:	00000000 	.word	0x00000000

Disassembly of section .text.my_rng_seed_gen:

00000000 <my_rng_seed_gen>:

unsigned int my_rng_seed_gen(void)
{
    return hw_rand();
   0:	f7ff bffe 	b.w	0 <my_rng_seed_gen>

Disassembly of section .text.my_rng_gen_block:

00000000 <my_rng_gen_block>:
}

int my_rng_gen_block(unsigned char* output, unsigned int sz)
{
   0:	b570      	push	{r4, r5, r6, lr}
    uint32_t i = 0;
   2:	2200      	movs	r2, #0
{
   4:	4604      	mov	r4, r0

    while (i < sz)
   6:	428a      	cmp	r2, r1
   8:	d301      	bcc.n	e <my_rng_gen_block+0xe>
            i += sizeof(CUSTOM_RAND_TYPE);
        }
    }

    return 0;
}
   a:	2000      	movs	r0, #0
   c:	bd70      	pop	{r4, r5, r6, pc}
        if( (i + sizeof(CUSTOM_RAND_TYPE)) > sz ||
   e:	1d15      	adds	r5, r2, #4
  10:	428d      	cmp	r5, r1
            ((uint32_t)&output[i] % sizeof(CUSTOM_RAND_TYPE)) != 0
  12:	eb04 0602 	add.w	r6, r4, r2
        if( (i + sizeof(CUSTOM_RAND_TYPE)) > sz ||
  16:	d801      	bhi.n	1c <my_rng_gen_block+0x1c>
  18:	07b3      	lsls	r3, r6, #30
  1a:	d005      	beq.n	28 <my_rng_gen_block+0x28>
    return hw_rand();
  1c:	f7ff fffe 	bl	0 <my_rng_gen_block>
            output[i++] = (unsigned char)my_rng_seed_gen();
  20:	1c55      	adds	r5, r2, #1
  22:	7030      	strb	r0, [r6, #0]
{
  24:	462a      	mov	r2, r5
  26:	e7ee      	b.n	6 <my_rng_gen_block+0x6>
    return hw_rand();
  28:	f7ff fffe 	bl	0 <my_rng_gen_block>
            *((CUSTOM_RAND_TYPE*)&output[i]) = my_rng_seed_gen();
  2c:	6030      	str	r0, [r6, #0]
            i += sizeof(CUSTOM_RAND_TYPE);
  2e:	e7f9      	b.n	24 <my_rng_gen_block+0x24>

armtarget.o:     file format elf32-littlearm


Disassembly of section .text.Default_Handler:

00000000 <Default_Handler>:
#ifdef USE_WOLF_ARM_STARTUP
// Vector Exception/Interrupt Handlers
static void Default_Handler(void)
{
    /* If we get here then need to implement real IRQ handler */
    while(1);
   0:	e7fe      	b.n	0 <Default_Handler>

Disassembly of section .sys:

00000000 <HardFault_Handler>:
}

__attribute__((section(".sys")))  __attribute__( ( naked ) )
void HardFault_Handler(void)
{
    __asm volatile
   0:	2004      	movs	r0, #4
   2:	4671      	mov	r1, lr
   4:	4208      	tst	r0, r1
   6:	d002      	beq.n	e <_MSP>
   8:	f3ef 8009 	mrs	r0, PSP
   c:	e001      	b.n	12 <_GetPC>

0000000e <_MSP>:
   e:	f3ef 8008 	mrs	r0, MSP

00000012 <_GetPC>:
  12:	6941      	ldr	r1, [r0, #20]
  14:	4a42      	ldr	r2, [pc, #264]	; (120 <HardFault_HandlerC+0x106>)
  16:	4710      	bx	r2
  18:	4770      	bx	lr

0000001a <HardFault_HandlerC>:
{
  1a:	b500      	push	{lr}
  1c:	b08f      	sub	sp, #60	; 0x3c
    stacked_r0 = ((uint32_t)hardfault_args[0]);
  1e:	6803      	ldr	r3, [r0, #0]
  20:	9300      	str	r3, [sp, #0]
    stacked_r1 = ((uint32_t)hardfault_args[1]);
  22:	6843      	ldr	r3, [r0, #4]
  24:	9301      	str	r3, [sp, #4]
    stacked_r2 = ((uint32_t)hardfault_args[2]);
  26:	6883      	ldr	r3, [r0, #8]
  28:	9302      	str	r3, [sp, #8]
    stacked_r3 = ((uint32_t)hardfault_args[3]);
  2a:	68c3      	ldr	r3, [r0, #12]
  2c:	9303      	str	r3, [sp, #12]
    stacked_r12 = ((uint32_t)hardfault_args[4]);
  2e:	6903      	ldr	r3, [r0, #16]
  30:	9304      	str	r3, [sp, #16]
    stacked_lr = ((uint32_t)hardfault_args[5]);
  32:	6943      	ldr	r3, [r0, #20]
  34:	9305      	str	r3, [sp, #20]
    stacked_pc = ((uint32_t)hardfault_args[6]);
  36:	6983      	ldr	r3, [r0, #24]
  38:	9306      	str	r3, [sp, #24]
    stacked_psr = ((uint32_t)hardfault_args[7]);
  3a:	69c3      	ldr	r3, [r0, #28]
  3c:	9307      	str	r3, [sp, #28]
    _CFSR = (*((volatile uint32_t *)(0xE000ED28)));
  3e:	f04f 23e0 	mov.w	r3, #3758153728	; 0xe000e000
    printf ("\n\nHard fault handler (all numbers in hex):\n");
  42:	4828      	ldr	r0, [pc, #160]	; (e4 <HardFault_HandlerC+0xca>)
    _CFSR = (*((volatile uint32_t *)(0xE000ED28)));
  44:	f8d3 2d28 	ldr.w	r2, [r3, #3368]	; 0xd28
  48:	9208      	str	r2, [sp, #32]
    _HFSR = (*((volatile uint32_t *)(0xE000ED2C)));
  4a:	f8d3 2d2c 	ldr.w	r2, [r3, #3372]	; 0xd2c
  4e:	9209      	str	r2, [sp, #36]	; 0x24
    _DFSR = (*((volatile uint32_t *)(0xE000ED30)));
  50:	f8d3 2d30 	ldr.w	r2, [r3, #3376]	; 0xd30
  54:	920a      	str	r2, [sp, #40]	; 0x28
    _AFSR = (*((volatile uint32_t *)(0xE000ED3C)));
  56:	f8d3 2d3c 	ldr.w	r2, [r3, #3388]	; 0xd3c
  5a:	920b      	str	r2, [sp, #44]	; 0x2c
    _MMAR = (*((volatile uint32_t *)(0xE000ED34)));
  5c:	f8d3 2d34 	ldr.w	r2, [r3, #3380]	; 0xd34
  60:	920d      	str	r2, [sp, #52]	; 0x34
    _BFAR = (*((volatile uint32_t *)(0xE000ED38)));
  62:	f8d3 3d38 	ldr.w	r3, [r3, #3384]	; 0xd38
  66:	930c      	str	r3, [sp, #48]	; 0x30
    printf ("\n\nHard fault handler (all numbers in hex):\n");
  68:	f7ff fffe 	bl	0 <printf>
    printf ("R0 = %lx\n", stacked_r0);
  6c:	9900      	ldr	r1, [sp, #0]
  6e:	481e      	ldr	r0, [pc, #120]	; (e8 <HardFault_HandlerC+0xce>)
  70:	f7ff fffe 	bl	0 <printf>
    printf ("R1 = %lx\n", stacked_r1);
  74:	9901      	ldr	r1, [sp, #4]
  76:	481d      	ldr	r0, [pc, #116]	; (ec <HardFault_HandlerC+0xd2>)
  78:	f7ff fffe 	bl	0 <printf>
    printf ("R2 = %lx\n", stacked_r2);
  7c:	9902      	ldr	r1, [sp, #8]
  7e:	481c      	ldr	r0, [pc, #112]	; (f0 <HardFault_HandlerC+0xd6>)
  80:	f7ff fffe 	bl	0 <printf>
    printf ("R3 = %lx\n", stacked_r3);
  84:	9903      	ldr	r1, [sp, #12]
  86:	481b      	ldr	r0, [pc, #108]	; (f4 <HardFault_HandlerC+0xda>)
  88:	f7ff fffe 	bl	0 <printf>
    printf ("R12 = %lx\n", stacked_r12);
  8c:	9904      	ldr	r1, [sp, #16]
  8e:	481a      	ldr	r0, [pc, #104]	; (f8 <HardFault_HandlerC+0xde>)
  90:	f7ff fffe 	bl	0 <printf>
    printf ("LR [R14] = %lx  subroutine call return address\n", stacked_lr);
  94:	9905      	ldr	r1, [sp, #20]
  96:	4819      	ldr	r0, [pc, #100]	; (fc <HardFault_HandlerC+0xe2>)
  98:	f7ff fffe 	bl	0 <printf>
    printf ("PC [R15] = %lx  program counter\n", stacked_pc);
  9c:	9906      	ldr	r1, [sp, #24]
  9e:	4818      	ldr	r0, [pc, #96]	; (100 <HardFault_HandlerC+0xe6>)
  a0:	f7ff fffe 	bl	0 <printf>
    printf ("PSR = %lx\n", stacked_psr);
  a4:	9907      	ldr	r1, [sp, #28]
  a6:	4817      	ldr	r0, [pc, #92]	; (104 <HardFault_HandlerC+0xea>)
  a8:	f7ff fffe 	bl	0 <printf>
    printf ("CFSR = %lx\n", _CFSR);
  ac:	9908      	ldr	r1, [sp, #32]
  ae:	4816      	ldr	r0, [pc, #88]	; (108 <HardFault_HandlerC+0xee>)
  b0:	f7ff fffe 	bl	0 <printf>
    printf ("HFSR = %lx\n", _HFSR);
  b4:	9909      	ldr	r1, [sp, #36]	; 0x24
  b6:	4815      	ldr	r0, [pc, #84]	; (10c <HardFault_HandlerC+0xf2>)
  b8:	f7ff fffe 	bl	0 <printf>
    printf ("DFSR = %lx\n", _DFSR);
  bc:	990a      	ldr	r1, [sp, #40]	; 0x28
  be:	4814      	ldr	r0, [pc, #80]	; (110 <HardFault_HandlerC+0xf6>)
  c0:	f7ff fffe 	bl	0 <printf>
    printf ("AFSR = %lx\n", _AFSR);
  c4:	990b      	ldr	r1, [sp, #44]	; 0x2c
  c6:	4813      	ldr	r0, [pc, #76]	; (114 <HardFault_HandlerC+0xfa>)
  c8:	f7ff fffe 	bl	0 <printf>
    printf ("MMAR = %lx\n", _MMAR);
  cc:	990d      	ldr	r1, [sp, #52]	; 0x34
  ce:	4812      	ldr	r0, [pc, #72]	; (118 <HardFault_HandlerC+0xfe>)
  d0:	f7ff fffe 	bl	0 <printf>
    printf ("BFAR = %lx\n", _BFAR);
  d4:	990c      	ldr	r1, [sp, #48]	; 0x30
  d6:	4811      	ldr	r0, [pc, #68]	; (11c <HardFault_HandlerC+0x102>)
  d8:	f7ff fffe 	bl	0 <printf>
    __asm("BKPT #0\n");
  dc:	be00      	bkpt	0x0000
}
  de:	b00f      	add	sp, #60	; 0x3c
  e0:	f85d fb04 	ldr.w	pc, [sp], #4
  e4:	00000000 	.word	0x00000000
  e8:	0000002c 	.word	0x0000002c
  ec:	00000036 	.word	0x00000036
  f0:	00000040 	.word	0x00000040
  f4:	0000004a 	.word	0x0000004a
  f8:	00000054 	.word	0x00000054
  fc:	0000005f 	.word	0x0000005f
 100:	0000008f 	.word	0x0000008f
 104:	000000b0 	.word	0x000000b0
 108:	000000bb 	.word	0x000000bb
 10c:	000000c7 	.word	0x000000c7
 110:	000000d3 	.word	0x000000d3
 114:	000000df 	.word	0x000000df
 118:	000000eb 	.word	0x000000eb
 11c:	000000f7 	.word	0x000000f7
 120:	00000000 	.word	0x00000000

Disassembly of section .text.memcpy32:

00000000 <memcpy32>:
    while (dst_beg < dst_end) {
   0:	428a      	cmp	r2, r1
   2:	d800      	bhi.n	6 <memcpy32+0x6>
}
   4:	4770      	bx	lr
        *dst_beg++ = *src++;
   6:	f850 3b04 	ldr.w	r3, [r0], #4
   a:	f841 3b04 	str.w	r3, [r1], #4
   e:	e7f7      	b.n	0 <memcpy32>

Disassembly of section .text.meminit32:

00000000 <meminit32>:
        *start++ = 0;
   0:	2300      	movs	r3, #0
    while (start < end) {
   2:	4288      	cmp	r0, r1
   4:	d300      	bcc.n	8 <meminit32+0x8>
}
   6:	4770      	bx	lr
        *start++ = 0;
   8:	f840 3b04 	str.w	r3, [r0], #4
   c:	e7f9      	b.n	2 <meminit32+0x2>

Disassembly of section .text.reset_handler:

00000000 <reset_handler>:
{
   0:	b508      	push	{r3, lr}
    memcpy32(__data_load_start__, __data_start__, __data_end__);
   2:	4a09      	ldr	r2, [pc, #36]	; (28 <reset_handler+0x28>)
   4:	4909      	ldr	r1, [pc, #36]	; (2c <reset_handler+0x2c>)
   6:	480a      	ldr	r0, [pc, #40]	; (30 <reset_handler+0x30>)
   8:	f7ff fffe 	bl	0 <reset_handler>
    meminit32(__bss_start__, __bss_end__);
   c:	4909      	ldr	r1, [pc, #36]	; (34 <reset_handler+0x34>)
   e:	480a      	ldr	r0, [pc, #40]	; (38 <reset_handler+0x38>)
  10:	f7ff fffe 	bl	0 <reset_handler>
    __heap_start__[0] = 0;
  14:	4b09      	ldr	r3, [pc, #36]	; (3c <reset_handler+0x3c>)
  16:	2200      	movs	r2, #0
  18:	601a      	str	r2, [r3, #0]
    __heap_start__[1] = ((uintptr_t)__heap_end__ - (uintptr_t)__heap_start__);
  1a:	4a09      	ldr	r2, [pc, #36]	; (40 <reset_handler+0x40>)
  1c:	1ad2      	subs	r2, r2, r3
  1e:	605a      	str	r2, [r3, #4]
    main();
  20:	f7ff fffe 	bl	0 <main>
    while(1);
  24:	e7fe      	b.n	24 <reset_handler+0x24>
  26:	bf00      	nop
	...

test.o:     file format elf32-littlearm


Disassembly of section .text.time_cb:

00000000 <time_cb>:
#endif /* WOLFSSL_CERT_PIV */

#if !defined(NO_ASN) && !defined(NO_ASN_TIME)
static time_t time_cb(time_t* t)
{
    if (t != NULL) {
   0:	b118      	cbz	r0, a <time_cb+0xa>
        *t = 99;
   2:	2263      	movs	r2, #99	; 0x63
   4:	2300      	movs	r3, #0
   6:	e9c0 2300 	strd	r2, r3, [r0]
    }

    return 99;
}
   a:	2063      	movs	r0, #99	; 0x63
   c:	2100      	movs	r1, #0
   e:	4770      	bx	lr

Disassembly of section .text.print_fiducials:

00000000 <print_fiducials>:
static const int fiducial4 = WC_TEST_RET_LN;

/* print the fiducial line numbers assigned above, allowing confirmation of
 * source code version match when in doubt.
 */
static void print_fiducials(void) {
   0:	b507      	push	{r0, r1, r2, lr}
    printf(" [fiducial line numbers: %d %d %d %d]\n",
   2:	f64b 6368 	movw	r3, #48744	; 0xbe68
   6:	9300      	str	r3, [sp, #0]
   8:	f645 72a8 	movw	r2, #24488	; 0x5fa8
   c:	f648 63d5 	movw	r3, #36565	; 0x8ed5
  10:	f641 61f1 	movw	r1, #7921	; 0x1ef1
  14:	4805      	ldr	r0, [pc, #20]	; (2c <print_fiducials+0x2c>)
  16:	f7ff fffe 	bl	0 <printf>
  1a:	4b05      	ldr	r3, [pc, #20]	; (30 <print_fiducials+0x30>)
  1c:	681b      	ldr	r3, [r3, #0]
  1e:	6898      	ldr	r0, [r3, #8]
           fiducial1, fiducial2, fiducial3, fiducial4);
}
  20:	b003      	add	sp, #12
  22:	f85d eb04 	ldr.w	lr, [sp], #4
    printf(" [fiducial line numbers: %d %d %d %d]\n",
  26:	f7ff bffe 	b.w	0 <fflush>
  2a:	bf00      	nop
	...

Disassembly of section .text.render_error_message:

00000000 <render_error_message>:
{
   0:	b573      	push	{r0, r1, r4, r5, r6, lr}
    switch (WC_TEST_RET_DEC_TAG(es)) {
   2:	424c      	negs	r4, r1
   4:	1762      	asrs	r2, r4, #29
{
   6:	4605      	mov	r5, r0
    switch (WC_TEST_RET_DEC_TAG(es)) {
   8:	2a03      	cmp	r2, #3
   a:	d83e      	bhi.n	8a <render_error_message+0x8a>
   c:	e8df f002 	tbb	[pc, r2]
  10:	33271302 	.word	0x33271302
        err_sys_printf("%s error L=%d\n", msg, WC_TEST_RET_DEC_LN(es));
  14:	4a1e      	ldr	r2, [pc, #120]	; (90 <render_error_message+0x90>)
  16:	fb94 f1f2 	sdiv	r1, r4, r2
  1a:	fb02 4211 	mls	r2, r2, r1, r4
  1e:	4601      	mov	r1, r0
  20:	481c      	ldr	r0, [pc, #112]	; (94 <render_error_message+0x94>)
  22:	f7ff fffe 	bl	0 <printf>
        err_sys_printf("%s error L=%d i=%d\n", msg,
  26:	4b1c      	ldr	r3, [pc, #112]	; (98 <render_error_message+0x98>)
  28:	681b      	ldr	r3, [r3, #0]
  2a:	6898      	ldr	r0, [r3, #8]
}
  2c:	b002      	add	sp, #8
  2e:	e8bd 4070 	ldmia.w	sp!, {r4, r5, r6, lr}
        err_sys_printf("%s error L=%d i=%d\n", msg,
  32:	f7ff bffe 	b.w	0 <fflush>
        err_sys_printf("%s error L=%d code=%d (%s)\n", msg,
  36:	f024 44c0 	bic.w	r4, r4, #1610612736	; 0x60000000
  3a:	4e18      	ldr	r6, [pc, #96]	; (9c <render_error_message+0x9c>)
  3c:	fb94 f6f6 	sdiv	r6, r4, r6
  40:	4630      	mov	r0, r6
  42:	f7ff fffe 	bl	0 <wc_GetErrorString>
  46:	4a12      	ldr	r2, [pc, #72]	; (90 <render_error_message+0x90>)
  48:	9000      	str	r0, [sp, #0]
  4a:	fbb4 f1f2 	udiv	r1, r4, r2
  4e:	4633      	mov	r3, r6
  50:	fb02 4211 	mls	r2, r2, r1, r4
  54:	4812      	ldr	r0, [pc, #72]	; (a0 <render_error_message+0xa0>)
  56:	4629      	mov	r1, r5
  58:	f7ff fffe 	bl	0 <printf>
  5c:	e7e3      	b.n	26 <render_error_message+0x26>
        err_sys_printf("%s error L=%d errno=%d\n", msg,
  5e:	490c      	ldr	r1, [pc, #48]	; (90 <render_error_message+0x90>)
  60:	f024 42c0 	bic.w	r2, r4, #1610612736	; 0x60000000
  64:	fbb2 f3f1 	udiv	r3, r2, r1
  68:	fb01 2213 	mls	r2, r1, r3, r2
  6c:	4601      	mov	r1, r0
  6e:	480d      	ldr	r0, [pc, #52]	; (a4 <render_error_message+0xa4>)
        err_sys_printf("%s error L=%d i=%d\n", msg,
  70:	f7ff fffe 	bl	0 <printf>
  74:	e7d7      	b.n	26 <render_error_message+0x26>
  76:	4906      	ldr	r1, [pc, #24]	; (90 <render_error_message+0x90>)
  78:	f024 42c0 	bic.w	r2, r4, #1610612736	; 0x60000000
  7c:	fbb2 f3f1 	udiv	r3, r2, r1
  80:	fb01 2213 	mls	r2, r1, r3, r2
  84:	4601      	mov	r1, r0
  86:	4808      	ldr	r0, [pc, #32]	; (a8 <render_error_message+0xa8>)
  88:	e7f2      	b.n	70 <render_error_message+0x70>
}
  8a:	b002      	add	sp, #8
  8c:	bd70      	pop	{r4, r5, r6, pc}
  8e:	bf00      	nop
  90:	000186a0 	.word	0x000186a0
	...
  9c:	fffe7960 	.word	0xfffe7960
  a0:	0000000f 	.word	0x0000000f
  a4:	0000002b 	.word	0x0000002b
  a8:	00000043 	.word	0x00000043

Disassembly of section .text._rng_test:

00000000 <_rng_test>:
{
   0:	b5f0      	push	{r4, r5, r6, r7, lr}
   2:	b089      	sub	sp, #36	; 0x24
   4:	4605      	mov	r5, r0
    XMEMSET(block, 0, sizeof(block));
   6:	2220      	movs	r2, #32
{
   8:	460f      	mov	r7, r1
    XMEMSET(block, 0, sizeof(block));
   a:	4668      	mov	r0, sp
   c:	2100      	movs	r1, #0
   e:	f7ff fffe 	bl	0 <memset>
    ret = wc_RNG_GenerateBlock(rng, block, sizeof(block));
  12:	2220      	movs	r2, #32
  14:	4669      	mov	r1, sp
  16:	4628      	mov	r0, r5
  18:	f7ff fffe 	bl	0 <wc_RNG_GenerateBlock>
    if (ret != 0) {
  1c:	bb80      	cbnz	r0, 80 <_rng_test+0x80>
  1e:	466b      	mov	r3, sp
    for (i=0; i<(int)sizeof(block); i++) {
  20:	4606      	mov	r6, r0
        if (block[i] == 0) {
  22:	f813 2b01 	ldrb.w	r2, [r3], #1
  26:	b902      	cbnz	r2, 2a <_rng_test+0x2a>
            ret++;
  28:	3001      	adds	r0, #1
    for (i=0; i<(int)sizeof(block); i++) {
  2a:	3601      	adds	r6, #1
  2c:	2e20      	cmp	r6, #32
  2e:	d1f8      	bne.n	22 <_rng_test+0x22>
    if (ret >= (int)sizeof(block)) {
  30:	281f      	cmp	r0, #31
  32:	dc27      	bgt.n	84 <_rng_test+0x84>
    ret = wc_RNG_GenerateByte(rng, block);
  34:	4669      	mov	r1, sp
  36:	4628      	mov	r0, r5
  38:	f7ff fffe 	bl	0 <wc_RNG_GenerateByte>
    if (ret != 0) {
  3c:	4604      	mov	r4, r0
  3e:	bb18      	cbnz	r0, 88 <_rng_test+0x88>
    ret = wc_RNG_GenerateBlock(NULL, block, sizeof(block));
  40:	4632      	mov	r2, r6
  42:	4669      	mov	r1, sp
  44:	f7ff fffe 	bl	0 <wc_RNG_GenerateBlock>
    if (ret != BAD_FUNC_ARG) {
  48:	30ad      	adds	r0, #173	; 0xad
  4a:	d11f      	bne.n	8c <_rng_test+0x8c>
    ret = wc_RNG_GenerateBlock(rng, NULL, sizeof(block));
  4c:	4632      	mov	r2, r6
  4e:	4621      	mov	r1, r4
  50:	4628      	mov	r0, r5
  52:	f7ff fffe 	bl	0 <wc_RNG_GenerateBlock>
    if (ret != BAD_FUNC_ARG) {
  56:	30ad      	adds	r0, #173	; 0xad
  58:	d11a      	bne.n	90 <_rng_test+0x90>
    ret = wc_RNG_GenerateByte(NULL, block);
  5a:	4669      	mov	r1, sp
  5c:	4620      	mov	r0, r4
  5e:	f7ff fffe 	bl	0 <wc_RNG_GenerateByte>
    if (ret != BAD_FUNC_ARG) {
  62:	30ad      	adds	r0, #173	; 0xad
  64:	d116      	bne.n	94 <_rng_test+0x94>
    ret = wc_RNG_GenerateByte(rng, NULL);
  66:	4621      	mov	r1, r4
  68:	4628      	mov	r0, r5
  6a:	f7ff fffe 	bl	0 <wc_RNG_GenerateByte>
    if (ret != BAD_FUNC_ARG) {
  6e:	30ad      	adds	r0, #173	; 0xad
  70:	d003      	beq.n	7a <_rng_test+0x7a>
        ret = 7;
  72:	2007      	movs	r0, #7
        ret = errorOffset - (ret * 1000000);
  74:	4c08      	ldr	r4, [pc, #32]	; (98 <_rng_test+0x98>)
  76:	fb04 7400 	mla	r4, r4, r0, r7
}
  7a:	4620      	mov	r0, r4
  7c:	b009      	add	sp, #36	; 0x24
  7e:	bdf0      	pop	{r4, r5, r6, r7, pc}
        ret = 1;
  80:	2001      	movs	r0, #1
  82:	e7f7      	b.n	74 <_rng_test+0x74>
        ret = 2;
  84:	2002      	movs	r0, #2
  86:	e7f5      	b.n	74 <_rng_test+0x74>
        ret = 3;
  88:	2003      	movs	r0, #3
  8a:	e7f3      	b.n	74 <_rng_test+0x74>
        ret = 4;
  8c:	2004      	movs	r0, #4
  8e:	e7f1      	b.n	74 <_rng_test+0x74>
        ret = 5;
  90:	2005      	movs	r0, #5
  92:	e7ef      	b.n	74 <_rng_test+0x74>
        ret = 6;
  94:	2006      	movs	r0, #6
  96:	e7ed      	b.n	74 <_rng_test+0x74>
  98:	fff0bdc0 	.word	0xfff0bdc0

Disassembly of section .text.random_rng_test:

00000000 <random_rng_test>:
{
   0:	b530      	push	{r4, r5, lr}
   2:	b085      	sub	sp, #20
    ret = wc_InitRng_ex(rng, HEAP_HINT, devId);
   4:	f06f 0201 	mvn.w	r2, #1
   8:	2100      	movs	r1, #0
   a:	4668      	mov	r0, sp
   c:	f7ff fffe 	bl	0 <wc_InitRng_ex>
    if (ret != 0)
  10:	b148      	cbz	r0, 26 <random_rng_test+0x26>
        return WC_TEST_RET_ENC_EC(ret);
  12:	4a14      	ldr	r2, [pc, #80]	; (64 <random_rng_test+0x64>)
  14:	4c14      	ldr	r4, [pc, #80]	; (68 <random_rng_test+0x68>)
  16:	4240      	negs	r0, r0
  18:	f3c0 000a 	ubfx	r0, r0, #0, #11
  1c:	fb02 4400 	mla	r4, r2, r0, r4
}
  20:	4620      	mov	r0, r4
  22:	b005      	add	sp, #20
  24:	bd30      	pop	{r4, r5, pc}
    ret = _rng_test(rng, WC_TEST_RET_ENC_NC);
  26:	f46f 5165 	mvn.w	r1, #14656	; 0x3940
  2a:	4668      	mov	r0, sp
  2c:	f7ff fffe 	bl	0 <random_rng_test>
  30:	4604      	mov	r4, r0
    wc_FreeRng(rng);
  32:	4668      	mov	r0, sp
  34:	f7ff fffe 	bl	0 <wc_FreeRng>
    if (ret != 0)
  38:	2c00      	cmp	r4, #0
  3a:	d1f1      	bne.n	20 <random_rng_test+0x20>
        rng = wc_rng_new(nonce, (word32)sizeof(nonce), HEAP_HINT);
  3c:	2108      	movs	r1, #8
  3e:	4622      	mov	r2, r4
  40:	eb0d 0001 	add.w	r0, sp, r1
        byte nonce[8] = { 0 };
  44:	e9cd 4402 	strd	r4, r4, [sp, #8]
        rng = wc_rng_new(nonce, (word32)sizeof(nonce), HEAP_HINT);
  48:	f7ff fffe 	bl	0 <wc_rng_new>
        if (rng == NULL)
  4c:	4605      	mov	r5, r0
  4e:	b908      	cbnz	r0, 54 <random_rng_test+0x54>
            return WC_TEST_RET_ENC_ERRNO;
  50:	4c06      	ldr	r4, [pc, #24]	; (6c <random_rng_test+0x6c>)
  52:	e7e5      	b.n	20 <random_rng_test+0x20>
        ret = _rng_test(rng, WC_TEST_RET_ENC_NC);
  54:	4906      	ldr	r1, [pc, #24]	; (70 <random_rng_test+0x70>)
  56:	f7ff fffe 	bl	0 <random_rng_test>
  5a:	4604      	mov	r4, r0
        wc_rng_free(rng);
  5c:	4628      	mov	r0, r5
  5e:	f7ff fffe 	bl	0 <wc_rng_free>
    return ret;
  62:	e7dd      	b.n	20 <random_rng_test+0x20>
  64:	fffe7960 	.word	0xfffe7960
  68:	dfffc6c1 	.word	0xdfffc6c1
  6c:	ffffc6b1 	.word	0xffffc6b1
  70:	ffffc6af 	.word	0xffffc6af

Disassembly of section .text.ecc_exp_imp_test:

00000000 <ecc_exp_imp_test>:
{
   0:	e92d 47f0 	stmdb	sp!, {r4, r5, r6, r7, r8, r9, sl, lr}
   4:	4606      	mov	r6, r0
   6:	b0e4      	sub	sp, #400	; 0x190
    ecc_key    *keyImp = (ecc_key *)XMALLOC(sizeof *keyImp, HEAP_HINT, DYNAMIC_TYPE_TMP_BUFFER);
   8:	f44f 70de 	mov.w	r0, #444	; 0x1bc
   c:	f7ff fffe 	bl	0 <malloc>
    const char qx[] = "7a4e287890a1a47ad3457e52f2f76a83"
  10:	497b      	ldr	r1, [pc, #492]	; (200 <ecc_exp_imp_test+0x200>)
    ecc_key    *keyImp = (ecc_key *)XMALLOC(sizeof *keyImp, HEAP_HINT, DYNAMIC_TYPE_TMP_BUFFER);
  12:	4605      	mov	r5, r0
    const char qx[] = "7a4e287890a1a47ad3457e52f2f76a83"
  14:	2241      	movs	r2, #65	; 0x41
  16:	a810      	add	r0, sp, #64	; 0x40
  18:	f7ff fffe 	bl	0 <memcpy>
    const char qy[] = "eec4084f5b29ebf29c44cce3b3059610"
  1c:	4979      	ldr	r1, [pc, #484]	; (204 <ecc_exp_imp_test+0x204>)
  1e:	2241      	movs	r2, #65	; 0x41
  20:	a821      	add	r0, sp, #132	; 0x84
  22:	f7ff fffe 	bl	0 <memcpy>
    const char d[]  = "8c14b793cb19137e323a6d2e2a870bca"
  26:	4978      	ldr	r1, [pc, #480]	; (208 <ecc_exp_imp_test+0x208>)
  28:	2241      	movs	r2, #65	; 0x41
  2a:	a832      	add	r0, sp, #200	; 0xc8
  2c:	f7ff fffe 	bl	0 <memcpy>
    if (keyImp == NULL)
  30:	2d00      	cmp	r5, #0
  32:	f000 80df 	beq.w	1f4 <ecc_exp_imp_test+0x1f4>
    privLen = sizeof(priv);
  36:	f04f 0820 	mov.w	r8, #32
    wc_ecc_init_ex(keyImp, HEAP_HINT, devId);
  3a:	f06f 0201 	mvn.w	r2, #1
  3e:	2100      	movs	r1, #0
    privLen = sizeof(priv);
  40:	af04      	add	r7, sp, #16
    wc_ecc_init_ex(keyImp, HEAP_HINT, devId);
  42:	4628      	mov	r0, r5
    ret = wc_ecc_export_private_only(key, priv, &privLen);
  44:	eb0d 0908 	add.w	r9, sp, r8
    wc_ecc_init_ex(keyImp, HEAP_HINT, devId);
  48:	f7ff fffe 	bl	0 <wc_ecc_init_ex>
    ret = wc_ecc_export_private_only(key, priv, &privLen);
  4c:	463a      	mov	r2, r7
  4e:	4649      	mov	r1, r9
  50:	4630      	mov	r0, r6
    privLen = sizeof(priv);
  52:	f8c7 8000 	str.w	r8, [r7]
    ret = wc_ecc_export_private_only(key, priv, &privLen);
  56:	f7ff fffe 	bl	0 <wc_ecc_export_private_only>
    if (ret != 0) {
  5a:	b138      	cbz	r0, 6c <ecc_exp_imp_test+0x6c>
        ret = WC_TEST_RET_ENC_EC(ret);
  5c:	4240      	negs	r0, r0
  5e:	496b      	ldr	r1, [pc, #428]	; (20c <ecc_exp_imp_test+0x20c>)
  60:	4c6b      	ldr	r4, [pc, #428]	; (210 <ecc_exp_imp_test+0x210>)
  62:	f3c0 000a 	ubfx	r0, r0, #0, #11
        ret = WC_TEST_RET_ENC_EC(ret);
  66:	fb01 4400 	mla	r4, r1, r0, r4
        goto done;
  6a:	e07b      	b.n	164 <ecc_exp_imp_test+0x164>
    pubLen = sizeof(pub);
  6c:	2382      	movs	r3, #130	; 0x82
  6e:	9305      	str	r3, [sp, #20]
    ret = wc_ecc_export_point_der(key->idx, &key->pubkey, pub, &pubLen);
  70:	6870      	ldr	r0, [r6, #4]
  72:	ab05      	add	r3, sp, #20
  74:	aa43      	add	r2, sp, #268	; 0x10c
  76:	f106 0118 	add.w	r1, r6, #24
  7a:	f7ff fffe 	bl	0 <wc_ecc_export_point_der>
    if (ret != 0) {
  7e:	b128      	cbz	r0, 8c <ecc_exp_imp_test+0x8c>
        ret = WC_TEST_RET_ENC_EC(ret);
  80:	4240      	negs	r0, r0
  82:	4962      	ldr	r1, [pc, #392]	; (20c <ecc_exp_imp_test+0x20c>)
  84:	4c63      	ldr	r4, [pc, #396]	; (214 <ecc_exp_imp_test+0x214>)
  86:	f3c0 000a 	ubfx	r0, r0, #0, #11
  8a:	e7ec      	b.n	66 <ecc_exp_imp_test+0x66>
    ret = wc_ecc_import_private_key(priv, privLen, pub, pubLen, keyImp);
  8c:	9500      	str	r5, [sp, #0]
  8e:	9b05      	ldr	r3, [sp, #20]
  90:	6839      	ldr	r1, [r7, #0]
  92:	aa43      	add	r2, sp, #268	; 0x10c
  94:	4648      	mov	r0, r9
  96:	f7ff fffe 	bl	0 <wc_ecc_import_private_key>
    if (ret != 0) {
  9a:	4604      	mov	r4, r0
  9c:	b128      	cbz	r0, aa <ecc_exp_imp_test+0xaa>
        ret = WC_TEST_RET_ENC_EC(ret);
  9e:	4244      	negs	r4, r0
  a0:	f3c4 000a 	ubfx	r0, r4, #0, #11
  a4:	4959      	ldr	r1, [pc, #356]	; (20c <ecc_exp_imp_test+0x20c>)
  a6:	4c5c      	ldr	r4, [pc, #368]	; (218 <ecc_exp_imp_test+0x218>)
  a8:	e7dd      	b.n	66 <ecc_exp_imp_test+0x66>
    wc_ecc_free(keyImp);
  aa:	4628      	mov	r0, r5
  ac:	f7ff fffe 	bl	0 <wc_ecc_free>
    ret = wc_ecc_import_raw_ex(keyImp, qx, qy, d, ECC_SECP256R1);
  b0:	f04f 0a07 	mov.w	sl, #7
    wc_ecc_init_ex(keyImp, HEAP_HINT, devId);
  b4:	4621      	mov	r1, r4
  b6:	f06f 0201 	mvn.w	r2, #1
  ba:	4628      	mov	r0, r5
  bc:	f7ff fffe 	bl	0 <wc_ecc_init_ex>
    ret = wc_ecc_import_raw_ex(keyImp, qx, qy, d, ECC_SECP256R1);
  c0:	f8cd a000 	str.w	sl, [sp]
  c4:	ab32      	add	r3, sp, #200	; 0xc8
  c6:	aa21      	add	r2, sp, #132	; 0x84
  c8:	a910      	add	r1, sp, #64	; 0x40
  ca:	4628      	mov	r0, r5
  cc:	f7ff fffe 	bl	0 <wc_ecc_import_raw_ex>
    if (ret != 0) {
  d0:	4604      	mov	r4, r0
  d2:	b128      	cbz	r0, e0 <ecc_exp_imp_test+0xe0>
        ret = WC_TEST_RET_ENC_EC(ret);
  d4:	4244      	negs	r4, r0
  d6:	f3c4 000a 	ubfx	r0, r4, #0, #11
  da:	494c      	ldr	r1, [pc, #304]	; (20c <ecc_exp_imp_test+0x20c>)
  dc:	4c4f      	ldr	r4, [pc, #316]	; (21c <ecc_exp_imp_test+0x21c>)
  de:	e7c2      	b.n	66 <ecc_exp_imp_test+0x66>
    wc_ecc_free(keyImp);
  e0:	4628      	mov	r0, r5
  e2:	f7ff fffe 	bl	0 <wc_ecc_free>
    wc_ecc_init_ex(keyImp, HEAP_HINT, devId);
  e6:	f06f 0201 	mvn.w	r2, #1
  ea:	4621      	mov	r1, r4
  ec:	4628      	mov	r0, r5
  ee:	f7ff fffe 	bl	0 <wc_ecc_init_ex>
    curve_id = wc_ecc_get_curve_id(key->idx);
  f2:	6870      	ldr	r0, [r6, #4]
  f4:	f7ff fffe 	bl	0 <wc_ecc_get_curve_id>
    if (curve_id < 0) {
  f8:	2800      	cmp	r0, #0
  fa:	da05      	bge.n	108 <ecc_exp_imp_test+0x108>
        ret = WC_TEST_RET_ENC_EC(curve_id);
  fc:	4240      	negs	r0, r0
  fe:	4943      	ldr	r1, [pc, #268]	; (20c <ecc_exp_imp_test+0x20c>)
 100:	4c47      	ldr	r4, [pc, #284]	; (220 <ecc_exp_imp_test+0x220>)
 102:	f3c0 000a 	ubfx	r0, r0, #0, #11
 106:	e7ae      	b.n	66 <ecc_exp_imp_test+0x66>
    ret = wc_ecc_import_private_key_ex(priv, privLen, NULL, 0, keyImp,
 108:	e9cd 5000 	strd	r5, r0, [sp]
 10c:	4623      	mov	r3, r4
 10e:	4622      	mov	r2, r4
 110:	6839      	ldr	r1, [r7, #0]
 112:	4648      	mov	r0, r9
 114:	f7ff fffe 	bl	0 <wc_ecc_import_private_key_ex>
    if (ret != 0) {
 118:	4604      	mov	r4, r0
 11a:	b128      	cbz	r0, 128 <ecc_exp_imp_test+0x128>
        ret = WC_TEST_RET_ENC_EC(ret);
 11c:	4244      	negs	r4, r0
 11e:	f3c4 000a 	ubfx	r0, r4, #0, #11
 122:	493a      	ldr	r1, [pc, #232]	; (20c <ecc_exp_imp_test+0x20c>)
 124:	4c3f      	ldr	r4, [pc, #252]	; (224 <ecc_exp_imp_test+0x224>)
 126:	e79e      	b.n	66 <ecc_exp_imp_test+0x66>
    wc_ecc_free(keyImp);
 128:	4628      	mov	r0, r5
 12a:	f7ff fffe 	bl	0 <wc_ecc_free>
    wc_ecc_init_ex(keyImp, HEAP_HINT, devId);
 12e:	4621      	mov	r1, r4
    pubLenX = pubLenY = 32;
 130:	ac07      	add	r4, sp, #28
    wc_ecc_init_ex(keyImp, HEAP_HINT, devId);
 132:	f06f 0201 	mvn.w	r2, #1
 136:	4628      	mov	r0, r5
 138:	f7ff fffe 	bl	0 <wc_ecc_init_ex>
    pubLenX = pubLenY = 32;
 13c:	f8c4 8000 	str.w	r8, [r4]
    ret = wc_ecc_export_public_raw(key, pub, &pubLenX, &pub[32], &pubLenY);
 140:	ab4b      	add	r3, sp, #300	; 0x12c
 142:	9400      	str	r4, [sp, #0]
 144:	aa06      	add	r2, sp, #24
 146:	a943      	add	r1, sp, #268	; 0x10c
 148:	4630      	mov	r0, r6
    pubLenX = pubLenY = 32;
 14a:	f8cd 8018 	str.w	r8, [sp, #24]
    ret = wc_ecc_export_public_raw(key, pub, &pubLenX, &pub[32], &pubLenY);
 14e:	f7ff fffe 	bl	0 <wc_ecc_export_public_raw>
    if (ret != 0) {
 152:	4603      	mov	r3, r0
 154:	b168      	cbz	r0, 172 <ecc_exp_imp_test+0x172>
        ret = WC_TEST_RET_ENC_EC(ret);
 156:	4243      	negs	r3, r0
 158:	4c33      	ldr	r4, [pc, #204]	; (228 <ecc_exp_imp_test+0x228>)
 15a:	482c      	ldr	r0, [pc, #176]	; (20c <ecc_exp_imp_test+0x20c>)
 15c:	f3c3 030a 	ubfx	r3, r3, #0, #11
 160:	fb00 4403 	mla	r4, r0, r3, r4
        wc_ecc_free(keyImp);
 164:	4628      	mov	r0, r5
 166:	f7ff fffe 	bl	0 <wc_ecc_free>
        XFREE(keyImp, HEAP_HINT, DYNAMIC_TYPE_TMP_BUFFER);
 16a:	4628      	mov	r0, r5
 16c:	f7ff fffe 	bl	0 <free>
 170:	e041      	b.n	1f6 <ecc_exp_imp_test+0x1f6>
    ret = wc_ecc_import_unsigned(keyImp, pub, &pub[32], NULL, ECC_SECP256R1);
 172:	f8cd a000 	str.w	sl, [sp]
 176:	aa4b      	add	r2, sp, #300	; 0x12c
 178:	a943      	add	r1, sp, #268	; 0x10c
 17a:	4628      	mov	r0, r5
 17c:	f7ff fffe 	bl	0 <wc_ecc_import_unsigned>
    if (ret != 0) {
 180:	4682      	mov	sl, r0
 182:	b128      	cbz	r0, 190 <ecc_exp_imp_test+0x190>
        ret = WC_TEST_RET_ENC_EC(ret);
 184:	4240      	negs	r0, r0
 186:	4921      	ldr	r1, [pc, #132]	; (20c <ecc_exp_imp_test+0x20c>)
 188:	4c28      	ldr	r4, [pc, #160]	; (22c <ecc_exp_imp_test+0x22c>)
 18a:	f3c0 000a 	ubfx	r0, r0, #0, #11
 18e:	e76a      	b.n	66 <ecc_exp_imp_test+0x66>
    wc_ecc_free(keyImp);
 190:	4628      	mov	r0, r5
 192:	f7ff fffe 	bl	0 <wc_ecc_free>
    wc_ecc_init_ex(keyImp, HEAP_HINT, devId);
 196:	f06f 0201 	mvn.w	r2, #1
 19a:	4651      	mov	r1, sl
 19c:	4628      	mov	r0, r5
 19e:	f7ff fffe 	bl	0 <wc_ecc_init_ex>
    pubLenX = pubLenY = privLen = 32;
 1a2:	f8c7 8000 	str.w	r8, [r7]
 1a6:	f8c4 8000 	str.w	r8, [r4]
    ret = wc_ecc_export_private_raw(key, pub, &pubLenX, &pub[32], &pubLenY,
 1aa:	ab4b      	add	r3, sp, #300	; 0x12c
 1ac:	e9cd 9701 	strd	r9, r7, [sp, #4]
 1b0:	9400      	str	r4, [sp, #0]
 1b2:	aa06      	add	r2, sp, #24
 1b4:	a943      	add	r1, sp, #268	; 0x10c
 1b6:	4630      	mov	r0, r6
    pubLenX = pubLenY = privLen = 32;
 1b8:	f8cd 8018 	str.w	r8, [sp, #24]
    ret = wc_ecc_export_private_raw(key, pub, &pubLenX, &pub[32], &pubLenY,
 1bc:	f7ff fffe 	bl	0 <wc_ecc_export_private_raw>
    if (ret != 0) {
 1c0:	b128      	cbz	r0, 1ce <ecc_exp_imp_test+0x1ce>
        ret = WC_TEST_RET_ENC_EC(ret);
 1c2:	4240      	negs	r0, r0
 1c4:	4911      	ldr	r1, [pc, #68]	; (20c <ecc_exp_imp_test+0x20c>)
 1c6:	4c1a      	ldr	r4, [pc, #104]	; (230 <ecc_exp_imp_test+0x230>)
 1c8:	f3c0 000a 	ubfx	r0, r0, #0, #11
 1cc:	e74b      	b.n	66 <ecc_exp_imp_test+0x66>
    ret = wc_ecc_import_unsigned(keyImp, pub, &pub[32], priv, ECC_SECP256R1);
 1ce:	2307      	movs	r3, #7
 1d0:	9300      	str	r3, [sp, #0]
 1d2:	aa4b      	add	r2, sp, #300	; 0x12c
 1d4:	ab08      	add	r3, sp, #32
 1d6:	a943      	add	r1, sp, #268	; 0x10c
 1d8:	4628      	mov	r0, r5
 1da:	f7ff fffe 	bl	0 <wc_ecc_import_unsigned>
    if (ret != 0) {
 1de:	4604      	mov	r4, r0
 1e0:	2800      	cmp	r0, #0
 1e2:	d0bf      	beq.n	164 <ecc_exp_imp_test+0x164>
        ret = WC_TEST_RET_ENC_EC(ret);
 1e4:	4244      	negs	r4, r0
 1e6:	4909      	ldr	r1, [pc, #36]	; (20c <ecc_exp_imp_test+0x20c>)
 1e8:	4812      	ldr	r0, [pc, #72]	; (234 <ecc_exp_imp_test+0x234>)
 1ea:	f3c4 040a 	ubfx	r4, r4, #0, #11
 1ee:	fb01 0404 	mla	r4, r1, r4, r0
        goto done;
 1f2:	e7b7      	b.n	164 <ecc_exp_imp_test+0x164>
        ERROR_OUT(WC_TEST_RET_ENC_ERRNO, done);
 1f4:	4c10      	ldr	r4, [pc, #64]	; (238 <ecc_exp_imp_test+0x238>)
}
 1f6:	4620      	mov	r0, r4
 1f8:	b064      	add	sp, #400	; 0x190
 1fa:	e8bd 87f0 	ldmia.w	sp!, {r4, r5, r6, r7, r8, r9, sl, pc}
 1fe:	bf00      	nop
 200:	00000000 	.word	0x00000000
 204:	00000041 	.word	0x00000041
 208:	00000082 	.word	0x00000082
 20c:	fffe7960 	.word	0xfffe7960
 210:	dfff9644 	.word	0xdfff9644
 214:	dfff963e 	.word	0xdfff963e
 218:	dfff9638 	.word	0xdfff9638
 21c:	dfff962f 	.word	0xdfff962f
 220:	dfff9626 	.word	0xdfff9626
 224:	dfff961e 	.word	0xdfff961e
 228:	dfff9613 	.word	0xdfff9613
 22c:	dfff960b 	.word	0xdfff960b
 230:	dfff95fe 	.word	0xdfff95fe
 234:	dfff95f6 	.word	0xdfff95f6
 238:	ffff964c 	.word	0xffff964c

Disassembly of section .text.aesgcm_default_test_helper.constprop.0:

00000000 <aesgcm_default_test_helper.constprop.0>:
static wc_test_ret_t aesgcm_default_test_helper(byte* key, int keySz, byte* iv, int ivSz,
   0:	e92d 4ff0 	stmdb	sp!, {r4, r5, r6, r7, r8, r9, sl, fp, lr}
   4:	4681      	mov	r9, r0
   6:	b0a3      	sub	sp, #140	; 0x8c
    if ((enc = (Aes *)XMALLOC(sizeof *enc, HEAP_HINT, DYNAMIC_TYPE_AES)) == NULL)
   8:	f44f 709c 	mov.w	r0, #312	; 0x138
static wc_test_ret_t aesgcm_default_test_helper(byte* key, int keySz, byte* iv, int ivSz,
   c:	4688      	mov	r8, r1
   e:	4616      	mov	r6, r2
  10:	461f      	mov	r7, r3
    if ((enc = (Aes *)XMALLOC(sizeof *enc, HEAP_HINT, DYNAMIC_TYPE_AES)) == NULL)
  12:	f7ff fffe 	bl	0 <malloc>
  16:	4605      	mov	r5, r0
  18:	2800      	cmp	r0, #0
  1a:	f000 80c7 	beq.w	1ac <aesgcm_default_test_helper.constprop.0+0x1ac>
    if ((dec = (Aes *)XMALLOC(sizeof *dec, HEAP_HINT, DYNAMIC_TYPE_AES)) == NULL)
  1e:	f44f 709c 	mov.w	r0, #312	; 0x138
  22:	f7ff fffe 	bl	0 <malloc>
  26:	4604      	mov	r4, r0
  28:	2800      	cmp	r0, #0
  2a:	f000 80c2 	beq.w	1b2 <aesgcm_default_test_helper.constprop.0+0x1b2>
    XMEMSET(resultT, 0, sizeof(resultT));
  2e:	f10d 0b18 	add.w	fp, sp, #24
  32:	2210      	movs	r2, #16
  34:	2100      	movs	r1, #0
  36:	4658      	mov	r0, fp
  38:	f7ff fffe 	bl	0 <memset>
    XMEMSET(resultC, 0, sizeof(resultC));
  3c:	2230      	movs	r2, #48	; 0x30
  3e:	2100      	movs	r1, #0
  40:	a816      	add	r0, sp, #88	; 0x58
  42:	f7ff fffe 	bl	0 <memset>
    XMEMSET(resultP, 0, sizeof(resultP));
  46:	2230      	movs	r2, #48	; 0x30
  48:	2100      	movs	r1, #0
  4a:	a80a      	add	r0, sp, #40	; 0x28
  4c:	f7ff fffe 	bl	0 <memset>
    ret = wc_AesInit(enc, HEAP_HINT, devId);
  50:	f06f 0201 	mvn.w	r2, #1
  54:	2100      	movs	r1, #0
  56:	4628      	mov	r0, r5
  58:	f7ff fffe 	bl	0 <wc_AesInit>
    if (ret != 0)
  5c:	4682      	mov	sl, r0
  5e:	b150      	cbz	r0, 76 <aesgcm_default_test_helper.constprop.0+0x76>
        ERROR_OUT(WC_TEST_RET_ENC_EC(ret), out);
  60:	f1c0 0800 	rsb	r8, r0, #0
  64:	4b54      	ldr	r3, [pc, #336]	; (1b8 <aesgcm_default_test_helper.constprop.0+0x1b8>)
  66:	4855      	ldr	r0, [pc, #340]	; (1bc <aesgcm_default_test_helper.constprop.0+0x1bc>)
  68:	f3c8 080a 	ubfx	r8, r8, #0, #11
  6c:	fb03 0808 	mla	r8, r3, r8, r0
static wc_test_ret_t aesgcm_default_test_helper(byte* key, int keySz, byte* iv, int ivSz,
  70:	f04f 0a00 	mov.w	sl, #0
  74:	e011      	b.n	9a <aesgcm_default_test_helper.constprop.0+0x9a>
    ret = wc_AesInit(dec, HEAP_HINT, devId);
  76:	4601      	mov	r1, r0
  78:	f06f 0201 	mvn.w	r2, #1
  7c:	4620      	mov	r0, r4
  7e:	f7ff fffe 	bl	0 <wc_AesInit>
    if (ret != 0)
  82:	b1d8      	cbz	r0, bc <aesgcm_default_test_helper.constprop.0+0xbc>
        ERROR_OUT(WC_TEST_RET_ENC_EC(ret), out);
  84:	f1c0 0800 	rsb	r8, r0, #0
  88:	4b4b      	ldr	r3, [pc, #300]	; (1b8 <aesgcm_default_test_helper.constprop.0+0x1b8>)
  8a:	484d      	ldr	r0, [pc, #308]	; (1c0 <aesgcm_default_test_helper.constprop.0+0x1c0>)
  8c:	f3c8 080a 	ubfx	r8, r8, #0, #11
  90:	fb03 0808 	mla	r8, r3, r8, r0
            wc_AesFree(enc);
  94:	4628      	mov	r0, r5
  96:	f7ff fffe 	bl	0 <wc_AesFree>
        XFREE(enc, HEAP_HINT, DYNAMIC_TYPE_AES);
  9a:	4628      	mov	r0, r5
  9c:	f7ff fffe 	bl	0 <free>
    if (dec) {
  a0:	b144      	cbz	r4, b4 <aesgcm_default_test_helper.constprop.0+0xb4>
        if (dec_inited)
  a2:	f1ba 0f00 	cmp.w	sl, #0
  a6:	d002      	beq.n	ae <aesgcm_default_test_helper.constprop.0+0xae>
            wc_AesFree(dec);
  a8:	4620      	mov	r0, r4
  aa:	f7ff fffe 	bl	0 <wc_AesFree>
        XFREE(dec, HEAP_HINT, DYNAMIC_TYPE_AES);
  ae:	4620      	mov	r0, r4
  b0:	f7ff fffe 	bl	0 <free>
}
  b4:	4640      	mov	r0, r8
  b6:	b023      	add	sp, #140	; 0x8c
  b8:	e8bd 8ff0 	ldmia.w	sp!, {r4, r5, r6, r7, r8, r9, sl, fp, pc}
    ret = wc_AesGcmSetKey(enc, key, keySz);
  bc:	2210      	movs	r2, #16
  be:	4649      	mov	r1, r9
  c0:	4628      	mov	r0, r5
  c2:	f7ff fffe 	bl	0 <wc_AesGcmSetKey>
    if (ret != 0)
  c6:	b150      	cbz	r0, de <aesgcm_default_test_helper.constprop.0+0xde>
        ERROR_OUT(WC_TEST_RET_ENC_EC(ret), out);
  c8:	f1c0 0800 	rsb	r8, r0, #0
  cc:	4b3a      	ldr	r3, [pc, #232]	; (1b8 <aesgcm_default_test_helper.constprop.0+0x1b8>)
  ce:	483d      	ldr	r0, [pc, #244]	; (1c4 <aesgcm_default_test_helper.constprop.0+0x1c4>)
  d0:	f3c8 080a 	ubfx	r8, r8, #0, #11
        ERROR_OUT(WC_TEST_RET_ENC_EC(ret), out);
  d4:	fb03 0808 	mla	r8, r3, r8, r0
        dec_inited = 1;
  d8:	f04f 0a01 	mov.w	sl, #1
  dc:	e7da      	b.n	94 <aesgcm_default_test_helper.constprop.0+0x94>
    ret = wc_AesGcmEncrypt(enc, resultC, plain, plainSz, iv, ivSz,
  de:	9b2f      	ldr	r3, [sp, #188]	; 0xbc
  e0:	9305      	str	r3, [sp, #20]
  e2:	9b2e      	ldr	r3, [sp, #184]	; 0xb8
  e4:	9304      	str	r3, [sp, #16]
  e6:	9b31      	ldr	r3, [sp, #196]	; 0xc4
  e8:	e9cd b302 	strd	fp, r3, [sp, #8]
  ec:	230c      	movs	r3, #12
  ee:	e9cd 8300 	strd	r8, r3, [sp]
  f2:	4632      	mov	r2, r6
  f4:	463b      	mov	r3, r7
  f6:	a916      	add	r1, sp, #88	; 0x58
  f8:	4628      	mov	r0, r5
  fa:	f7ff fffe 	bl	0 <wc_AesGcmEncrypt>
    if (ret != 0)
  fe:	b130      	cbz	r0, 10e <aesgcm_default_test_helper.constprop.0+0x10e>
        ERROR_OUT(WC_TEST_RET_ENC_EC(ret), out);
 100:	f1c0 0800 	rsb	r8, r0, #0
 104:	4b2c      	ldr	r3, [pc, #176]	; (1b8 <aesgcm_default_test_helper.constprop.0+0x1b8>)
 106:	4830      	ldr	r0, [pc, #192]	; (1c8 <aesgcm_default_test_helper.constprop.0+0x1c8>)
 108:	f3c8 080a 	ubfx	r8, r8, #0, #11
 10c:	e7e2      	b.n	d4 <aesgcm_default_test_helper.constprop.0+0xd4>
    if (cipher != NULL) {
 10e:	9b2c      	ldr	r3, [sp, #176]	; 0xb0
 110:	b963      	cbnz	r3, 12c <aesgcm_default_test_helper.constprop.0+0x12c>
    if (XMEMCMP(tag, resultT, tagSz))
 112:	f10d 0b18 	add.w	fp, sp, #24
 116:	9a31      	ldr	r2, [sp, #196]	; 0xc4
 118:	9830      	ldr	r0, [sp, #192]	; 0xc0
 11a:	4659      	mov	r1, fp
 11c:	f7ff fffe 	bl	0 <memcmp>
 120:	b180      	cbz	r0, 144 <aesgcm_default_test_helper.constprop.0+0x144>
        ERROR_OUT(WC_TEST_RET_ENC_NC, out);
 122:	f8df 80a8 	ldr.w	r8, [pc, #168]	; 1cc <aesgcm_default_test_helper.constprop.0+0x1cc>
        dec_inited = 1;
 126:	f04f 0a01 	mov.w	sl, #1
 12a:	e7b3      	b.n	94 <aesgcm_default_test_helper.constprop.0+0x94>
        if (XMEMCMP(cipher, resultC, cipherSz))
 12c:	9a2d      	ldr	r2, [sp, #180]	; 0xb4
 12e:	982c      	ldr	r0, [sp, #176]	; 0xb0
 130:	a916      	add	r1, sp, #88	; 0x58
 132:	f7ff fffe 	bl	0 <memcmp>
 136:	2800      	cmp	r0, #0
 138:	d0eb      	beq.n	112 <aesgcm_default_test_helper.constprop.0+0x112>
            ERROR_OUT(WC_TEST_RET_ENC_NC, out);
 13a:	f8df 8094 	ldr.w	r8, [pc, #148]	; 1d0 <aesgcm_default_test_helper.constprop.0+0x1d0>
        dec_inited = 1;
 13e:	f04f 0a01 	mov.w	sl, #1
 142:	e7a7      	b.n	94 <aesgcm_default_test_helper.constprop.0+0x94>
    ret = wc_AesGcmSetKey(dec, key, keySz);
 144:	2210      	movs	r2, #16
 146:	4649      	mov	r1, r9
 148:	4620      	mov	r0, r4
 14a:	f7ff fffe 	bl	0 <wc_AesGcmSetKey>
    if (ret != 0)
 14e:	b130      	cbz	r0, 15e <aesgcm_default_test_helper.constprop.0+0x15e>
        ERROR_OUT(WC_TEST_RET_ENC_EC(ret), out);
 150:	f1c0 0800 	rsb	r8, r0, #0
 154:	4b18      	ldr	r3, [pc, #96]	; (1b8 <aesgcm_default_test_helper.constprop.0+0x1b8>)
 156:	481f      	ldr	r0, [pc, #124]	; (1d4 <aesgcm_default_test_helper.constprop.0+0x1d4>)
 158:	f3c8 080a 	ubfx	r8, r8, #0, #11
 15c:	e7ba      	b.n	d4 <aesgcm_default_test_helper.constprop.0+0xd4>
    ret = wc_AesGcmDecrypt(dec, resultP, resultC, cipherSz,
 15e:	9b2f      	ldr	r3, [sp, #188]	; 0xbc
 160:	9305      	str	r3, [sp, #20]
 162:	9b2e      	ldr	r3, [sp, #184]	; 0xb8
 164:	9304      	str	r3, [sp, #16]
 166:	9b31      	ldr	r3, [sp, #196]	; 0xc4
 168:	e9cd b302 	strd	fp, r3, [sp, #8]
 16c:	230c      	movs	r3, #12
 16e:	e9cd 8300 	strd	r8, r3, [sp]
 172:	aa16      	add	r2, sp, #88	; 0x58
 174:	9b2d      	ldr	r3, [sp, #180]	; 0xb4
 176:	a90a      	add	r1, sp, #40	; 0x28
 178:	4620      	mov	r0, r4
 17a:	f7ff fffe 	bl	0 <wc_AesGcmDecrypt>
    if (ret != 0)
 17e:	4680      	mov	r8, r0
 180:	b130      	cbz	r0, 190 <aesgcm_default_test_helper.constprop.0+0x190>
        ERROR_OUT(WC_TEST_RET_ENC_EC(ret), out);
 182:	f1c0 0800 	rsb	r8, r0, #0
 186:	4b0c      	ldr	r3, [pc, #48]	; (1b8 <aesgcm_default_test_helper.constprop.0+0x1b8>)
 188:	4813      	ldr	r0, [pc, #76]	; (1d8 <aesgcm_default_test_helper.constprop.0+0x1d8>)
 18a:	f3c8 080a 	ubfx	r8, r8, #0, #11
 18e:	e7a1      	b.n	d4 <aesgcm_default_test_helper.constprop.0+0xd4>
    if (plain != NULL) {
 190:	2e00      	cmp	r6, #0
 192:	d0a1      	beq.n	d8 <aesgcm_default_test_helper.constprop.0+0xd8>
        if (XMEMCMP(plain, resultP, plainSz))
 194:	463a      	mov	r2, r7
 196:	a90a      	add	r1, sp, #40	; 0x28
 198:	4630      	mov	r0, r6
 19a:	f7ff fffe 	bl	0 <memcmp>
 19e:	2800      	cmp	r0, #0
 1a0:	d09a      	beq.n	d8 <aesgcm_default_test_helper.constprop.0+0xd8>
            ERROR_OUT(WC_TEST_RET_ENC_NC, out);
 1a2:	f8df 8038 	ldr.w	r8, [pc, #56]	; 1dc <aesgcm_default_test_helper.constprop.0+0x1dc>
        dec_inited = 1;
 1a6:	f04f 0a01 	mov.w	sl, #1
 1aa:	e773      	b.n	94 <aesgcm_default_test_helper.constprop.0+0x94>
        ERROR_OUT(WC_TEST_RET_ENC_ERRNO, out);
 1ac:	f8df 8030 	ldr.w	r8, [pc, #48]	; 1e0 <aesgcm_default_test_helper.constprop.0+0x1e0>
    return ret;
 1b0:	e780      	b.n	b4 <aesgcm_default_test_helper.constprop.0+0xb4>
        ERROR_OUT(WC_TEST_RET_ENC_ERRNO, out);
 1b2:	f8df 8030 	ldr.w	r8, [pc, #48]	; 1e4 <aesgcm_default_test_helper.constprop.0+0x1e4>
 1b6:	e75b      	b.n	70 <aesgcm_default_test_helper.constprop.0+0x70>
 1b8:	fffe7960 	.word	0xfffe7960
 1bc:	dfffd226 	.word	0xdfffd226
 1c0:	dfffd221 	.word	0xdfffd221
 1c4:	dfffd21b 	.word	0xdfffd21b
 1c8:	dfffd211 	.word	0xdfffd211
 1cc:	ffffd20b 	.word	0xffffd20b
 1d0:	ffffd20e 	.word	0xffffd20e
 1d4:	dfffd205 	.word	0xdfffd205
 1d8:	dfffd1fd 	.word	0xdfffd1fd
 1dc:	ffffd1fa 	.word	0xffffd1fa
 1e0:	ffffd231 	.word	0xffffd231
 1e4:	ffffd22f 	.word	0xffffd22f

Disassembly of section .text.error_test:

00000000 <error_test>:
{
   0:	b5f0      	push	{r4, r5, r6, r7, lr}
    const char* unknownStr = wc_GetErrorString(0);
   2:	2000      	movs	r0, #0
{
   4:	b0a3      	sub	sp, #140	; 0x8c
    const char* unknownStr = wc_GetErrorString(0);
   6:	f7ff fffe 	bl	0 <wc_GetErrorString>
    int missing[] = { -123, -124, -128, -129, -159, -163, -164,
   a:	4d33      	ldr	r5, [pc, #204]	; (d8 <error_test+0xd8>)
    const char* unknownStr = wc_GetErrorString(0);
   c:	4606      	mov	r6, r0
    int missing[] = { -123, -124, -128, -129, -159, -163, -164,
   e:	cd0f      	ldmia	r5!, {r0, r1, r2, r3}
  10:	466c      	mov	r4, sp
  12:	c40f      	stmia	r4!, {r0, r1, r2, r3}
  14:	cd0f      	ldmia	r5!, {r0, r1, r2, r3}
  16:	c40f      	stmia	r4!, {r0, r1, r2, r3}
  18:	cd0f      	ldmia	r5!, {r0, r1, r2, r3}
  1a:	c40f      	stmia	r4!, {r0, r1, r2, r3}
  1c:	e895 0003 	ldmia.w	r5, {r0, r1}
    int j = 0;
  20:	2700      	movs	r7, #0
    int missing[] = { -123, -124, -128, -129, -159, -163, -164,
  22:	e884 0003 	stmia.w	r4, {r0, r1}
    for (i = MAX_CODE_E-1; i >= WC_LAST_E; i--) {
  26:	f06f 0464 	mvn.w	r4, #100	; 0x64
        errStr = wc_GetErrorString(i);
  2a:	4620      	mov	r0, r4
  2c:	f7ff fffe 	bl	0 <wc_GetErrorString>
        wc_ErrorString(i, out);
  30:	a90e      	add	r1, sp, #56	; 0x38
        errStr = wc_GetErrorString(i);
  32:	4605      	mov	r5, r0
        wc_ErrorString(i, out);
  34:	4620      	mov	r0, r4
  36:	f7ff fffe 	bl	0 <wc_ErrorString>
        if (i != missing[j]) {
  3a:	ab22      	add	r3, sp, #136	; 0x88
  3c:	eb03 0387 	add.w	r3, r3, r7, lsl #2
  40:	f853 3c88 	ldr.w	r3, [r3, #-136]
  44:	42a3      	cmp	r3, r4
  46:	d015      	beq.n	74 <error_test+0x74>
            if (XSTRCMP(errStr, unknownStr) == 0)
  48:	4631      	mov	r1, r6
  4a:	4628      	mov	r0, r5
  4c:	f7ff fffe 	bl	0 <strcmp>
  50:	b3b0      	cbz	r0, c0 <error_test+0xc0>
            if (XSTRCMP(out, unknownStr) == 0)
  52:	4631      	mov	r1, r6
  54:	a80e      	add	r0, sp, #56	; 0x38
  56:	f7ff fffe 	bl	0 <strcmp>
  5a:	b398      	cbz	r0, c4 <error_test+0xc4>
            if (XSTRCMP(errStr, out) != 0)
  5c:	a90e      	add	r1, sp, #56	; 0x38
  5e:	4628      	mov	r0, r5
  60:	f7ff fffe 	bl	0 <strcmp>
  64:	bb80      	cbnz	r0, c8 <error_test+0xc8>
            if (XSTRLEN(errStr) >= WOLFSSL_MAX_ERROR_SZ)
  66:	4628      	mov	r0, r5
  68:	f7ff fffe 	bl	0 <strlen>
  6c:	284f      	cmp	r0, #79	; 0x4f
  6e:	d90c      	bls.n	8a <error_test+0x8a>
                return WC_TEST_RET_ENC_NC;
  70:	481a      	ldr	r0, [pc, #104]	; (dc <error_test+0xdc>)
  72:	e023      	b.n	bc <error_test+0xbc>
            if (XSTRCMP(errStr, unknownStr) != 0)
  74:	4631      	mov	r1, r6
  76:	4628      	mov	r0, r5
            j++;
  78:	3701      	adds	r7, #1
            if (XSTRCMP(errStr, unknownStr) != 0)
  7a:	f7ff fffe 	bl	0 <strcmp>
  7e:	bb28      	cbnz	r0, cc <error_test+0xcc>
            if (XSTRCMP(out, unknownStr) != 0)
  80:	4631      	mov	r1, r6
  82:	a80e      	add	r0, sp, #56	; 0x38
  84:	f7ff fffe 	bl	0 <strcmp>
  88:	bb10      	cbnz	r0, d0 <error_test+0xd0>
    for (i = MAX_CODE_E-1; i >= WC_LAST_E; i--) {
  8a:	3c01      	subs	r4, #1
  8c:	f514 7f96 	cmn.w	r4, #300	; 0x12c
  90:	d1cb      	bne.n	2a <error_test+0x2a>
    errStr = wc_GetErrorString(i);
  92:	4620      	mov	r0, r4
  94:	f7ff fffe 	bl	0 <wc_GetErrorString>
    wc_ErrorString(i, out);
  98:	a90e      	add	r1, sp, #56	; 0x38
    errStr = wc_GetErrorString(i);
  9a:	4605      	mov	r5, r0
    wc_ErrorString(i, out);
  9c:	4620      	mov	r0, r4
  9e:	f7ff fffe 	bl	0 <wc_ErrorString>
    if (XSTRCMP(errStr, unknownStr) != 0)
  a2:	4631      	mov	r1, r6
  a4:	4628      	mov	r0, r5
  a6:	f7ff fffe 	bl	0 <strcmp>
  aa:	b998      	cbnz	r0, d4 <error_test+0xd4>
    if (XSTRCMP(out, unknownStr) != 0)
  ac:	4631      	mov	r1, r6
  ae:	a80e      	add	r0, sp, #56	; 0x38
  b0:	f7ff fffe 	bl	0 <strcmp>
        return WC_TEST_RET_ENC_NC;
  b4:	4b0a      	ldr	r3, [pc, #40]	; (e0 <error_test+0xe0>)
  b6:	2800      	cmp	r0, #0
  b8:	bf18      	it	ne
  ba:	4618      	movne	r0, r3
}
  bc:	b023      	add	sp, #140	; 0x8c
  be:	bdf0      	pop	{r4, r5, r6, r7, pc}
                return WC_TEST_RET_ENC_NC;
  c0:	4808      	ldr	r0, [pc, #32]	; (e4 <error_test+0xe4>)
  c2:	e7fb      	b.n	bc <error_test+0xbc>
                return WC_TEST_RET_ENC_NC;
  c4:	4808      	ldr	r0, [pc, #32]	; (e8 <error_test+0xe8>)
  c6:	e7f9      	b.n	bc <error_test+0xbc>
                return WC_TEST_RET_ENC_NC;
  c8:	4808      	ldr	r0, [pc, #32]	; (ec <error_test+0xec>)
  ca:	e7f7      	b.n	bc <error_test+0xbc>
                return WC_TEST_RET_ENC_NC;
  cc:	4808      	ldr	r0, [pc, #32]	; (f0 <error_test+0xf0>)
  ce:	e7f5      	b.n	bc <error_test+0xbc>
                return WC_TEST_RET_ENC_NC;
  d0:	4808      	ldr	r0, [pc, #32]	; (f4 <error_test+0xf4>)
  d2:	e7f3      	b.n	bc <error_test+0xbc>
        return WC_TEST_RET_ENC_NC;
  d4:	4808      	ldr	r0, [pc, #32]	; (f8 <error_test+0xf8>)
  d6:	e7f1      	b.n	bc <error_test+0xbc>
  d8:	00000000 	.word	0x00000000
  dc:	fffff7aa 	.word	0xfffff7aa
  e0:	fffff799 	.word	0xfffff799
  e4:	fffff7b0 	.word	0xfffff7b0
  e8:	fffff7ae 	.word	0xfffff7ae
  ec:	fffff7ac 	.word	0xfffff7ac
  f0:	fffff7a5 	.word	0xfffff7a5
  f4:	fffff7a3 	.word	0xfffff7a3
  f8:	fffff79b 	.word	0xfffff79b

Disassembly of section .text.base64_test:

00000000 <base64_test>:
{
   0:	e92d 41f0 	stmdb	sp!, {r4, r5, r6, r7, r8, lr}
   4:	b0ca      	sub	sp, #296	; 0x128
    byte       longData[79] = { 0 };
   6:	2100      	movs	r1, #0
   8:	224b      	movs	r2, #75	; 0x4b
   a:	a817      	add	r0, sp, #92	; 0x5c
    byte goodChar[] =
   c:	2542      	movs	r5, #66	; 0x42
    byte       longData[79] = { 0 };
   e:	9116      	str	r1, [sp, #88]	; 0x58
  10:	f7ff fffe 	bl	0 <memset>
    byte goodChar[] =
  14:	49ab      	ldr	r1, [pc, #684]	; (2c4 <base64_test+0x2c4>)
  16:	462a      	mov	r2, r5
  18:	a805      	add	r0, sp, #20
  1a:	f7ff fffe 	bl	0 <memcpy>
    byte charTest[] = "A+Gd\0\0\0";
  1e:	4aaa      	ldr	r2, [pc, #680]	; (2c8 <base64_test+0x2c8>)
  20:	6b90      	ldr	r0, [r2, #56]	; 0x38
  22:	6bd1      	ldr	r1, [r2, #60]	; 0x3c
  24:	ab03      	add	r3, sp, #12
  26:	c303      	stmia	r3!, {r0, r1}
    outLen = sizeof(out);
  28:	2480      	movs	r4, #128	; 0x80
    ret = Base64_Decode(good, sizeof(good), out, &outLen);
  2a:	48a8      	ldr	r0, [pc, #672]	; (2cc <base64_test+0x2cc>)
    outLen = sizeof(out);
  2c:	9401      	str	r4, [sp, #4]
    ret = Base64_Decode(good, sizeof(good), out, &outLen);
  2e:	ab01      	add	r3, sp, #4
  30:	aa2a      	add	r2, sp, #168	; 0xa8
  32:	2108      	movs	r1, #8
  34:	f7ff fffe 	bl	0 <Base64_Decode>
    if (ret != 0)
  38:	b158      	cbz	r0, 52 <base64_test+0x52>
        return WC_TEST_RET_ENC_EC(ret);
  3a:	4ba5      	ldr	r3, [pc, #660]	; (2d0 <base64_test+0x2d0>)
  3c:	4240      	negs	r0, r0
  3e:	f3c0 000a 	ubfx	r0, r0, #0, #11
  42:	4358      	muls	r0, r3
  44:	f100 4060 	add.w	r0, r0, #3758096384	; 0xe0000000
  48:	f6a0 008d 	subw	r0, r0, #2189	; 0x88d
}
  4c:	b04a      	add	sp, #296	; 0x128
  4e:	e8bd 81f0 	ldmia.w	sp!, {r4, r5, r6, r7, r8, pc}
    ret = Base64_Decode(goodEnd, sizeof(goodEnd), out, &outLen);
  52:	48a0      	ldr	r0, [pc, #640]	; (2d4 <base64_test+0x2d4>)
    outLen = sizeof(out);
  54:	9401      	str	r4, [sp, #4]
    ret = Base64_Decode(goodEnd, sizeof(goodEnd), out, &outLen);
  56:	ab01      	add	r3, sp, #4
  58:	aa2a      	add	r2, sp, #168	; 0xa8
  5a:	2108      	movs	r1, #8
  5c:	f7ff fffe 	bl	0 <Base64_Decode>
    if (ret != 0)
  60:	b150      	cbz	r0, 78 <base64_test+0x78>
        return WC_TEST_RET_ENC_EC(ret);
  62:	4b9b      	ldr	r3, [pc, #620]	; (2d0 <base64_test+0x2d0>)
  64:	4240      	negs	r0, r0
  66:	f3c0 000a 	ubfx	r0, r0, #0, #11
  6a:	4358      	muls	r0, r3
  6c:	f100 4060 	add.w	r0, r0, #3758096384	; 0xe0000000
  70:	f46f 6209 	mvn.w	r2, #2192	; 0x890
  74:	4410      	add	r0, r2
  76:	e7e9      	b.n	4c <base64_test+0x4c>
    ret = Base64_Decode(goodChar, sizeof(goodChar), goodChar, &outLen);
  78:	aa05      	add	r2, sp, #20
  7a:	ab01      	add	r3, sp, #4
  7c:	4629      	mov	r1, r5
  7e:	4610      	mov	r0, r2
    outLen = sizeof(goodChar);
  80:	9501      	str	r5, [sp, #4]
    ret = Base64_Decode(goodChar, sizeof(goodChar), goodChar, &outLen);
  82:	f7ff fffe 	bl	0 <Base64_Decode>
    if (ret != 0)
  86:	b148      	cbz	r0, 9c <base64_test+0x9c>
        return WC_TEST_RET_ENC_EC(ret);
  88:	4b91      	ldr	r3, [pc, #580]	; (2d0 <base64_test+0x2d0>)
  8a:	4240      	negs	r0, r0
  8c:	f3c0 000a 	ubfx	r0, r0, #0, #11
  90:	4358      	muls	r0, r3
  92:	f100 4060 	add.w	r0, r0, #3758096384	; 0xe0000000
  96:	f6a0 0095 	subw	r0, r0, #2197	; 0x895
  9a:	e7d7      	b.n	4c <base64_test+0x4c>
    if (outLen != 64 / 4 * 3)
  9c:	9b01      	ldr	r3, [sp, #4]
  9e:	2b30      	cmp	r3, #48	; 0x30
  a0:	f040 819a 	bne.w	3d8 <base64_test+0x3d8>
    ret = Base64_Decode(good_spaces, sizeof(good_spaces), out, &outLen);
  a4:	488c      	ldr	r0, [pc, #560]	; (2d8 <base64_test+0x2d8>)
    outLen = sizeof(out);
  a6:	9401      	str	r4, [sp, #4]
    ret = Base64_Decode(good_spaces, sizeof(good_spaces), out, &outLen);
  a8:	ab01      	add	r3, sp, #4
  aa:	aa2a      	add	r2, sp, #168	; 0xa8
  ac:	210b      	movs	r1, #11
  ae:	f7ff fffe 	bl	0 <Base64_Decode>
    if (ret != 0)
  b2:	4605      	mov	r5, r0
  b4:	b148      	cbz	r0, ca <base64_test+0xca>
        return WC_TEST_RET_ENC_EC(ret);
  b6:	4d86      	ldr	r5, [pc, #536]	; (2d0 <base64_test+0x2d0>)
  b8:	4240      	negs	r0, r0
  ba:	f3c0 000a 	ubfx	r0, r0, #0, #11
  be:	4368      	muls	r0, r5
  c0:	f100 4060 	add.w	r0, r0, #3758096384	; 0xe0000000
  c4:	f6a0 009b 	subw	r0, r0, #2203	; 0x89b
  c8:	e7c0      	b.n	4c <base64_test+0x4c>
    outLen = 1;
  ca:	2301      	movs	r3, #1
  cc:	9301      	str	r3, [sp, #4]
    ret = Base64_Decode(good, sizeof(good), out, &outLen);
  ce:	487f      	ldr	r0, [pc, #508]	; (2cc <base64_test+0x2cc>)
  d0:	ab01      	add	r3, sp, #4
  d2:	aa2a      	add	r2, sp, #168	; 0xa8
  d4:	2108      	movs	r1, #8
  d6:	f7ff fffe 	bl	0 <Base64_Decode>
    if (ret != BAD_FUNC_ARG)
  da:	f110 0fad 	cmn.w	r0, #173	; 0xad
  de:	d00a      	beq.n	f6 <base64_test+0xf6>
        return WC_TEST_RET_ENC_EC(ret);
  e0:	4b7b      	ldr	r3, [pc, #492]	; (2d0 <base64_test+0x2d0>)
  e2:	4240      	negs	r0, r0
  e4:	f3c0 000a 	ubfx	r0, r0, #0, #11
  e8:	4358      	muls	r0, r3
  ea:	f100 4060 	add.w	r0, r0, #3758096384	; 0xe0000000
  ee:	f46f 630a 	mvn.w	r3, #2208	; 0x8a0
  f2:	4418      	add	r0, r3
  f4:	e7aa      	b.n	4c <base64_test+0x4c>
    ret = Base64_Decode(badEOL, sizeof(badEOL), out, &outLen);
  f6:	4879      	ldr	r0, [pc, #484]	; (2dc <base64_test+0x2dc>)
    outLen = sizeof(out);
  f8:	9401      	str	r4, [sp, #4]
    ret = Base64_Decode(badEOL, sizeof(badEOL), out, &outLen);
  fa:	ab01      	add	r3, sp, #4
  fc:	aa2a      	add	r2, sp, #168	; 0xa8
  fe:	2108      	movs	r1, #8
 100:	f7ff fffe 	bl	0 <Base64_Decode>
    if (ret != ASN_INPUT_E)
 104:	f110 0f9a 	cmn.w	r0, #154	; 0x9a
 108:	d009      	beq.n	11e <base64_test+0x11e>
        return WC_TEST_RET_ENC_EC(ret);
 10a:	4b71      	ldr	r3, [pc, #452]	; (2d0 <base64_test+0x2d0>)
 10c:	4240      	negs	r0, r0
 10e:	f3c0 000a 	ubfx	r0, r0, #0, #11
 112:	4358      	muls	r0, r3
 114:	f100 4060 	add.w	r0, r0, #3758096384	; 0xe0000000
 118:	f6a0 00a6 	subw	r0, r0, #2214	; 0x8a6
 11c:	e796      	b.n	4c <base64_test+0x4c>
    ret = Base64_Decode(badPadding, sizeof(badPadding), out, &outLen);
 11e:	4870      	ldr	r0, [pc, #448]	; (2e0 <base64_test+0x2e0>)
    outLen = sizeof(out);
 120:	9401      	str	r4, [sp, #4]
    ret = Base64_Decode(badPadding, sizeof(badPadding), out, &outLen);
 122:	ab01      	add	r3, sp, #4
 124:	aa2a      	add	r2, sp, #168	; 0xa8
 126:	2105      	movs	r1, #5
 128:	f7ff fffe 	bl	0 <Base64_Decode>
    if (ret != ASN_INPUT_E)
 12c:	f110 0f9a 	cmn.w	r0, #154	; 0x9a
 130:	d009      	beq.n	146 <base64_test+0x146>
        return WC_TEST_RET_ENC_EC(ret);
 132:	4b67      	ldr	r3, [pc, #412]	; (2d0 <base64_test+0x2d0>)
 134:	4240      	negs	r0, r0
 136:	f3c0 000a 	ubfx	r0, r0, #0, #11
 13a:	4358      	muls	r0, r3
 13c:	f100 4060 	add.w	r0, r0, #3758096384	; 0xe0000000
 140:	f6a0 00aa 	subw	r0, r0, #2218	; 0x8aa
 144:	e782      	b.n	4c <base64_test+0x4c>
        ret = Base64_Decode(badSmall + i, 4, out, &outLen);
 146:	4f67      	ldr	r7, [pc, #412]	; (2e4 <base64_test+0x2e4>)
        ret = Base64_Decode(badLarge + i, 4, out, &outLen);
 148:	f8df 819c 	ldr.w	r8, [pc, #412]	; 2e8 <base64_test+0x2e8>
    for (i = 0; i < 4; i++) {
 14c:	462e      	mov	r6, r5
        ret = Base64_Decode(badSmall + i, 4, out, &outLen);
 14e:	ab01      	add	r3, sp, #4
 150:	aa2a      	add	r2, sp, #168	; 0xa8
 152:	2104      	movs	r1, #4
 154:	19b8      	adds	r0, r7, r6
        outLen = sizeof(out);
 156:	9401      	str	r4, [sp, #4]
        ret = Base64_Decode(badSmall + i, 4, out, &outLen);
 158:	f7ff fffe 	bl	0 <Base64_Decode>
        if (ret != ASN_INPUT_E)
 15c:	309a      	adds	r0, #154	; 0x9a
 15e:	d006      	beq.n	16e <base64_test+0x16e>
            return WC_TEST_RET_ENC_I(i);
 160:	485b      	ldr	r0, [pc, #364]	; (2d0 <base64_test+0x2d0>)
 162:	4370      	muls	r0, r6
 164:	f100 4020 	add.w	r0, r0, #2684354560	; 0xa0000000
 168:	f5a0 600b 	sub.w	r0, r0, #2224	; 0x8b0
 16c:	e76e      	b.n	4c <base64_test+0x4c>
        ret = Base64_Decode(badLarge + i, 4, out, &outLen);
 16e:	ab01      	add	r3, sp, #4
 170:	aa2a      	add	r2, sp, #168	; 0xa8
 172:	2104      	movs	r1, #4
 174:	eb08 0006 	add.w	r0, r8, r6
 178:	f7ff fffe 	bl	0 <Base64_Decode>
        if (ret != ASN_INPUT_E)
 17c:	309a      	adds	r0, #154	; 0x9a
 17e:	d006      	beq.n	18e <base64_test+0x18e>
            return WC_TEST_RET_ENC_I(i);
 180:	4853      	ldr	r0, [pc, #332]	; (2d0 <base64_test+0x2d0>)
 182:	4370      	muls	r0, r6
 184:	f100 4020 	add.w	r0, r0, #2684354560	; 0xa0000000
 188:	f6a0 00b3 	subw	r0, r0, #2227	; 0x8b3
 18c:	e75e      	b.n	4c <base64_test+0x4c>
    for (i = 0; i < 4; i++) {
 18e:	3601      	adds	r6, #1
 190:	2e04      	cmp	r6, #4
 192:	d1dc      	bne.n	14e <base64_test+0x14e>
    for (i = 1; i < 0x2b; i++) {
 194:	2401      	movs	r4, #1
        outLen = sizeof(out);
 196:	2680      	movs	r6, #128	; 0x80
        ret = Base64_Decode(charTest, sizeof(charTest), out, &outLen);
 198:	ab01      	add	r3, sp, #4
 19a:	aa2a      	add	r2, sp, #168	; 0xa8
 19c:	2108      	movs	r1, #8
 19e:	a803      	add	r0, sp, #12
        outLen = sizeof(out);
 1a0:	9601      	str	r6, [sp, #4]
        charTest[0] = (byte)i;
 1a2:	f88d 400c 	strb.w	r4, [sp, #12]
        ret = Base64_Decode(charTest, sizeof(charTest), out, &outLen);
 1a6:	f7ff fffe 	bl	0 <Base64_Decode>
        if (ret != ASN_INPUT_E)
 1aa:	309a      	adds	r0, #154	; 0x9a
 1ac:	d006      	beq.n	1bc <base64_test+0x1bc>
            return WC_TEST_RET_ENC_I(i);
 1ae:	4848      	ldr	r0, [pc, #288]	; (2d0 <base64_test+0x2d0>)
 1b0:	4360      	muls	r0, r4
 1b2:	f100 4020 	add.w	r0, r0, #2684354560	; 0xa0000000
 1b6:	f6a0 00bb 	subw	r0, r0, #2235	; 0x8bb
 1ba:	e747      	b.n	4c <base64_test+0x4c>
    for (i = 1; i < 0x2b; i++) {
 1bc:	3401      	adds	r4, #1
 1be:	2c2b      	cmp	r4, #43	; 0x2b
 1c0:	d1ea      	bne.n	198 <base64_test+0x198>
 1c2:	4c4a      	ldr	r4, [pc, #296]	; (2ec <base64_test+0x2ec>)
        outLen = sizeof(out);
 1c4:	2680      	movs	r6, #128	; 0x80
        charTest[0] = badChar[i];
 1c6:	f814 3b01 	ldrb.w	r3, [r4], #1
 1ca:	f88d 300c 	strb.w	r3, [sp, #12]
        ret = Base64_Decode(charTest, sizeof(charTest), out, &outLen);
 1ce:	aa2a      	add	r2, sp, #168	; 0xa8
 1d0:	ab01      	add	r3, sp, #4
 1d2:	2108      	movs	r1, #8
 1d4:	a803      	add	r0, sp, #12
        outLen = sizeof(out);
 1d6:	9601      	str	r6, [sp, #4]
        ret = Base64_Decode(charTest, sizeof(charTest), out, &outLen);
 1d8:	f7ff fffe 	bl	0 <Base64_Decode>
        if (ret != ASN_INPUT_E)
 1dc:	309a      	adds	r0, #154	; 0x9a
 1de:	d006      	beq.n	1ee <base64_test+0x1ee>
            return WC_TEST_RET_ENC_I(i);
 1e0:	483b      	ldr	r0, [pc, #236]	; (2d0 <base64_test+0x2d0>)
 1e2:	4368      	muls	r0, r5
 1e4:	f100 4020 	add.w	r0, r0, #2684354560	; 0xa0000000
 1e8:	f6a0 00c3 	subw	r0, r0, #2243	; 0x8c3
 1ec:	e72e      	b.n	4c <base64_test+0x4c>
    for (i = 0; i < (int)sizeof(badChar) - 1; i++) {
 1ee:	3501      	adds	r5, #1
 1f0:	2d10      	cmp	r5, #16
 1f2:	d1e8      	bne.n	1c6 <base64_test+0x1c6>
    for (i = 0x7b; i < 0x100; i++) {
 1f4:	247b      	movs	r4, #123	; 0x7b
        outLen = sizeof(out);
 1f6:	2580      	movs	r5, #128	; 0x80
        ret = Base64_Decode(charTest, sizeof(charTest), out, &outLen);
 1f8:	ab01      	add	r3, sp, #4
 1fa:	aa2a      	add	r2, sp, #168	; 0xa8
 1fc:	2108      	movs	r1, #8
 1fe:	a803      	add	r0, sp, #12
        outLen = sizeof(out);
 200:	9501      	str	r5, [sp, #4]
        charTest[0] = (byte)i;
 202:	f88d 400c 	strb.w	r4, [sp, #12]
        ret = Base64_Decode(charTest, sizeof(charTest), out, &outLen);
 206:	f7ff fffe 	bl	0 <Base64_Decode>
        if (ret != ASN_INPUT_E)
 20a:	309a      	adds	r0, #154	; 0x9a
 20c:	d006      	beq.n	21c <base64_test+0x21c>
            return WC_TEST_RET_ENC_I(i);
 20e:	4830      	ldr	r0, [pc, #192]	; (2d0 <base64_test+0x2d0>)
 210:	4360      	muls	r0, r4
 212:	f100 4020 	add.w	r0, r0, #2684354560	; 0xa0000000
 216:	f6a0 00cb 	subw	r0, r0, #2251	; 0x8cb
 21a:	e717      	b.n	4c <base64_test+0x4c>
    for (i = 0x7b; i < 0x100; i++) {
 21c:	3401      	adds	r4, #1
 21e:	f5b4 7f80 	cmp.w	r4, #256	; 0x100
 222:	d1e9      	bne.n	1f8 <base64_test+0x1f8>
    dataLen = sizeof(data);
 224:	2303      	movs	r3, #3
 226:	9302      	str	r3, [sp, #8]
    ret = Base64_Decode(symbols, sizeof(symbols), data, &dataLen);
 228:	466a      	mov	r2, sp
 22a:	4831      	ldr	r0, [pc, #196]	; (2f0 <base64_test+0x2f0>)
 22c:	ab02      	add	r3, sp, #8
 22e:	2105      	movs	r1, #5
 230:	f7ff fffe 	bl	0 <Base64_Decode>
    if (ret != 0)
 234:	4602      	mov	r2, r0
 236:	b148      	cbz	r0, 24c <base64_test+0x24c>
        return WC_TEST_RET_ENC_EC(ret);
 238:	4a25      	ldr	r2, [pc, #148]	; (2d0 <base64_test+0x2d0>)
 23a:	4240      	negs	r0, r0
 23c:	f3c0 000a 	ubfx	r0, r0, #0, #11
 240:	4350      	muls	r0, r2
 242:	f100 4060 	add.w	r0, r0, #3758096384	; 0xe0000000
 246:	f6a0 00d4 	subw	r0, r0, #2260	; 0x8d4
 24a:	e6ff      	b.n	4c <base64_test+0x4c>
    ret = Base64_Encode(data, dataLen, NULL, &outLen);
 24c:	9902      	ldr	r1, [sp, #8]
    outLen = sizeof(out);
 24e:	9501      	str	r5, [sp, #4]
    ret = Base64_Encode(data, dataLen, NULL, &outLen);
 250:	ab01      	add	r3, sp, #4
 252:	4668      	mov	r0, sp
 254:	f7ff fffe 	bl	0 <Base64_Encode>
    if (ret != LENGTH_ONLY_E)
 258:	f110 0fca 	cmn.w	r0, #202	; 0xca
 25c:	d009      	beq.n	272 <base64_test+0x272>
        return WC_TEST_RET_ENC_EC(ret);
 25e:	4b1c      	ldr	r3, [pc, #112]	; (2d0 <base64_test+0x2d0>)
 260:	4240      	negs	r0, r0
 262:	f3c0 000a 	ubfx	r0, r0, #0, #11
 266:	4358      	muls	r0, r3
 268:	f100 4060 	add.w	r0, r0, #3758096384	; 0xe0000000
 26c:	f6a0 00d8 	subw	r0, r0, #2264	; 0x8d8
 270:	e6ec      	b.n	4c <base64_test+0x4c>
    ret = Base64_Encode(data, dataLen, out, &outLen);
 272:	9902      	ldr	r1, [sp, #8]
    outLen = sizeof(out);
 274:	9501      	str	r5, [sp, #4]
    ret = Base64_Encode(data, dataLen, out, &outLen);
 276:	ab01      	add	r3, sp, #4
 278:	aa2a      	add	r2, sp, #168	; 0xa8
 27a:	4668      	mov	r0, sp
 27c:	f7ff fffe 	bl	0 <Base64_Encode>
    if (ret != 0)
 280:	4604      	mov	r4, r0
 282:	b148      	cbz	r0, 298 <base64_test+0x298>
        return WC_TEST_RET_ENC_EC(ret);
 284:	4c12      	ldr	r4, [pc, #72]	; (2d0 <base64_test+0x2d0>)
 286:	4240      	negs	r0, r0
 288:	f3c0 000a 	ubfx	r0, r0, #0, #11
 28c:	4360      	muls	r0, r4
 28e:	f100 4060 	add.w	r0, r0, #3758096384	; 0xe0000000
 292:	f6a0 00dc 	subw	r0, r0, #2268	; 0x8dc
 296:	e6d9      	b.n	4c <base64_test+0x4c>
    outLen = 7;
 298:	2307      	movs	r3, #7
 29a:	9301      	str	r3, [sp, #4]
    ret = Base64_EncodeEsc(data, dataLen, out, &outLen);
 29c:	9902      	ldr	r1, [sp, #8]
 29e:	ab01      	add	r3, sp, #4
 2a0:	aa2a      	add	r2, sp, #168	; 0xa8
 2a2:	4668      	mov	r0, sp
 2a4:	f7ff fffe 	bl	0 <Base64_EncodeEsc>
    if (ret != BUFFER_E)
 2a8:	f110 0f84 	cmn.w	r0, #132	; 0x84
 2ac:	d022      	beq.n	2f4 <base64_test+0x2f4>
        return WC_TEST_RET_ENC_EC(ret);
 2ae:	4b08      	ldr	r3, [pc, #32]	; (2d0 <base64_test+0x2d0>)
 2b0:	4240      	negs	r0, r0
 2b2:	f3c0 000a 	ubfx	r0, r0, #0, #11
 2b6:	4358      	muls	r0, r3
 2b8:	f100 4060 	add.w	r0, r0, #3758096384	; 0xe0000000
 2bc:	f5a0 600e 	sub.w	r0, r0, #2272	; 0x8e0
 2c0:	e6c4      	b.n	4c <base64_test+0x4c>
 2c2:	bf00      	nop
	...
 2d0:	fffe7960 	.word	0xfffe7960
	...
    ret = Base64_EncodeEsc(data, dataLen, NULL, &outLen);
 2f4:	9902      	ldr	r1, [sp, #8]
    outLen = sizeof(out);
 2f6:	9501      	str	r5, [sp, #4]
    ret = Base64_EncodeEsc(data, dataLen, NULL, &outLen);
 2f8:	ab01      	add	r3, sp, #4
 2fa:	4622      	mov	r2, r4
 2fc:	4668      	mov	r0, sp
 2fe:	f7ff fffe 	bl	0 <Base64_EncodeEsc>
    if (ret != LENGTH_ONLY_E)
 302:	f110 0fca 	cmn.w	r0, #202	; 0xca
 306:	d009      	beq.n	31c <base64_test+0x31c>
        return WC_TEST_RET_ENC_EC(ret);
 308:	4b34      	ldr	r3, [pc, #208]	; (3dc <base64_test+0x3dc>)
 30a:	4240      	negs	r0, r0
 30c:	f3c0 000a 	ubfx	r0, r0, #0, #11
 310:	4358      	muls	r0, r3
 312:	f100 4060 	add.w	r0, r0, #3758096384	; 0xe0000000
 316:	f6a0 00e4 	subw	r0, r0, #2276	; 0x8e4
 31a:	e697      	b.n	4c <base64_test+0x4c>
    ret = Base64_EncodeEsc(data, dataLen, out, &outLen);
 31c:	9902      	ldr	r1, [sp, #8]
    outLen = sizeof(out);
 31e:	9501      	str	r5, [sp, #4]
    ret = Base64_EncodeEsc(data, dataLen, out, &outLen);
 320:	ab01      	add	r3, sp, #4
 322:	aa2a      	add	r2, sp, #168	; 0xa8
 324:	4668      	mov	r0, sp
 326:	f7ff fffe 	bl	0 <Base64_EncodeEsc>
    if (ret != 0)
 32a:	b148      	cbz	r0, 340 <base64_test+0x340>
        return WC_TEST_RET_ENC_EC(ret);
 32c:	4b2b      	ldr	r3, [pc, #172]	; (3dc <base64_test+0x3dc>)
 32e:	4240      	negs	r0, r0
 330:	f3c0 000a 	ubfx	r0, r0, #0, #11
 334:	4358      	muls	r0, r3
 336:	f100 4060 	add.w	r0, r0, #3758096384	; 0xe0000000
 33a:	f6a0 00e8 	subw	r0, r0, #2280	; 0x8e8
 33e:	e685      	b.n	4c <base64_test+0x4c>
    ret = Base64_Encode_NoNl(data, dataLen, out, &outLen);
 340:	9902      	ldr	r1, [sp, #8]
    outLen = sizeof(out);
 342:	9501      	str	r5, [sp, #4]
    ret = Base64_Encode_NoNl(data, dataLen, out, &outLen);
 344:	ab01      	add	r3, sp, #4
 346:	aa2a      	add	r2, sp, #168	; 0xa8
 348:	4668      	mov	r0, sp
 34a:	f7ff fffe 	bl	0 <Base64_Encode_NoNl>
    if (ret != 0)
 34e:	b148      	cbz	r0, 364 <base64_test+0x364>
        return WC_TEST_RET_ENC_EC(ret);
 350:	4b22      	ldr	r3, [pc, #136]	; (3dc <base64_test+0x3dc>)
 352:	4240      	negs	r0, r0
 354:	f3c0 000a 	ubfx	r0, r0, #0, #11
 358:	4358      	muls	r0, r3
 35a:	f100 4060 	add.w	r0, r0, #3758096384	; 0xe0000000
 35e:	f6a0 00ec 	subw	r0, r0, #2284	; 0x8ec
 362:	e673      	b.n	4c <base64_test+0x4c>
    dataLen = sizeof(longData);
 364:	214f      	movs	r1, #79	; 0x4f
    ret = Base64_Encode(longData, dataLen, out, &outLen);
 366:	ab01      	add	r3, sp, #4
 368:	aa2a      	add	r2, sp, #168	; 0xa8
 36a:	a816      	add	r0, sp, #88	; 0x58
    outLen = sizeof(out);
 36c:	9501      	str	r5, [sp, #4]
    dataLen = sizeof(longData);
 36e:	9102      	str	r1, [sp, #8]
    ret = Base64_Encode(longData, dataLen, out, &outLen);
 370:	f7ff fffe 	bl	0 <Base64_Encode>
    if (ret != 0)
 374:	b148      	cbz	r0, 38a <base64_test+0x38a>
        return WC_TEST_RET_ENC_EC(ret);
 376:	4b19      	ldr	r3, [pc, #100]	; (3dc <base64_test+0x3dc>)
 378:	4240      	negs	r0, r0
 37a:	f3c0 000a 	ubfx	r0, r0, #0, #11
 37e:	4358      	muls	r0, r3
 380:	f100 4060 	add.w	r0, r0, #3758096384	; 0xe0000000
 384:	f6a0 00f3 	subw	r0, r0, #2291	; 0x8f3
 388:	e660      	b.n	4c <base64_test+0x4c>
    outLen = sizeof(out);
 38a:	2480      	movs	r4, #128	; 0x80
    ret = Base64_EncodeEsc(longData, dataLen, out, &outLen);
 38c:	9902      	ldr	r1, [sp, #8]
    outLen = sizeof(out);
 38e:	9401      	str	r4, [sp, #4]
    ret = Base64_EncodeEsc(longData, dataLen, out, &outLen);
 390:	ab01      	add	r3, sp, #4
 392:	aa2a      	add	r2, sp, #168	; 0xa8
 394:	a816      	add	r0, sp, #88	; 0x58
 396:	f7ff fffe 	bl	0 <Base64_EncodeEsc>
    if (ret != 0)
 39a:	b148      	cbz	r0, 3b0 <base64_test+0x3b0>
        return WC_TEST_RET_ENC_EC(ret);
 39c:	4b0f      	ldr	r3, [pc, #60]	; (3dc <base64_test+0x3dc>)
 39e:	4240      	negs	r0, r0
 3a0:	f3c0 000a 	ubfx	r0, r0, #0, #11
 3a4:	4358      	muls	r0, r3
 3a6:	f100 4060 	add.w	r0, r0, #3758096384	; 0xe0000000
 3aa:	f6a0 00f7 	subw	r0, r0, #2295	; 0x8f7
 3ae:	e64d      	b.n	4c <base64_test+0x4c>
    ret = Base64_Encode_NoNl(longData, dataLen, out, &outLen);
 3b0:	9902      	ldr	r1, [sp, #8]
    outLen = sizeof(out);
 3b2:	9401      	str	r4, [sp, #4]
    ret = Base64_Encode_NoNl(longData, dataLen, out, &outLen);
 3b4:	ab01      	add	r3, sp, #4
 3b6:	aa2a      	add	r2, sp, #168	; 0xa8
 3b8:	a816      	add	r0, sp, #88	; 0x58
 3ba:	f7ff fffe 	bl	0 <Base64_Encode_NoNl>
    if (ret != 0)
 3be:	2800      	cmp	r0, #0
 3c0:	f43f ae44 	beq.w	4c <base64_test+0x4c>
        return WC_TEST_RET_ENC_EC(ret);
 3c4:	4b05      	ldr	r3, [pc, #20]	; (3dc <base64_test+0x3dc>)
 3c6:	4240      	negs	r0, r0
 3c8:	f3c0 000a 	ubfx	r0, r0, #0, #11
 3cc:	4358      	muls	r0, r3
 3ce:	f100 4060 	add.w	r0, r0, #3758096384	; 0xe0000000
 3d2:	f6a0 00fb 	subw	r0, r0, #2299	; 0x8fb
 3d6:	e639      	b.n	4c <base64_test+0x4c>
        return WC_TEST_RET_ENC_NC;
 3d8:	4801      	ldr	r0, [pc, #4]	; (3e0 <base64_test+0x3e0>)
 3da:	e637      	b.n	4c <base64_test+0x4c>
 3dc:	fffe7960 	.word	0xfffe7960
 3e0:	fffff769 	.word	0xfffff769

Disassembly of section .text.asn_test:

00000000 <asn_test>:
{
   0:	b510      	push	{r4, lr}
   2:	b092      	sub	sp, #72	; 0x48
    ret = wc_GetDateInfo(dateBuf, (int)sizeof(dateBuf), &datePart, &format,
   4:	ab04      	add	r3, sp, #16
   6:	9300      	str	r3, [sp, #0]
   8:	4834      	ldr	r0, [pc, #208]	; (dc <asn_test+0xdc>)
   a:	f10d 030f 	add.w	r3, sp, #15
   e:	aa05      	add	r2, sp, #20
  10:	210f      	movs	r1, #15
  12:	f7ff fffe 	bl	0 <wc_GetDateInfo>
    if (ret != 0)
  16:	4604      	mov	r4, r0
  18:	b150      	cbz	r0, 30 <asn_test+0x30>
        return WC_TEST_RET_ENC_EC(ret);
  1a:	4c31      	ldr	r4, [pc, #196]	; (e0 <asn_test+0xe0>)
  1c:	4240      	negs	r0, r0
  1e:	f3c0 000a 	ubfx	r0, r0, #0, #11
  22:	4360      	muls	r0, r4
  24:	f100 4060 	add.w	r0, r0, #3758096384	; 0xe0000000
  28:	f6a0 103a 	subw	r0, r0, #2362	; 0x93a
}
  2c:	b012      	add	sp, #72	; 0x48
  2e:	bd10      	pop	{r4, pc}
    if ((ret = wc_GetTime(NULL, sizeof(now))) != BAD_FUNC_ARG)
  30:	2108      	movs	r1, #8
  32:	f7ff fffe 	bl	0 <wc_GetTime>
  36:	f110 0fad 	cmn.w	r0, #173	; 0xad
  3a:	d009      	beq.n	50 <asn_test+0x50>
        return WC_TEST_RET_ENC_EC(ret);
  3c:	4b28      	ldr	r3, [pc, #160]	; (e0 <asn_test+0xe0>)
  3e:	4240      	negs	r0, r0
  40:	f3c0 000a 	ubfx	r0, r0, #0, #11
  44:	4358      	muls	r0, r3
  46:	f100 4060 	add.w	r0, r0, #3758096384	; 0xe0000000
  4a:	f6a0 103f 	subw	r0, r0, #2367	; 0x93f
  4e:	e7ed      	b.n	2c <asn_test+0x2c>
    if ((ret = wc_GetTime(&now, 0)) != BUFFER_E)
  50:	4621      	mov	r1, r4
  52:	a806      	add	r0, sp, #24
  54:	f7ff fffe 	bl	0 <wc_GetTime>
  58:	f110 0f84 	cmn.w	r0, #132	; 0x84
  5c:	d00a      	beq.n	74 <asn_test+0x74>
        return WC_TEST_RET_ENC_EC(ret);
  5e:	4b20      	ldr	r3, [pc, #128]	; (e0 <asn_test+0xe0>)
  60:	4240      	negs	r0, r0
  62:	f3c0 000a 	ubfx	r0, r0, #0, #11
  66:	4358      	muls	r0, r3
  68:	f100 4060 	add.w	r0, r0, #3758096384	; 0xe0000000
  6c:	f46f 6314 	mvn.w	r3, #2368	; 0x940
  70:	4418      	add	r0, r3
  72:	e7db      	b.n	2c <asn_test+0x2c>
    now = 0;
  74:	2200      	movs	r2, #0
  76:	2300      	movs	r3, #0
    if ((ret = wc_GetTime(&now, sizeof(now))) != 0) {
  78:	2108      	movs	r1, #8
  7a:	a806      	add	r0, sp, #24
    now = 0;
  7c:	e9cd 2306 	strd	r2, r3, [sp, #24]
    if ((ret = wc_GetTime(&now, sizeof(now))) != 0) {
  80:	f7ff fffe 	bl	0 <wc_GetTime>
  84:	b148      	cbz	r0, 9a <asn_test+0x9a>
        return WC_TEST_RET_ENC_EC(ret);
  86:	4b16      	ldr	r3, [pc, #88]	; (e0 <asn_test+0xe0>)
  88:	4240      	negs	r0, r0
  8a:	f3c0 000a 	ubfx	r0, r0, #0, #11
  8e:	4358      	muls	r0, r3
  90:	f100 4060 	add.w	r0, r0, #3758096384	; 0xe0000000
  94:	f6a0 1045 	subw	r0, r0, #2373	; 0x945
  98:	e7c8      	b.n	2c <asn_test+0x2c>
    if (now == 0) {
  9a:	e9dd 2306 	ldrd	r2, r3, [sp, #24]
  9e:	4313      	orrs	r3, r2
  a0:	d109      	bne.n	b6 <asn_test+0xb6>
        printf("RTC/Time not set!\n");
  a2:	4810      	ldr	r0, [pc, #64]	; (e4 <asn_test+0xe4>)
  a4:	f7ff fffe 	bl	0 <printf>
  a8:	4b0f      	ldr	r3, [pc, #60]	; (e8 <asn_test+0xe8>)
  aa:	681b      	ldr	r3, [r3, #0]
  ac:	6898      	ldr	r0, [r3, #8]
  ae:	f7ff fffe 	bl	0 <fflush>
        return WC_TEST_RET_ENC_NC;
  b2:	480e      	ldr	r0, [pc, #56]	; (ec <asn_test+0xec>)
  b4:	e7ba      	b.n	2c <asn_test+0x2c>
    ret = wc_GetDateAsCalendarTime(datePart, length, format, &timearg);
  b6:	e9dd 1004 	ldrd	r1, r0, [sp, #16]
  ba:	f89d 200f 	ldrb.w	r2, [sp, #15]
  be:	ab09      	add	r3, sp, #36	; 0x24
  c0:	f7ff fffe 	bl	0 <wc_GetDateAsCalendarTime>
    if (ret != 0)
  c4:	2800      	cmp	r0, #0
  c6:	d0b1      	beq.n	2c <asn_test+0x2c>
        return WC_TEST_RET_ENC_EC(ret);
  c8:	4b05      	ldr	r3, [pc, #20]	; (e0 <asn_test+0xe0>)
  ca:	4240      	negs	r0, r0
  cc:	f3c0 000a 	ubfx	r0, r0, #0, #11
  d0:	4358      	muls	r0, r3
  d2:	f100 4060 	add.w	r0, r0, #3758096384	; 0xe0000000
  d6:	f6a0 104e 	subw	r0, r0, #2382	; 0x94e
  da:	e7a7      	b.n	2c <asn_test+0x2c>
  dc:	00000000 	.word	0x00000000
  e0:	fffe7960 	.word	0xfffe7960
	...
  ec:	fffff6b7 	.word	0xfffff6b7

Disassembly of section .text.sha_test:

00000000 <sha_test>:
{
   0:	e92d 4ff0 	stmdb	sp!, {r4, r5, r6, r7, r8, r9, sl, fp, lr}
    a.inLen  = XSTRLEN(a.input);
   4:	4b78      	ldr	r3, [pc, #480]	; (1e8 <sha_test+0x1e8>)
    b.inLen  = XSTRLEN(b.input);
   6:	f8df b1e4 	ldr.w	fp, [pc, #484]	; 1ec <sha_test+0x1ec>
    c.inLen  = XSTRLEN(c.input);
   a:	f8df a1e4 	ldr.w	sl, [pc, #484]	; 1f0 <sha_test+0x1f0>
    d.inLen  = XSTRLEN(d.input);
   e:	f8df 91e4 	ldr.w	r9, [pc, #484]	; 1f4 <sha_test+0x1f4>
    e.inLen  = XSTRLEN(e.input);
  12:	f8df 81e4 	ldr.w	r8, [pc, #484]	; 1f8 <sha_test+0x1f8>
{
  16:	f2ad 5d44 	subw	sp, sp, #1348	; 0x544
    a.inLen  = XSTRLEN(a.input);
  1a:	4618      	mov	r0, r3
  1c:	f7ff fffe 	bl	0 <strlen>
  20:	4607      	mov	r7, r0
    b.inLen  = XSTRLEN(b.input);
  22:	4658      	mov	r0, fp
  24:	f7ff fffe 	bl	0 <strlen>
  28:	4606      	mov	r6, r0
    c.inLen  = XSTRLEN(c.input);
  2a:	4650      	mov	r0, sl
  2c:	f7ff fffe 	bl	0 <strlen>
  30:	4605      	mov	r5, r0
    d.inLen  = XSTRLEN(d.input);
  32:	4648      	mov	r0, r9
  34:	f7ff fffe 	bl	0 <strlen>
  38:	4604      	mov	r4, r0
    e.inLen  = XSTRLEN(e.input);
  3a:	4640      	mov	r0, r8
  3c:	f7ff fffe 	bl	0 <strlen>
    test_sha[0] = a;
  40:	4b69      	ldr	r3, [pc, #420]	; (1e8 <sha_test+0x1e8>)
  42:	930a      	str	r3, [sp, #40]	; 0x28
  44:	4b6d      	ldr	r3, [pc, #436]	; (1fc <sha_test+0x1fc>)
    test_sha[1] = b;
  46:	f8cd b038 	str.w	fp, [sp, #56]	; 0x38
    test_sha[0] = a;
  4a:	e9cd 370b 	strd	r3, r7, [sp, #44]	; 0x2c
    test_sha[1] = b;
  4e:	4b6c      	ldr	r3, [pc, #432]	; (200 <sha_test+0x200>)
    test_sha[2] = c;
  50:	f8cd a048 	str.w	sl, [sp, #72]	; 0x48
    test_sha[1] = b;
  54:	e9cd 360f 	strd	r3, r6, [sp, #60]	; 0x3c
    test_sha[2] = c;
  58:	4b6a      	ldr	r3, [pc, #424]	; (204 <sha_test+0x204>)
    test_sha[3] = d;
  5a:	f8cd 9058 	str.w	r9, [sp, #88]	; 0x58
    test_sha[2] = c;
  5e:	e9cd 3513 	strd	r3, r5, [sp, #76]	; 0x4c
    test_sha[3] = d;
  62:	4b69      	ldr	r3, [pc, #420]	; (208 <sha_test+0x208>)
    test_sha[4] = e;
  64:	f8cd 8068 	str.w	r8, [sp, #104]	; 0x68
    test_sha[3] = d;
  68:	e9cd 3417 	strd	r3, r4, [sp, #92]	; 0x5c
    test_sha[4] = e;
  6c:	4b67      	ldr	r3, [pc, #412]	; (20c <sha_test+0x20c>)
    ret = wc_InitSha_ex(&sha, HEAP_HINT, devId);
  6e:	2100      	movs	r1, #0
    test_sha[4] = e;
  70:	e9cd 301b 	strd	r3, r0, [sp, #108]	; 0x6c
    ret = wc_InitSha_ex(&sha, HEAP_HINT, devId);
  74:	f06f 0201 	mvn.w	r2, #1
  78:	a81e      	add	r0, sp, #120	; 0x78
  7a:	f7ff fffe 	bl	0 <wc_InitSha_ex>
    if (ret != 0)
  7e:	4601      	mov	r1, r0
  80:	b170      	cbz	r0, a0 <sha_test+0xa0>
        return WC_TEST_RET_ENC_EC(ret);
  82:	4963      	ldr	r1, [pc, #396]	; (210 <sha_test+0x210>)
  84:	4244      	negs	r4, r0
  86:	f3c4 040a 	ubfx	r4, r4, #0, #11
  8a:	434c      	muls	r4, r1
  8c:	f104 4460 	add.w	r4, r4, #3758096384	; 0xe0000000
  90:	f46f 632b 	mvn.w	r3, #2736	; 0xab0
  94:	441c      	add	r4, r3
}
  96:	4620      	mov	r0, r4
  98:	f20d 5d44 	addw	sp, sp, #1348	; 0x544
  9c:	e8bd 8ff0 	ldmia.w	sp!, {r4, r5, r6, r7, r8, r9, sl, fp, pc}
    ret = wc_InitSha_ex(&shaCopy, HEAP_HINT, devId);
  a0:	f06f 0201 	mvn.w	r2, #1
  a4:	a837      	add	r0, sp, #220	; 0xdc
  a6:	f7ff fffe 	bl	0 <wc_InitSha_ex>
    if (ret != 0) {
  aa:	4606      	mov	r6, r0
  ac:	b160      	cbz	r0, c8 <sha_test+0xc8>
        wc_ShaFree(&sha);
  ae:	a81e      	add	r0, sp, #120	; 0x78
  b0:	f7ff fffe 	bl	0 <wc_ShaFree>
        return WC_TEST_RET_ENC_EC(ret);
  b4:	4274      	negs	r4, r6
  b6:	4856      	ldr	r0, [pc, #344]	; (210 <sha_test+0x210>)
  b8:	f3c4 040a 	ubfx	r4, r4, #0, #11
  bc:	4344      	muls	r4, r0
  be:	f104 4460 	add.w	r4, r4, #3758096384	; 0xe0000000
  c2:	f6a4 24b5 	subw	r4, r4, #2741	; 0xab5
  c6:	e7e6      	b.n	96 <sha_test+0x96>
  c8:	ad0a      	add	r5, sp, #40	; 0x28
        ret = wc_ShaUpdate(&sha, (byte*)test_sha[i].input,
  ca:	68aa      	ldr	r2, [r5, #8]
  cc:	6829      	ldr	r1, [r5, #0]
  ce:	a81e      	add	r0, sp, #120	; 0x78
  d0:	f7ff fffe 	bl	0 <wc_ShaUpdate>
        if (ret != 0)
  d4:	b160      	cbz	r0, f0 <sha_test+0xf0>
            ERROR_OUT(WC_TEST_RET_ENC_I(i), exit);
  d6:	4c4e      	ldr	r4, [pc, #312]	; (210 <sha_test+0x210>)
  d8:	4374      	muls	r4, r6
  da:	f104 4420 	add.w	r4, r4, #2684354560	; 0xa0000000
  de:	f6a4 24bc 	subw	r4, r4, #2748	; 0xabc
    wc_ShaFree(&sha);
  e2:	a81e      	add	r0, sp, #120	; 0x78
  e4:	f7ff fffe 	bl	0 <wc_ShaFree>
    wc_ShaFree(&shaCopy);
  e8:	a837      	add	r0, sp, #220	; 0xdc
  ea:	f7ff fffe 	bl	0 <wc_ShaFree>
    return ret;
  ee:	e7d2      	b.n	96 <sha_test+0x96>
        ret = wc_ShaGetHash(&sha, hashcopy);
  f0:	a905      	add	r1, sp, #20
  f2:	a81e      	add	r0, sp, #120	; 0x78
  f4:	f7ff fffe 	bl	0 <wc_ShaGetHash>
        if (ret != 0)
  f8:	b130      	cbz	r0, 108 <sha_test+0x108>
            ERROR_OUT(WC_TEST_RET_ENC_I(i), exit);
  fa:	4c45      	ldr	r4, [pc, #276]	; (210 <sha_test+0x210>)
  fc:	4374      	muls	r4, r6
  fe:	f104 4420 	add.w	r4, r4, #2684354560	; 0xa0000000
 102:	f6a4 24bf 	subw	r4, r4, #2751	; 0xabf
 106:	e7ec      	b.n	e2 <sha_test+0xe2>
        ret = wc_ShaCopy(&sha, &shaCopy);
 108:	a937      	add	r1, sp, #220	; 0xdc
 10a:	a81e      	add	r0, sp, #120	; 0x78
 10c:	f7ff fffe 	bl	0 <wc_ShaCopy>
        if (ret != 0)
 110:	b130      	cbz	r0, 120 <sha_test+0x120>
            ERROR_OUT(WC_TEST_RET_ENC_I(i), exit);
 112:	4c3f      	ldr	r4, [pc, #252]	; (210 <sha_test+0x210>)
 114:	4374      	muls	r4, r6
 116:	f104 4420 	add.w	r4, r4, #2684354560	; 0xa0000000
 11a:	f6a4 24c2 	subw	r4, r4, #2754	; 0xac2
 11e:	e7e0      	b.n	e2 <sha_test+0xe2>
        ret = wc_ShaFinal(&sha, hash);
 120:	4669      	mov	r1, sp
 122:	a81e      	add	r0, sp, #120	; 0x78
 124:	f7ff fffe 	bl	0 <wc_ShaFinal>
        if (ret != 0)
 128:	b130      	cbz	r0, 138 <sha_test+0x138>
            ERROR_OUT(WC_TEST_RET_ENC_I(i), exit);
 12a:	4c39      	ldr	r4, [pc, #228]	; (210 <sha_test+0x210>)
 12c:	4374      	muls	r4, r6
 12e:	f104 4420 	add.w	r4, r4, #2684354560	; 0xa0000000
 132:	f6a4 24c5 	subw	r4, r4, #2757	; 0xac5
 136:	e7d4      	b.n	e2 <sha_test+0xe2>
        wc_ShaFree(&shaCopy);
 138:	a837      	add	r0, sp, #220	; 0xdc
 13a:	f7ff fffe 	bl	0 <wc_ShaFree>
        if (XMEMCMP(hash, test_sha[i].output, WC_SHA_DIGEST_SIZE) != 0)
 13e:	6869      	ldr	r1, [r5, #4]
 140:	2214      	movs	r2, #20
 142:	4668      	mov	r0, sp
 144:	f7ff fffe 	bl	0 <memcmp>
 148:	b130      	cbz	r0, 158 <sha_test+0x158>
            ERROR_OUT(WC_TEST_RET_ENC_I(i), exit);
 14a:	4c31      	ldr	r4, [pc, #196]	; (210 <sha_test+0x210>)
 14c:	4374      	muls	r4, r6
 14e:	f104 4420 	add.w	r4, r4, #2684354560	; 0xa0000000
 152:	f6a4 24c9 	subw	r4, r4, #2761	; 0xac9
 156:	e7c4      	b.n	e2 <sha_test+0xe2>
        if (XMEMCMP(hash, hashcopy, WC_SHA_DIGEST_SIZE) != 0)
 158:	2214      	movs	r2, #20
 15a:	eb0d 0102 	add.w	r1, sp, r2
 15e:	4668      	mov	r0, sp
 160:	f7ff fffe 	bl	0 <memcmp>
 164:	b130      	cbz	r0, 174 <sha_test+0x174>
            ERROR_OUT(WC_TEST_RET_ENC_I(i), exit);
 166:	4c2a      	ldr	r4, [pc, #168]	; (210 <sha_test+0x210>)
 168:	4374      	muls	r4, r6
 16a:	f104 4420 	add.w	r4, r4, #2684354560	; 0xa0000000
 16e:	f6a4 24cb 	subw	r4, r4, #2763	; 0xacb
 172:	e7b6      	b.n	e2 <sha_test+0xe2>
    for (i = 0; i < times; ++i) {
 174:	3601      	adds	r6, #1
 176:	2e05      	cmp	r6, #5
 178:	f105 0510 	add.w	r5, r5, #16
 17c:	d1a5      	bne.n	ca <sha_test+0xca>
 17e:	ab50      	add	r3, sp, #320	; 0x140
 180:	461d      	mov	r5, r3
        large_input[i] = (byte)(i & 0xFF);
 182:	f803 0b01 	strb.w	r0, [r3], #1
    for (i = 0; i < (int)sizeof(large_input); i++) {
 186:	3001      	adds	r0, #1
 188:	f5b0 6f80 	cmp.w	r0, #1024	; 0x400
 18c:	d1f9      	bne.n	182 <sha_test+0x182>
 18e:	2464      	movs	r4, #100	; 0x64
        ret = wc_ShaUpdate(&sha, (byte*)large_input,
 190:	f44f 6280 	mov.w	r2, #1024	; 0x400
 194:	4629      	mov	r1, r5
 196:	a81e      	add	r0, sp, #120	; 0x78
 198:	f7ff fffe 	bl	0 <wc_ShaUpdate>
        if (ret != 0)
 19c:	b148      	cbz	r0, 1b2 <sha_test+0x1b2>
            ERROR_OUT(WC_TEST_RET_ENC_EC(ret), exit);
 19e:	4244      	negs	r4, r0
 1a0:	481b      	ldr	r0, [pc, #108]	; (210 <sha_test+0x210>)
 1a2:	f3c4 040a 	ubfx	r4, r4, #0, #11
 1a6:	4344      	muls	r4, r0
 1a8:	f104 4460 	add.w	r4, r4, #3758096384	; 0xe0000000
 1ac:	f6a4 24eb 	subw	r4, r4, #2795	; 0xaeb
 1b0:	e797      	b.n	e2 <sha_test+0xe2>
    for (i = 0; i < times; ++i) {
 1b2:	3c01      	subs	r4, #1
 1b4:	d1ec      	bne.n	190 <sha_test+0x190>
    ret = wc_ShaFinal(&sha, hash);
 1b6:	4669      	mov	r1, sp
 1b8:	a81e      	add	r0, sp, #120	; 0x78
 1ba:	f7ff fffe 	bl	0 <wc_ShaFinal>
    if (ret != 0)
 1be:	b148      	cbz	r0, 1d4 <sha_test+0x1d4>
        ERROR_OUT(WC_TEST_RET_ENC_EC(ret), exit);
 1c0:	4244      	negs	r4, r0
 1c2:	4813      	ldr	r0, [pc, #76]	; (210 <sha_test+0x210>)
 1c4:	f3c4 040a 	ubfx	r4, r4, #0, #11
 1c8:	4344      	muls	r4, r0
 1ca:	f104 4460 	add.w	r4, r4, #3758096384	; 0xe0000000
 1ce:	f6a4 24ef 	subw	r4, r4, #2799	; 0xaef
 1d2:	e786      	b.n	e2 <sha_test+0xe2>
    if (XMEMCMP(hash, large_digest, WC_SHA_DIGEST_SIZE) != 0)
 1d4:	490f      	ldr	r1, [pc, #60]	; (214 <sha_test+0x214>)
 1d6:	2214      	movs	r2, #20
 1d8:	4668      	mov	r0, sp
 1da:	f7ff fffe 	bl	0 <memcmp>
        ERROR_OUT(WC_TEST_RET_ENC_NC, exit);
 1de:	1e04      	subs	r4, r0, #0
 1e0:	bf18      	it	ne
 1e2:	f46f 642f 	mvnne.w	r4, #2800	; 0xaf0
 1e6:	e77c      	b.n	e2 <sha_test+0xe2>
 1e8:	00000000 	.word	0x00000000
 1ec:	00000001 	.word	0x00000001
 1f0:	00000005 	.word	0x00000005
 1f4:	0000003e 	.word	0x0000003e
 1f8:	0000007f 	.word	0x0000007f
 1fc:	00000100 	.word	0x00000100
 200:	00000115 	.word	0x00000115
 204:	0000012a 	.word	0x0000012a
 208:	00000040 	.word	0x00000040
 20c:	0000013f 	.word	0x0000013f
 210:	fffe7960 	.word	0xfffe7960
 214:	00000154 	.word	0x00000154

Disassembly of section .text.sha256_test:

00000000 <sha256_test>:
{
   0:	e92d 41f0 	stmdb	sp!, {r4, r5, r6, r7, r8, lr}
    a.inLen  = XSTRLEN(a.input);
   4:	f8df 81ac 	ldr.w	r8, [pc, #428]	; 1b4 <sha256_test+0x1b4>
    b.inLen  = XSTRLEN(b.input);
   8:	4f6b      	ldr	r7, [pc, #428]	; (1b8 <sha256_test+0x1b8>)
    c.inLen  = XSTRLEN(c.input);
   a:	4e6c      	ldr	r6, [pc, #432]	; (1bc <sha256_test+0x1bc>)
{
   c:	f5ad 6daa 	sub.w	sp, sp, #1360	; 0x550
    a.inLen  = XSTRLEN(a.input);
  10:	4640      	mov	r0, r8
  12:	f7ff fffe 	bl	0 <strlen>
  16:	4605      	mov	r5, r0
    b.inLen  = XSTRLEN(b.input);
  18:	4638      	mov	r0, r7
  1a:	f7ff fffe 	bl	0 <strlen>
  1e:	4604      	mov	r4, r0
    c.inLen  = XSTRLEN(c.input);
  20:	4630      	mov	r0, r6
  22:	f7ff fffe 	bl	0 <strlen>
    test_sha[0] = a;
  26:	4b66      	ldr	r3, [pc, #408]	; (1c0 <sha256_test+0x1c0>)
  28:	f8cd 8040 	str.w	r8, [sp, #64]	; 0x40
  2c:	e9cd 3511 	strd	r3, r5, [sp, #68]	; 0x44
    test_sha[1] = b;
  30:	4b64      	ldr	r3, [pc, #400]	; (1c4 <sha256_test+0x1c4>)
  32:	9714      	str	r7, [sp, #80]	; 0x50
  34:	e9cd 3415 	strd	r3, r4, [sp, #84]	; 0x54
    test_sha[2] = c;
  38:	4b63      	ldr	r3, [pc, #396]	; (1c8 <sha256_test+0x1c8>)
  3a:	9618      	str	r6, [sp, #96]	; 0x60
  3c:	e9cd 3019 	strd	r3, r0, [sp, #100]	; 0x64
    ret = wc_InitSha256_ex(&sha, HEAP_HINT, devId);
  40:	2100      	movs	r1, #0
  42:	f06f 0201 	mvn.w	r2, #1
  46:	a81c      	add	r0, sp, #112	; 0x70
  48:	f7ff fffe 	bl	0 <wc_InitSha256_ex>
    if (ret != 0)
  4c:	4601      	mov	r1, r0
  4e:	b168      	cbz	r0, 6c <sha256_test+0x6c>
        return WC_TEST_RET_ENC_EC(ret);
  50:	495e      	ldr	r1, [pc, #376]	; (1cc <sha256_test+0x1cc>)
  52:	4244      	negs	r4, r0
  54:	f3c4 040a 	ubfx	r4, r4, #0, #11
  58:	434c      	muls	r4, r1
  5a:	f104 4460 	add.w	r4, r4, #3758096384	; 0xe0000000
  5e:	f6a4 443a 	subw	r4, r4, #3130	; 0xc3a
}
  62:	4620      	mov	r0, r4
  64:	f50d 6daa 	add.w	sp, sp, #1360	; 0x550
  68:	e8bd 81f0 	ldmia.w	sp!, {r4, r5, r6, r7, r8, pc}
    ret = wc_InitSha256_ex(&shaCopy, HEAP_HINT, devId);
  6c:	f06f 0201 	mvn.w	r2, #1
  70:	a838      	add	r0, sp, #224	; 0xe0
  72:	f7ff fffe 	bl	0 <wc_InitSha256_ex>
    if (ret != 0) {
  76:	4606      	mov	r6, r0
  78:	b160      	cbz	r0, 94 <sha256_test+0x94>
        wc_Sha256Free(&sha);
  7a:	a81c      	add	r0, sp, #112	; 0x70
  7c:	f7ff fffe 	bl	0 <wc_Sha256Free>
        return WC_TEST_RET_ENC_EC(ret);
  80:	4274      	negs	r4, r6
  82:	4852      	ldr	r0, [pc, #328]	; (1cc <sha256_test+0x1cc>)
  84:	f3c4 040a 	ubfx	r4, r4, #0, #11
  88:	4344      	muls	r4, r0
  8a:	f104 4460 	add.w	r4, r4, #3758096384	; 0xe0000000
  8e:	f6a4 443e 	subw	r4, r4, #3134	; 0xc3e
  92:	e7e6      	b.n	62 <sha256_test+0x62>
  94:	ad10      	add	r5, sp, #64	; 0x40
        ret = wc_Sha256Update(&sha, (byte*)test_sha[i].input,
  96:	68aa      	ldr	r2, [r5, #8]
  98:	6829      	ldr	r1, [r5, #0]
  9a:	a81c      	add	r0, sp, #112	; 0x70
  9c:	f7ff fffe 	bl	0 <wc_Sha256Update>
        if (ret != 0) {
  a0:	b160      	cbz	r0, bc <sha256_test+0xbc>
            ERROR_OUT(WC_TEST_RET_ENC_I(i), exit);
  a2:	4c4a      	ldr	r4, [pc, #296]	; (1cc <sha256_test+0x1cc>)
  a4:	4374      	muls	r4, r6
  a6:	f104 4420 	add.w	r4, r4, #2684354560	; 0xa0000000
  aa:	f6a4 4445 	subw	r4, r4, #3141	; 0xc45
    wc_Sha256Free(&sha);
  ae:	a81c      	add	r0, sp, #112	; 0x70
  b0:	f7ff fffe 	bl	0 <wc_Sha256Free>
    wc_Sha256Free(&shaCopy);
  b4:	a838      	add	r0, sp, #224	; 0xe0
  b6:	f7ff fffe 	bl	0 <wc_Sha256Free>
    return ret;
  ba:	e7d2      	b.n	62 <sha256_test+0x62>
        ret = wc_Sha256GetHash(&sha, hashcopy);
  bc:	a908      	add	r1, sp, #32
  be:	a81c      	add	r0, sp, #112	; 0x70
  c0:	f7ff fffe 	bl	0 <wc_Sha256GetHash>
        if (ret != 0)
  c4:	b130      	cbz	r0, d4 <sha256_test+0xd4>
            ERROR_OUT(WC_TEST_RET_ENC_I(i), exit);
  c6:	4c41      	ldr	r4, [pc, #260]	; (1cc <sha256_test+0x1cc>)
  c8:	4374      	muls	r4, r6
  ca:	f104 4420 	add.w	r4, r4, #2684354560	; 0xa0000000
  ce:	f6a4 4449 	subw	r4, r4, #3145	; 0xc49
  d2:	e7ec      	b.n	ae <sha256_test+0xae>
        ret = wc_Sha256Copy(&sha, &shaCopy);
  d4:	a938      	add	r1, sp, #224	; 0xe0
  d6:	a81c      	add	r0, sp, #112	; 0x70
  d8:	f7ff fffe 	bl	0 <wc_Sha256Copy>
        if (ret != 0)
  dc:	b130      	cbz	r0, ec <sha256_test+0xec>
            ERROR_OUT(WC_TEST_RET_ENC_I(i), exit);
  de:	4c3b      	ldr	r4, [pc, #236]	; (1cc <sha256_test+0x1cc>)
  e0:	4374      	muls	r4, r6
  e2:	f104 4420 	add.w	r4, r4, #2684354560	; 0xa0000000
  e6:	f6a4 444c 	subw	r4, r4, #3148	; 0xc4c
  ea:	e7e0      	b.n	ae <sha256_test+0xae>
        ret = wc_Sha256Final(&sha, hash);
  ec:	4669      	mov	r1, sp
  ee:	a81c      	add	r0, sp, #112	; 0x70
  f0:	f7ff fffe 	bl	0 <wc_Sha256Final>
        if (ret != 0)
  f4:	b130      	cbz	r0, 104 <sha256_test+0x104>
            ERROR_OUT(WC_TEST_RET_ENC_I(i), exit);
  f6:	4c35      	ldr	r4, [pc, #212]	; (1cc <sha256_test+0x1cc>)
  f8:	4374      	muls	r4, r6
  fa:	f104 4420 	add.w	r4, r4, #2684354560	; 0xa0000000
  fe:	f6a4 444f 	subw	r4, r4, #3151	; 0xc4f
 102:	e7d4      	b.n	ae <sha256_test+0xae>
        wc_Sha256Free(&shaCopy);
 104:	a838      	add	r0, sp, #224	; 0xe0
 106:	f7ff fffe 	bl	0 <wc_Sha256Free>
        if (XMEMCMP(hash, test_sha[i].output, WC_SHA256_DIGEST_SIZE) != 0)
 10a:	6869      	ldr	r1, [r5, #4]
 10c:	2220      	movs	r2, #32
 10e:	4668      	mov	r0, sp
 110:	f7ff fffe 	bl	0 <memcmp>
 114:	b130      	cbz	r0, 124 <sha256_test+0x124>
            ERROR_OUT(WC_TEST_RET_ENC_I(i), exit);
 116:	4c2d      	ldr	r4, [pc, #180]	; (1cc <sha256_test+0x1cc>)
 118:	4374      	muls	r4, r6
 11a:	f104 4420 	add.w	r4, r4, #2684354560	; 0xa0000000
 11e:	f6a4 4453 	subw	r4, r4, #3155	; 0xc53
 122:	e7c4      	b.n	ae <sha256_test+0xae>
        if (XMEMCMP(hash, hashcopy, WC_SHA256_DIGEST_SIZE) != 0)
 124:	2220      	movs	r2, #32
 126:	eb0d 0102 	add.w	r1, sp, r2
 12a:	4668      	mov	r0, sp
 12c:	f7ff fffe 	bl	0 <memcmp>
 130:	b130      	cbz	r0, 140 <sha256_test+0x140>
            ERROR_OUT(WC_TEST_RET_ENC_I(i), exit);
 132:	4c26      	ldr	r4, [pc, #152]	; (1cc <sha256_test+0x1cc>)
 134:	4374      	muls	r4, r6
 136:	f104 4420 	add.w	r4, r4, #2684354560	; 0xa0000000
 13a:	f6a4 4455 	subw	r4, r4, #3157	; 0xc55
 13e:	e7b6      	b.n	ae <sha256_test+0xae>
    for (i = 0; i < times; ++i) {
 140:	3601      	adds	r6, #1
 142:	2e03      	cmp	r6, #3
 144:	f105 0510 	add.w	r5, r5, #16
 148:	d1a5      	bne.n	96 <sha256_test+0x96>
 14a:	ab54      	add	r3, sp, #336	; 0x150
 14c:	461d      	mov	r5, r3
        large_input[i] = (byte)(i & 0xFF);
 14e:	f803 0b01 	strb.w	r0, [r3], #1
    for (i = 0; i < (int)sizeof(large_input); i++) {
 152:	3001      	adds	r0, #1
 154:	f5b0 6f80 	cmp.w	r0, #1024	; 0x400
 158:	d1f9      	bne.n	14e <sha256_test+0x14e>
 15a:	2464      	movs	r4, #100	; 0x64
        ret = wc_Sha256Update(&sha, (byte*)large_input,
 15c:	f44f 6280 	mov.w	r2, #1024	; 0x400
 160:	4629      	mov	r1, r5
 162:	a81c      	add	r0, sp, #112	; 0x70
 164:	f7ff fffe 	bl	0 <wc_Sha256Update>
        if (ret != 0)
 168:	b148      	cbz	r0, 17e <sha256_test+0x17e>
            ERROR_OUT(WC_TEST_RET_ENC_EC(ret), exit);
 16a:	4244      	negs	r4, r0
 16c:	4817      	ldr	r0, [pc, #92]	; (1cc <sha256_test+0x1cc>)
 16e:	f3c4 040a 	ubfx	r4, r4, #0, #11
 172:	4344      	muls	r4, r0
 174:	f104 4460 	add.w	r4, r4, #3758096384	; 0xe0000000
 178:	f6a4 4473 	subw	r4, r4, #3187	; 0xc73
 17c:	e797      	b.n	ae <sha256_test+0xae>
    for (i = 0; i < times; ++i) {
 17e:	3c01      	subs	r4, #1
 180:	d1ec      	bne.n	15c <sha256_test+0x15c>
    ret = wc_Sha256Final(&sha, hash);
 182:	4669      	mov	r1, sp
 184:	a81c      	add	r0, sp, #112	; 0x70
 186:	f7ff fffe 	bl	0 <wc_Sha256Final>
    if (ret != 0)
 18a:	b148      	cbz	r0, 1a0 <sha256_test+0x1a0>
        ERROR_OUT(WC_TEST_RET_ENC_EC(ret), exit);
 18c:	4244      	negs	r4, r0
 18e:	480f      	ldr	r0, [pc, #60]	; (1cc <sha256_test+0x1cc>)
 190:	f3c4 040a 	ubfx	r4, r4, #0, #11
 194:	4344      	muls	r4, r0
 196:	f104 4460 	add.w	r4, r4, #3758096384	; 0xe0000000
 19a:	f6a4 4477 	subw	r4, r4, #3191	; 0xc77
 19e:	e786      	b.n	ae <sha256_test+0xae>
    if (XMEMCMP(hash, large_digest, WC_SHA256_DIGEST_SIZE) != 0)
 1a0:	490b      	ldr	r1, [pc, #44]	; (1d0 <sha256_test+0x1d0>)
 1a2:	2220      	movs	r2, #32
 1a4:	4668      	mov	r0, sp
 1a6:	f7ff fffe 	bl	0 <memcmp>
        ERROR_OUT(WC_TEST_RET_ENC_NC, exit);
 1aa:	4b0a      	ldr	r3, [pc, #40]	; (1d4 <sha256_test+0x1d4>)
 1ac:	1e04      	subs	r4, r0, #0
 1ae:	bf18      	it	ne
 1b0:	461c      	movne	r4, r3
 1b2:	e77c      	b.n	ae <sha256_test+0xae>
 1b4:	00000000 	.word	0x00000000
 1b8:	00000001 	.word	0x00000001
 1bc:	00000005 	.word	0x00000005
 1c0:	00000000 	.word	0x00000000
 1c4:	00000055 	.word	0x00000055
 1c8:	00000021 	.word	0x00000021
 1cc:	fffe7960 	.word	0xfffe7960
 1d0:	00000042 	.word	0x00000042
 1d4:	fffff387 	.word	0xfffff387

Disassembly of section .text.sha512_test:

00000000 <sha512_test>:
{
   0:	e92d 41f0 	stmdb	sp!, {r4, r5, r6, r7, r8, lr}
    a.inLen  = XSTRLEN(a.input);
   4:	f8df 81dc 	ldr.w	r8, [pc, #476]	; 1e4 <sha512_test+0x1e4>
    b.inLen  = XSTRLEN(b.input);
   8:	4f77      	ldr	r7, [pc, #476]	; (1e8 <sha512_test+0x1e8>)
    c.inLen  = XSTRLEN(c.input);
   a:	4e78      	ldr	r6, [pc, #480]	; (1ec <sha512_test+0x1ec>)
{
   c:	f5ad 6dce 	sub.w	sp, sp, #1648	; 0x670
    a.inLen  = XSTRLEN(a.input);
  10:	4640      	mov	r0, r8
  12:	f7ff fffe 	bl	0 <strlen>
  16:	4605      	mov	r5, r0
    b.inLen  = XSTRLEN(b.input);
  18:	4638      	mov	r0, r7
  1a:	f7ff fffe 	bl	0 <strlen>
  1e:	4604      	mov	r4, r0
    c.inLen  = XSTRLEN(c.input);
  20:	4630      	mov	r0, r6
  22:	f7ff fffe 	bl	0 <strlen>
    test_sha[0] = a;
  26:	4b72      	ldr	r3, [pc, #456]	; (1f0 <sha512_test+0x1f0>)
  28:	f8cd 8000 	str.w	r8, [sp]
  2c:	e9cd 3501 	strd	r3, r5, [sp, #4]
    test_sha[1] = b;
  30:	4b70      	ldr	r3, [pc, #448]	; (1f4 <sha512_test+0x1f4>)
  32:	9704      	str	r7, [sp, #16]
  34:	e9cd 3405 	strd	r3, r4, [sp, #20]
    test_sha[2] = c;
  38:	4b6f      	ldr	r3, [pc, #444]	; (1f8 <sha512_test+0x1f8>)
  3a:	9608      	str	r6, [sp, #32]
  3c:	e9cd 3009 	strd	r3, r0, [sp, #36]	; 0x24
    ret = wc_InitSha512_ex(&sha, HEAP_HINT, devId);
  40:	2100      	movs	r1, #0
  42:	f06f 0201 	mvn.w	r2, #1
  46:	a82c      	add	r0, sp, #176	; 0xb0
  48:	f7ff fffe 	bl	0 <wc_InitSha512_ex>
    if (ret != 0)
  4c:	4601      	mov	r1, r0
  4e:	b168      	cbz	r0, 6c <sha512_test+0x6c>
        return WC_TEST_RET_ENC_EC(ret);
  50:	496a      	ldr	r1, [pc, #424]	; (1fc <sha512_test+0x1fc>)
  52:	4244      	negs	r4, r0
  54:	f3c4 040a 	ubfx	r4, r4, #0, #11
  58:	434c      	muls	r4, r1
  5a:	f104 4460 	add.w	r4, r4, #3758096384	; 0xe0000000
  5e:	f6a4 44b8 	subw	r4, r4, #3256	; 0xcb8
}
  62:	4620      	mov	r0, r4
  64:	f50d 6dce 	add.w	sp, sp, #1648	; 0x670
  68:	e8bd 81f0 	ldmia.w	sp!, {r4, r5, r6, r7, r8, pc}
    ret = wc_InitSha512_ex(&shaCopy, HEAP_HINT, devId);
  6c:	f06f 0201 	mvn.w	r2, #1
  70:	a864      	add	r0, sp, #400	; 0x190
  72:	f7ff fffe 	bl	0 <wc_InitSha512_ex>
    if (ret != 0) {
  76:	4606      	mov	r6, r0
  78:	b160      	cbz	r0, 94 <sha512_test+0x94>
        wc_Sha512Free(&sha);
  7a:	a82c      	add	r0, sp, #176	; 0xb0
  7c:	f7ff fffe 	bl	0 <wc_Sha512Free>
        return WC_TEST_RET_ENC_EC(ret);
  80:	4274      	negs	r4, r6
  82:	485e      	ldr	r0, [pc, #376]	; (1fc <sha512_test+0x1fc>)
  84:	f3c4 040a 	ubfx	r4, r4, #0, #11
  88:	4344      	muls	r4, r0
  8a:	f104 4460 	add.w	r4, r4, #3758096384	; 0xe0000000
  8e:	f6a4 44bc 	subw	r4, r4, #3260	; 0xcbc
  92:	e7e6      	b.n	62 <sha512_test+0x62>
  94:	466d      	mov	r5, sp
        ret = wc_Sha512Update(&sha, (byte*)test_sha[i].input,
  96:	68aa      	ldr	r2, [r5, #8]
  98:	6829      	ldr	r1, [r5, #0]
  9a:	a82c      	add	r0, sp, #176	; 0xb0
  9c:	f7ff fffe 	bl	0 <wc_Sha512Update>
        if (ret != 0)
  a0:	b160      	cbz	r0, bc <sha512_test+0xbc>
            ERROR_OUT(WC_TEST_RET_ENC_I(i), exit);
  a2:	4c56      	ldr	r4, [pc, #344]	; (1fc <sha512_test+0x1fc>)
  a4:	4374      	muls	r4, r6
  a6:	f104 4420 	add.w	r4, r4, #2684354560	; 0xa0000000
  aa:	f6a4 44c3 	subw	r4, r4, #3267	; 0xcc3
    wc_Sha512Free(&sha);
  ae:	a82c      	add	r0, sp, #176	; 0xb0
  b0:	f7ff fffe 	bl	0 <wc_Sha512Free>
    wc_Sha512Free(&shaCopy);
  b4:	a864      	add	r0, sp, #400	; 0x190
  b6:	f7ff fffe 	bl	0 <wc_Sha512Free>
    return ret;
  ba:	e7d2      	b.n	62 <sha512_test+0x62>
        ret = wc_Sha512GetHash(&sha, hashcopy);
  bc:	a91c      	add	r1, sp, #112	; 0x70
  be:	a82c      	add	r0, sp, #176	; 0xb0
  c0:	f7ff fffe 	bl	0 <wc_Sha512GetHash>
        if (ret != 0)
  c4:	b130      	cbz	r0, d4 <sha512_test+0xd4>
            ERROR_OUT(WC_TEST_RET_ENC_I(i), exit);
  c6:	4c4d      	ldr	r4, [pc, #308]	; (1fc <sha512_test+0x1fc>)
  c8:	4374      	muls	r4, r6
  ca:	f104 4420 	add.w	r4, r4, #2684354560	; 0xa0000000
  ce:	f6a4 44c6 	subw	r4, r4, #3270	; 0xcc6
  d2:	e7ec      	b.n	ae <sha512_test+0xae>
        ret = wc_Sha512Copy(&sha, &shaCopy);
  d4:	a964      	add	r1, sp, #400	; 0x190
  d6:	a82c      	add	r0, sp, #176	; 0xb0
  d8:	f7ff fffe 	bl	0 <wc_Sha512Copy>
        if (ret != 0)
  dc:	b130      	cbz	r0, ec <sha512_test+0xec>
            ERROR_OUT(WC_TEST_RET_ENC_I(i), exit);
  de:	4c47      	ldr	r4, [pc, #284]	; (1fc <sha512_test+0x1fc>)
  e0:	4374      	muls	r4, r6
  e2:	f104 4420 	add.w	r4, r4, #2684354560	; 0xa0000000
  e6:	f6a4 44c9 	subw	r4, r4, #3273	; 0xcc9
  ea:	e7e0      	b.n	ae <sha512_test+0xae>
        ret = wc_Sha512Final(&sha, hash);
  ec:	a90c      	add	r1, sp, #48	; 0x30
  ee:	a82c      	add	r0, sp, #176	; 0xb0
  f0:	f7ff fffe 	bl	0 <wc_Sha512Final>
        if (ret != 0)
  f4:	b130      	cbz	r0, 104 <sha512_test+0x104>
            ERROR_OUT(WC_TEST_RET_ENC_I(i), exit);
  f6:	4c41      	ldr	r4, [pc, #260]	; (1fc <sha512_test+0x1fc>)
  f8:	4374      	muls	r4, r6
  fa:	f104 4420 	add.w	r4, r4, #2684354560	; 0xa0000000
  fe:	f6a4 44cc 	subw	r4, r4, #3276	; 0xccc
 102:	e7d4      	b.n	ae <sha512_test+0xae>
        wc_Sha512Free(&shaCopy);
 104:	a864      	add	r0, sp, #400	; 0x190
 106:	f7ff fffe 	bl	0 <wc_Sha512Free>
        if (XMEMCMP(hash, test_sha[i].output, WC_SHA512_DIGEST_SIZE) != 0)
 10a:	6869      	ldr	r1, [r5, #4]
 10c:	2240      	movs	r2, #64	; 0x40
 10e:	a80c      	add	r0, sp, #48	; 0x30
 110:	f7ff fffe 	bl	0 <memcmp>
 114:	b130      	cbz	r0, 124 <sha512_test+0x124>
            ERROR_OUT(WC_TEST_RET_ENC_I(i), exit);
 116:	4c39      	ldr	r4, [pc, #228]	; (1fc <sha512_test+0x1fc>)
 118:	4374      	muls	r4, r6
 11a:	f104 4420 	add.w	r4, r4, #2684354560	; 0xa0000000
 11e:	f5a4 644d 	sub.w	r4, r4, #3280	; 0xcd0
 122:	e7c4      	b.n	ae <sha512_test+0xae>
        if (XMEMCMP(hash, hashcopy, WC_SHA512_DIGEST_SIZE) != 0)
 124:	2240      	movs	r2, #64	; 0x40
 126:	a91c      	add	r1, sp, #112	; 0x70
 128:	a80c      	add	r0, sp, #48	; 0x30
 12a:	f7ff fffe 	bl	0 <memcmp>
 12e:	b130      	cbz	r0, 13e <sha512_test+0x13e>
            ERROR_OUT(WC_TEST_RET_ENC_I(i), exit);
 130:	4c32      	ldr	r4, [pc, #200]	; (1fc <sha512_test+0x1fc>)
 132:	4374      	muls	r4, r6
 134:	f104 4420 	add.w	r4, r4, #2684354560	; 0xa0000000
 138:	f6a4 44d2 	subw	r4, r4, #3282	; 0xcd2
 13c:	e7b7      	b.n	ae <sha512_test+0xae>
    for (i = 0; i < times; ++i) {
 13e:	3601      	adds	r6, #1
 140:	2e03      	cmp	r6, #3
 142:	f105 0510 	add.w	r5, r5, #16
 146:	d1a6      	bne.n	96 <sha512_test+0x96>
 148:	ab9c      	add	r3, sp, #624	; 0x270
        large_input[i] = (byte)(i & 0xFF);
 14a:	f803 0b01 	strb.w	r0, [r3], #1
    for (i = 0; i < (int)sizeof(large_input); i++) {
 14e:	3001      	adds	r0, #1
 150:	f5b0 6f80 	cmp.w	r0, #1024	; 0x400
 154:	d1f9      	bne.n	14a <sha512_test+0x14a>
 156:	2464      	movs	r4, #100	; 0x64
        ret = wc_Sha512Update(&sha, (byte*)large_input,
 158:	f44f 6280 	mov.w	r2, #1024	; 0x400
 15c:	a99c      	add	r1, sp, #624	; 0x270
 15e:	a82c      	add	r0, sp, #176	; 0xb0
 160:	f7ff fffe 	bl	0 <wc_Sha512Update>
        if (ret != 0)
 164:	b148      	cbz	r0, 17a <sha512_test+0x17a>
            ERROR_OUT(WC_TEST_RET_ENC_EC(ret), exit);
 166:	4244      	negs	r4, r0
 168:	4824      	ldr	r0, [pc, #144]	; (1fc <sha512_test+0x1fc>)
 16a:	f3c4 040a 	ubfx	r4, r4, #0, #11
 16e:	4344      	muls	r4, r0
 170:	f104 4460 	add.w	r4, r4, #3758096384	; 0xe0000000
 174:	f6a4 44f2 	subw	r4, r4, #3314	; 0xcf2
 178:	e799      	b.n	ae <sha512_test+0xae>
    for (i = 0; i < times; ++i) {
 17a:	3c01      	subs	r4, #1
 17c:	d1ec      	bne.n	158 <sha512_test+0x158>
    ret = wc_Sha512Final(&sha, hash);
 17e:	a90c      	add	r1, sp, #48	; 0x30
 180:	a82c      	add	r0, sp, #176	; 0xb0
 182:	f7ff fffe 	bl	0 <wc_Sha512Final>
    if (ret != 0)
 186:	b148      	cbz	r0, 19c <sha512_test+0x19c>
        ERROR_OUT(WC_TEST_RET_ENC_EC(ret), exit);
 188:	4244      	negs	r4, r0
 18a:	481c      	ldr	r0, [pc, #112]	; (1fc <sha512_test+0x1fc>)
 18c:	f3c4 040a 	ubfx	r4, r4, #0, #11
 190:	4344      	muls	r4, r0
 192:	f104 4460 	add.w	r4, r4, #3758096384	; 0xe0000000
 196:	f6a4 44f6 	subw	r4, r4, #3318	; 0xcf6
 19a:	e788      	b.n	ae <sha512_test+0xae>
    if (XMEMCMP(hash, large_digest, WC_SHA512_DIGEST_SIZE) != 0)
 19c:	4918      	ldr	r1, [pc, #96]	; (200 <sha512_test+0x200>)
 19e:	2240      	movs	r2, #64	; 0x40
 1a0:	a80c      	add	r0, sp, #48	; 0x30
 1a2:	f7ff fffe 	bl	0 <memcmp>
 1a6:	b9d8      	cbnz	r0, 1e0 <sha512_test+0x1e0>
    for (i = 1; i < 16; i++) {
 1a8:	2501      	movs	r5, #1
        ret = wc_Sha512Update(&sha, (byte*)large_input + i,
 1aa:	ab9c      	add	r3, sp, #624	; 0x270
 1ac:	f5c5 6280 	rsb	r2, r5, #1024	; 0x400
 1b0:	1959      	adds	r1, r3, r5
 1b2:	a82c      	add	r0, sp, #176	; 0xb0
 1b4:	f7ff fffe 	bl	0 <wc_Sha512Update>
        if (ret != 0)
 1b8:	b148      	cbz	r0, 1ce <sha512_test+0x1ce>
            ERROR_OUT(WC_TEST_RET_ENC_EC(ret), exit);
 1ba:	4244      	negs	r4, r0
 1bc:	480f      	ldr	r0, [pc, #60]	; (1fc <sha512_test+0x1fc>)
 1be:	f3c4 040a 	ubfx	r4, r4, #0, #11
 1c2:	4344      	muls	r4, r0
 1c4:	f104 4460 	add.w	r4, r4, #3758096384	; 0xe0000000
 1c8:	f5a4 6450 	sub.w	r4, r4, #3328	; 0xd00
 1cc:	e76f      	b.n	ae <sha512_test+0xae>
        ret = wc_Sha512Final(&sha, hash);
 1ce:	a90c      	add	r1, sp, #48	; 0x30
 1d0:	a82c      	add	r0, sp, #176	; 0xb0
 1d2:	f7ff fffe 	bl	0 <wc_Sha512Final>
    for (i = 1; i < 16; i++) {
 1d6:	3501      	adds	r5, #1
 1d8:	2d10      	cmp	r5, #16
        ret = wc_Sha512Final(&sha, hash);
 1da:	4604      	mov	r4, r0
    for (i = 1; i < 16; i++) {
 1dc:	d1e5      	bne.n	1aa <sha512_test+0x1aa>
 1de:	e766      	b.n	ae <sha512_test+0xae>
        ERROR_OUT(WC_TEST_RET_ENC_NC, exit);
 1e0:	4c08      	ldr	r4, [pc, #32]	; (204 <sha512_test+0x204>)
 1e2:	e764      	b.n	ae <sha512_test+0xae>
 1e4:	00000000 	.word	0x00000000
 1e8:	00000001 	.word	0x00000001
 1ec:	00000000 	.word	0x00000000
 1f0:	00000071 	.word	0x00000071
 1f4:	000000b2 	.word	0x000000b2
 1f8:	00000076 	.word	0x00000076
 1fc:	fffe7960 	.word	0xfffe7960
 200:	000000f3 	.word	0x000000f3
 204:	fffff308 	.word	0xfffff308

Disassembly of section .text.sha512_224_test:

00000000 <sha512_224_test>:
{
   0:	e92d 41f0 	stmdb	sp!, {r4, r5, r6, r7, r8, lr}
    a.inLen  = XSTRLEN(a.input);
   4:	f8df 81e0 	ldr.w	r8, [pc, #480]	; 1e8 <sha512_224_test+0x1e8>
    b.inLen  = XSTRLEN(b.input);
   8:	4f78      	ldr	r7, [pc, #480]	; (1ec <sha512_224_test+0x1ec>)
    c.inLen  = XSTRLEN(c.input);
   a:	4e79      	ldr	r6, [pc, #484]	; (1f0 <sha512_224_test+0x1f0>)
{
   c:	f5ad 6dc5 	sub.w	sp, sp, #1576	; 0x628
    a.inLen  = XSTRLEN(a.input);
  10:	4640      	mov	r0, r8
  12:	f7ff fffe 	bl	0 <strlen>
  16:	4605      	mov	r5, r0
    b.inLen  = XSTRLEN(b.input);
  18:	4638      	mov	r0, r7
  1a:	f7ff fffe 	bl	0 <strlen>
  1e:	4604      	mov	r4, r0
    c.inLen  = XSTRLEN(c.input);
  20:	4630      	mov	r0, r6
  22:	f7ff fffe 	bl	0 <strlen>
    test_sha[0] = a;
  26:	4b73      	ldr	r3, [pc, #460]	; (1f4 <sha512_224_test+0x1f4>)
  28:	f8cd 8038 	str.w	r8, [sp, #56]	; 0x38
  2c:	e9cd 350f 	strd	r3, r5, [sp, #60]	; 0x3c
    test_sha[1] = b;
  30:	4b71      	ldr	r3, [pc, #452]	; (1f8 <sha512_224_test+0x1f8>)
  32:	9712      	str	r7, [sp, #72]	; 0x48
  34:	e9cd 3413 	strd	r3, r4, [sp, #76]	; 0x4c
    test_sha[2] = c;
  38:	4b70      	ldr	r3, [pc, #448]	; (1fc <sha512_224_test+0x1fc>)
  3a:	9616      	str	r6, [sp, #88]	; 0x58
  3c:	e9cd 3017 	strd	r3, r0, [sp, #92]	; 0x5c
    ret = wc_InitSha512_224_ex(&sha, HEAP_HINT, devId);
  40:	2100      	movs	r1, #0
  42:	f06f 0201 	mvn.w	r2, #1
  46:	a81a      	add	r0, sp, #104	; 0x68
  48:	f7ff fffe 	bl	0 <wc_InitSha512_224_ex>
    if (ret != 0)
  4c:	4601      	mov	r1, r0
  4e:	b168      	cbz	r0, 6c <sha512_224_test+0x6c>
        return WC_TEST_RET_ENC_EC(ret);
  50:	496b      	ldr	r1, [pc, #428]	; (200 <sha512_224_test+0x200>)
  52:	4244      	negs	r4, r0
  54:	f3c4 040a 	ubfx	r4, r4, #0, #11
  58:	434c      	muls	r4, r1
  5a:	f104 4460 	add.w	r4, r4, #3758096384	; 0xe0000000
  5e:	f6a4 544b 	subw	r4, r4, #3403	; 0xd4b
} /* sha512_224_test */
  62:	4620      	mov	r0, r4
  64:	f50d 6dc5 	add.w	sp, sp, #1576	; 0x628
  68:	e8bd 81f0 	ldmia.w	sp!, {r4, r5, r6, r7, r8, pc}
    ret = wc_InitSha512_224_ex(&shaCopy, HEAP_HINT, devId);
  6c:	f06f 0201 	mvn.w	r2, #1
  70:	a852      	add	r0, sp, #328	; 0x148
  72:	f7ff fffe 	bl	0 <wc_InitSha512_224_ex>
    if (ret != 0) {
  76:	4606      	mov	r6, r0
  78:	b160      	cbz	r0, 94 <sha512_224_test+0x94>
        wc_Sha512_224Free(&sha);
  7a:	a81a      	add	r0, sp, #104	; 0x68
  7c:	f7ff fffe 	bl	0 <wc_Sha512_224Free>
        return WC_TEST_RET_ENC_EC(ret);
  80:	4274      	negs	r4, r6
  82:	485f      	ldr	r0, [pc, #380]	; (200 <sha512_224_test+0x200>)
  84:	f3c4 040a 	ubfx	r4, r4, #0, #11
  88:	4344      	muls	r4, r0
  8a:	f104 4460 	add.w	r4, r4, #3758096384	; 0xe0000000
  8e:	f6a4 544f 	subw	r4, r4, #3407	; 0xd4f
  92:	e7e6      	b.n	62 <sha512_224_test+0x62>
  94:	ad0e      	add	r5, sp, #56	; 0x38
        ret = wc_Sha512_224Update(&sha, (byte*)test_sha[i].input,
  96:	68aa      	ldr	r2, [r5, #8]
  98:	6829      	ldr	r1, [r5, #0]
  9a:	a81a      	add	r0, sp, #104	; 0x68
  9c:	f7ff fffe 	bl	0 <wc_Sha512_224Update>
        if (ret != 0)
  a0:	b160      	cbz	r0, bc <sha512_224_test+0xbc>
            ERROR_OUT(WC_TEST_RET_ENC_I(i), exit);
  a2:	4c57      	ldr	r4, [pc, #348]	; (200 <sha512_224_test+0x200>)
  a4:	4374      	muls	r4, r6
  a6:	f104 4420 	add.w	r4, r4, #2684354560	; 0xa0000000
  aa:	f6a4 5456 	subw	r4, r4, #3414	; 0xd56
    wc_Sha512_224Free(&sha);
  ae:	a81a      	add	r0, sp, #104	; 0x68
  b0:	f7ff fffe 	bl	0 <wc_Sha512_224Free>
    wc_Sha512_224Free(&shaCopy);
  b4:	a852      	add	r0, sp, #328	; 0x148
  b6:	f7ff fffe 	bl	0 <wc_Sha512_224Free>
    return ret;
  ba:	e7d2      	b.n	62 <sha512_224_test+0x62>
        ret = wc_Sha512_224GetHash(&sha, hashcopy);
  bc:	a907      	add	r1, sp, #28
  be:	a81a      	add	r0, sp, #104	; 0x68
  c0:	f7ff fffe 	bl	0 <wc_Sha512_224GetHash>
        if (ret != 0)
  c4:	b130      	cbz	r0, d4 <sha512_224_test+0xd4>
            ERROR_OUT(WC_TEST_RET_ENC_I(i), exit);
  c6:	4c4e      	ldr	r4, [pc, #312]	; (200 <sha512_224_test+0x200>)
  c8:	4374      	muls	r4, r6
  ca:	f104 4420 	add.w	r4, r4, #2684354560	; 0xa0000000
  ce:	f6a4 5459 	subw	r4, r4, #3417	; 0xd59
  d2:	e7ec      	b.n	ae <sha512_224_test+0xae>
        ret = wc_Sha512_224Copy(&sha, &shaCopy);
  d4:	a952      	add	r1, sp, #328	; 0x148
  d6:	a81a      	add	r0, sp, #104	; 0x68
  d8:	f7ff fffe 	bl	0 <wc_Sha512_224Copy>
        if (ret != 0)
  dc:	b130      	cbz	r0, ec <sha512_224_test+0xec>
            ERROR_OUT(WC_TEST_RET_ENC_I(i), exit);
  de:	4c48      	ldr	r4, [pc, #288]	; (200 <sha512_224_test+0x200>)
  e0:	4374      	muls	r4, r6
  e2:	f104 4420 	add.w	r4, r4, #2684354560	; 0xa0000000
  e6:	f6a4 545c 	subw	r4, r4, #3420	; 0xd5c
  ea:	e7e0      	b.n	ae <sha512_224_test+0xae>
        ret = wc_Sha512_224Final(&sha, hash);
  ec:	4669      	mov	r1, sp
  ee:	a81a      	add	r0, sp, #104	; 0x68
  f0:	f7ff fffe 	bl	0 <wc_Sha512_224Final>
        if (ret != 0)
  f4:	b130      	cbz	r0, 104 <sha512_224_test+0x104>
            ERROR_OUT(WC_TEST_RET_ENC_I(i), exit);
  f6:	4c42      	ldr	r4, [pc, #264]	; (200 <sha512_224_test+0x200>)
  f8:	4374      	muls	r4, r6
  fa:	f104 4420 	add.w	r4, r4, #2684354560	; 0xa0000000
  fe:	f6a4 545f 	subw	r4, r4, #3423	; 0xd5f
 102:	e7d4      	b.n	ae <sha512_224_test+0xae>
        wc_Sha512_224Free(&shaCopy);
 104:	a852      	add	r0, sp, #328	; 0x148
 106:	f7ff fffe 	bl	0 <wc_Sha512_224Free>
        if (XMEMCMP(hash, test_sha[i].output, WC_SHA512_224_DIGEST_SIZE) != 0)
 10a:	6869      	ldr	r1, [r5, #4]
 10c:	221c      	movs	r2, #28
 10e:	4668      	mov	r0, sp
 110:	f7ff fffe 	bl	0 <memcmp>
 114:	b130      	cbz	r0, 124 <sha512_224_test+0x124>
            ERROR_OUT(WC_TEST_RET_ENC_I(i), exit);
 116:	4c3a      	ldr	r4, [pc, #232]	; (200 <sha512_224_test+0x200>)
 118:	4374      	muls	r4, r6
 11a:	f104 4420 	add.w	r4, r4, #2684354560	; 0xa0000000
 11e:	f6a4 5463 	subw	r4, r4, #3427	; 0xd63
 122:	e7c4      	b.n	ae <sha512_224_test+0xae>
        if (XMEMCMP(hash, hashcopy, WC_SHA512_224_DIGEST_SIZE) != 0)
 124:	221c      	movs	r2, #28
 126:	eb0d 0102 	add.w	r1, sp, r2
 12a:	4668      	mov	r0, sp
 12c:	f7ff fffe 	bl	0 <memcmp>
 130:	b130      	cbz	r0, 140 <sha512_224_test+0x140>
            ERROR_OUT(WC_TEST_RET_ENC_I(i), exit);
 132:	4c33      	ldr	r4, [pc, #204]	; (200 <sha512_224_test+0x200>)
 134:	4374      	muls	r4, r6
 136:	f104 4420 	add.w	r4, r4, #2684354560	; 0xa0000000
 13a:	f6a4 5467 	subw	r4, r4, #3431	; 0xd67
 13e:	e7b6      	b.n	ae <sha512_224_test+0xae>
    for (i = 0; i < times; ++i) {
 140:	3601      	adds	r6, #1
 142:	2e03      	cmp	r6, #3
 144:	f105 0510 	add.w	r5, r5, #16
 148:	d1a5      	bne.n	96 <sha512_224_test+0x96>
 14a:	ab8a      	add	r3, sp, #552	; 0x228
        large_input[i] = (byte)(i & 0xFF);
 14c:	f803 0b01 	strb.w	r0, [r3], #1
    for (i = 0; i < (int)sizeof(large_input); i++) {
 150:	3001      	adds	r0, #1
 152:	f5b0 6f80 	cmp.w	r0, #1024	; 0x400
 156:	d1f9      	bne.n	14c <sha512_224_test+0x14c>
 158:	2464      	movs	r4, #100	; 0x64
        ret = wc_Sha512_224Update(&sha, (byte*)large_input,
 15a:	f44f 6280 	mov.w	r2, #1024	; 0x400
 15e:	a98a      	add	r1, sp, #552	; 0x228
 160:	a81a      	add	r0, sp, #104	; 0x68
 162:	f7ff fffe 	bl	0 <wc_Sha512_224Update>
        if (ret != 0)
 166:	b148      	cbz	r0, 17c <sha512_224_test+0x17c>
            ERROR_OUT(WC_TEST_RET_ENC_EC(ret), exit);
 168:	4244      	negs	r4, r0
 16a:	4825      	ldr	r0, [pc, #148]	; (200 <sha512_224_test+0x200>)
 16c:	f3c4 040a 	ubfx	r4, r4, #0, #11
 170:	4344      	muls	r4, r0
 172:	f104 4460 	add.w	r4, r4, #3758096384	; 0xe0000000
 176:	f6a4 5487 	subw	r4, r4, #3463	; 0xd87
 17a:	e798      	b.n	ae <sha512_224_test+0xae>
    for (i = 0; i < times; ++i) {
 17c:	3c01      	subs	r4, #1
 17e:	d1ec      	bne.n	15a <sha512_224_test+0x15a>
    ret = wc_Sha512_224Final(&sha, hash);
 180:	4669      	mov	r1, sp
 182:	a81a      	add	r0, sp, #104	; 0x68
 184:	f7ff fffe 	bl	0 <wc_Sha512_224Final>
    if (ret != 0)
 188:	b148      	cbz	r0, 19e <sha512_224_test+0x19e>
        ERROR_OUT(WC_TEST_RET_ENC_EC(ret), exit);
 18a:	4244      	negs	r4, r0
 18c:	481c      	ldr	r0, [pc, #112]	; (200 <sha512_224_test+0x200>)
 18e:	f3c4 040a 	ubfx	r4, r4, #0, #11
 192:	4344      	muls	r4, r0
 194:	f104 4460 	add.w	r4, r4, #3758096384	; 0xe0000000
 198:	f6a4 548b 	subw	r4, r4, #3467	; 0xd8b
 19c:	e787      	b.n	ae <sha512_224_test+0xae>
    if (XMEMCMP(hash, large_digest, WC_SHA512_224_DIGEST_SIZE) != 0)
 19e:	4919      	ldr	r1, [pc, #100]	; (204 <sha512_224_test+0x204>)
 1a0:	221c      	movs	r2, #28
 1a2:	4668      	mov	r0, sp
 1a4:	f7ff fffe 	bl	0 <memcmp>
 1a8:	b9d8      	cbnz	r0, 1e2 <sha512_224_test+0x1e2>
    for (i = 1; i < 16; i++) {
 1aa:	2501      	movs	r5, #1
        ret = wc_Sha512_224Update(&sha, (byte*)large_input + i,
 1ac:	ab8a      	add	r3, sp, #552	; 0x228
 1ae:	f5c5 6280 	rsb	r2, r5, #1024	; 0x400
 1b2:	1959      	adds	r1, r3, r5
 1b4:	a81a      	add	r0, sp, #104	; 0x68
 1b6:	f7ff fffe 	bl	0 <wc_Sha512_224Update>
        if (ret != 0)
 1ba:	b148      	cbz	r0, 1d0 <sha512_224_test+0x1d0>
            ERROR_OUT(WC_TEST_RET_ENC_EC(ret), exit);
 1bc:	4244      	negs	r4, r0
 1be:	4810      	ldr	r0, [pc, #64]	; (200 <sha512_224_test+0x200>)
 1c0:	f3c4 040a 	ubfx	r4, r4, #0, #11
 1c4:	4344      	muls	r4, r0
 1c6:	f104 4460 	add.w	r4, r4, #3758096384	; 0xe0000000
 1ca:	f6a4 5495 	subw	r4, r4, #3477	; 0xd95
 1ce:	e76e      	b.n	ae <sha512_224_test+0xae>
        ret = wc_Sha512_224Final(&sha, hash);
 1d0:	4669      	mov	r1, sp
 1d2:	a81a      	add	r0, sp, #104	; 0x68
 1d4:	f7ff fffe 	bl	0 <wc_Sha512_224Final>
    for (i = 1; i < 16; i++) {
 1d8:	3501      	adds	r5, #1
 1da:	2d10      	cmp	r5, #16
        ret = wc_Sha512_224Final(&sha, hash);
 1dc:	4604      	mov	r4, r0
    for (i = 1; i < 16; i++) {
 1de:	d1e5      	bne.n	1ac <sha512_224_test+0x1ac>
 1e0:	e765      	b.n	ae <sha512_224_test+0xae>
        ERROR_OUT(WC_TEST_RET_ENC_NC, exit);
 1e2:	4c09      	ldr	r4, [pc, #36]	; (208 <sha512_224_test+0x208>)
 1e4:	e763      	b.n	ae <sha512_224_test+0xae>
 1e6:	bf00      	nop
 1e8:	00000000 	.word	0x00000000
 1ec:	00000001 	.word	0x00000001
	...
 1f8:	0000001d 	.word	0x0000001d
 1fc:	0000003a 	.word	0x0000003a
 200:	fffe7960 	.word	0xfffe7960
 204:	00000057 	.word	0x00000057
 208:	fffff273 	.word	0xfffff273

Disassembly of section .text.sha512_256_test:

00000000 <sha512_256_test>:
{
   0:	e92d 41f0 	stmdb	sp!, {r4, r5, r6, r7, r8, lr}
    a.inLen  = XSTRLEN(a.input);
   4:	f8df 81e0 	ldr.w	r8, [pc, #480]	; 1e8 <sha512_256_test+0x1e8>
    b.inLen  = XSTRLEN(b.input);
   8:	4f78      	ldr	r7, [pc, #480]	; (1ec <sha512_256_test+0x1ec>)
    c.inLen  = XSTRLEN(c.input);
   a:	4e79      	ldr	r6, [pc, #484]	; (1f0 <sha512_256_test+0x1f0>)
{
   c:	f5ad 6dc6 	sub.w	sp, sp, #1584	; 0x630
    a.inLen  = XSTRLEN(a.input);
  10:	4640      	mov	r0, r8
  12:	f7ff fffe 	bl	0 <strlen>
  16:	4605      	mov	r5, r0
    b.inLen  = XSTRLEN(b.input);
  18:	4638      	mov	r0, r7
  1a:	f7ff fffe 	bl	0 <strlen>
  1e:	4604      	mov	r4, r0
    c.inLen  = XSTRLEN(c.input);
  20:	4630      	mov	r0, r6
  22:	f7ff fffe 	bl	0 <strlen>
    test_sha[0] = a;
  26:	4b73      	ldr	r3, [pc, #460]	; (1f4 <sha512_256_test+0x1f4>)
  28:	f8cd 8040 	str.w	r8, [sp, #64]	; 0x40
  2c:	e9cd 3511 	strd	r3, r5, [sp, #68]	; 0x44
    test_sha[1] = b;
  30:	4b71      	ldr	r3, [pc, #452]	; (1f8 <sha512_256_test+0x1f8>)
  32:	9714      	str	r7, [sp, #80]	; 0x50
  34:	e9cd 3415 	strd	r3, r4, [sp, #84]	; 0x54
    test_sha[2] = c;
  38:	4b70      	ldr	r3, [pc, #448]	; (1fc <sha512_256_test+0x1fc>)
  3a:	9618      	str	r6, [sp, #96]	; 0x60
  3c:	e9cd 3019 	strd	r3, r0, [sp, #100]	; 0x64
    ret = wc_InitSha512_256_ex(&sha, HEAP_HINT, devId);
  40:	2100      	movs	r1, #0
  42:	f06f 0201 	mvn.w	r2, #1
  46:	a81c      	add	r0, sp, #112	; 0x70
  48:	f7ff fffe 	bl	0 <wc_InitSha512_256_ex>
    if (ret != 0)
  4c:	4601      	mov	r1, r0
  4e:	b168      	cbz	r0, 6c <sha512_256_test+0x6c>
        return WC_TEST_RET_ENC_EC(ret);
  50:	496b      	ldr	r1, [pc, #428]	; (200 <sha512_256_test+0x200>)
  52:	4244      	negs	r4, r0
  54:	f3c4 040a 	ubfx	r4, r4, #0, #11
  58:	434c      	muls	r4, r1
  5a:	f104 4460 	add.w	r4, r4, #3758096384	; 0xe0000000
  5e:	f6a4 54e3 	subw	r4, r4, #3555	; 0xde3
} /* sha512_256_test */
  62:	4620      	mov	r0, r4
  64:	f50d 6dc6 	add.w	sp, sp, #1584	; 0x630
  68:	e8bd 81f0 	ldmia.w	sp!, {r4, r5, r6, r7, r8, pc}
    ret = wc_InitSha512_256_ex(&shaCopy, HEAP_HINT, devId);
  6c:	f06f 0201 	mvn.w	r2, #1
  70:	a854      	add	r0, sp, #336	; 0x150
  72:	f7ff fffe 	bl	0 <wc_InitSha512_256_ex>
    if (ret != 0) {
  76:	4606      	mov	r6, r0
  78:	b160      	cbz	r0, 94 <sha512_256_test+0x94>
        wc_Sha512_256Free(&sha);
  7a:	a81c      	add	r0, sp, #112	; 0x70
  7c:	f7ff fffe 	bl	0 <wc_Sha512_256Free>
        return WC_TEST_RET_ENC_EC(ret);
  80:	4274      	negs	r4, r6
  82:	485f      	ldr	r0, [pc, #380]	; (200 <sha512_256_test+0x200>)
  84:	f3c4 040a 	ubfx	r4, r4, #0, #11
  88:	4344      	muls	r4, r0
  8a:	f104 4460 	add.w	r4, r4, #3758096384	; 0xe0000000
  8e:	f6a4 54e7 	subw	r4, r4, #3559	; 0xde7
  92:	e7e6      	b.n	62 <sha512_256_test+0x62>
  94:	ad10      	add	r5, sp, #64	; 0x40
        ret = wc_Sha512_256Update(&sha, (byte*)test_sha[i].input,
  96:	68aa      	ldr	r2, [r5, #8]
  98:	6829      	ldr	r1, [r5, #0]
  9a:	a81c      	add	r0, sp, #112	; 0x70
  9c:	f7ff fffe 	bl	0 <wc_Sha512_256Update>
        if (ret != 0)
  a0:	b160      	cbz	r0, bc <sha512_256_test+0xbc>
            ERROR_OUT(WC_TEST_RET_ENC_I(i), exit);
  a2:	4c57      	ldr	r4, [pc, #348]	; (200 <sha512_256_test+0x200>)
  a4:	4374      	muls	r4, r6
  a6:	f104 4420 	add.w	r4, r4, #2684354560	; 0xa0000000
  aa:	f6a4 54ee 	subw	r4, r4, #3566	; 0xdee
    wc_Sha512_256Free(&sha);
  ae:	a81c      	add	r0, sp, #112	; 0x70
  b0:	f7ff fffe 	bl	0 <wc_Sha512_256Free>
    wc_Sha512_256Free(&shaCopy);
  b4:	a854      	add	r0, sp, #336	; 0x150
  b6:	f7ff fffe 	bl	0 <wc_Sha512_256Free>
    return ret;
  ba:	e7d2      	b.n	62 <sha512_256_test+0x62>
        ret = wc_Sha512_256GetHash(&sha, hashcopy);
  bc:	a908      	add	r1, sp, #32
  be:	a81c      	add	r0, sp, #112	; 0x70
  c0:	f7ff fffe 	bl	0 <wc_Sha512_256GetHash>
        if (ret != 0)
  c4:	b138      	cbz	r0, d6 <sha512_256_test+0xd6>
            ERROR_OUT(WC_TEST_RET_ENC_I(i), exit);
  c6:	4c4e      	ldr	r4, [pc, #312]	; (200 <sha512_256_test+0x200>)
  c8:	4374      	muls	r4, r6
  ca:	f104 4420 	add.w	r4, r4, #2684354560	; 0xa0000000
  ce:	f46f 635f 	mvn.w	r3, #3568	; 0xdf0
  d2:	441c      	add	r4, r3
  d4:	e7eb      	b.n	ae <sha512_256_test+0xae>
        ret = wc_Sha512_256Copy(&sha, &shaCopy);
  d6:	a954      	add	r1, sp, #336	; 0x150
  d8:	a81c      	add	r0, sp, #112	; 0x70
  da:	f7ff fffe 	bl	0 <wc_Sha512_256Copy>
        if (ret != 0)
  de:	b130      	cbz	r0, ee <sha512_256_test+0xee>
            ERROR_OUT(WC_TEST_RET_ENC_I(i), exit);
  e0:	4c47      	ldr	r4, [pc, #284]	; (200 <sha512_256_test+0x200>)
  e2:	4374      	muls	r4, r6
  e4:	f104 4420 	add.w	r4, r4, #2684354560	; 0xa0000000
  e8:	f6a4 54f4 	subw	r4, r4, #3572	; 0xdf4
  ec:	e7df      	b.n	ae <sha512_256_test+0xae>
        ret = wc_Sha512_256Final(&sha, hash);
  ee:	4669      	mov	r1, sp
  f0:	a81c      	add	r0, sp, #112	; 0x70
  f2:	f7ff fffe 	bl	0 <wc_Sha512_256Final>
        if (ret != 0)
  f6:	b130      	cbz	r0, 106 <sha512_256_test+0x106>
            ERROR_OUT(WC_TEST_RET_ENC_I(i), exit);
  f8:	4c41      	ldr	r4, [pc, #260]	; (200 <sha512_256_test+0x200>)
  fa:	4374      	muls	r4, r6
  fc:	f104 4420 	add.w	r4, r4, #2684354560	; 0xa0000000
 100:	f6a4 54f7 	subw	r4, r4, #3575	; 0xdf7
 104:	e7d3      	b.n	ae <sha512_256_test+0xae>
        wc_Sha512_256Free(&shaCopy);
 106:	a854      	add	r0, sp, #336	; 0x150
 108:	f7ff fffe 	bl	0 <wc_Sha512_256Free>
        if (XMEMCMP(hash, test_sha[i].output, WC_SHA512_256_DIGEST_SIZE) != 0)
 10c:	6869      	ldr	r1, [r5, #4]
 10e:	2220      	movs	r2, #32
 110:	4668      	mov	r0, sp
 112:	f7ff fffe 	bl	0 <memcmp>
 116:	b130      	cbz	r0, 126 <sha512_256_test+0x126>
            ERROR_OUT(WC_TEST_RET_ENC_I(i), exit);
 118:	4c39      	ldr	r4, [pc, #228]	; (200 <sha512_256_test+0x200>)
 11a:	4374      	muls	r4, r6
 11c:	f104 4420 	add.w	r4, r4, #2684354560	; 0xa0000000
 120:	f6a4 54fb 	subw	r4, r4, #3579	; 0xdfb
 124:	e7c3      	b.n	ae <sha512_256_test+0xae>
        if (XMEMCMP(hash, hashcopy, WC_SHA512_256_DIGEST_SIZE) != 0)
 126:	2220      	movs	r2, #32
 128:	eb0d 0102 	add.w	r1, sp, r2
 12c:	4668      	mov	r0, sp
 12e:	f7ff fffe 	bl	0 <memcmp>
 132:	b130      	cbz	r0, 142 <sha512_256_test+0x142>
            ERROR_OUT(WC_TEST_RET_ENC_I(i), exit);
 134:	4c32      	ldr	r4, [pc, #200]	; (200 <sha512_256_test+0x200>)
 136:	4374      	muls	r4, r6
 138:	f104 4420 	add.w	r4, r4, #2684354560	; 0xa0000000
 13c:	f6a4 54ff 	subw	r4, r4, #3583	; 0xdff
 140:	e7b5      	b.n	ae <sha512_256_test+0xae>
    for (i = 0; i < times; ++i) {
 142:	3601      	adds	r6, #1
 144:	2e03      	cmp	r6, #3
 146:	f105 0510 	add.w	r5, r5, #16
 14a:	d1a4      	bne.n	96 <sha512_256_test+0x96>
 14c:	ab8c      	add	r3, sp, #560	; 0x230
        large_input[i] = (byte)(i & 0xFF);
 14e:	f803 0b01 	strb.w	r0, [r3], #1
    for (i = 0; i < (int)sizeof(large_input); i++) {
 152:	3001      	adds	r0, #1
 154:	f5b0 6f80 	cmp.w	r0, #1024	; 0x400
 158:	d1f9      	bne.n	14e <sha512_256_test+0x14e>
 15a:	2464      	movs	r4, #100	; 0x64
        ret = wc_Sha512_256Update(&sha, (byte*)large_input,
 15c:	f44f 6280 	mov.w	r2, #1024	; 0x400
 160:	a98c      	add	r1, sp, #560	; 0x230
 162:	a81c      	add	r0, sp, #112	; 0x70
 164:	f7ff fffe 	bl	0 <wc_Sha512_256Update>
        if (ret != 0)
 168:	b148      	cbz	r0, 17e <sha512_256_test+0x17e>
            ERROR_OUT(WC_TEST_RET_ENC_EC(ret), exit);
 16a:	4244      	negs	r4, r0
 16c:	4824      	ldr	r0, [pc, #144]	; (200 <sha512_256_test+0x200>)
 16e:	f3c4 040a 	ubfx	r4, r4, #0, #11
 172:	4344      	muls	r4, r0
 174:	f104 4460 	add.w	r4, r4, #3758096384	; 0xe0000000
 178:	f6a4 641f 	subw	r4, r4, #3615	; 0xe1f
 17c:	e797      	b.n	ae <sha512_256_test+0xae>
    for (i = 0; i < times; ++i) {
 17e:	3c01      	subs	r4, #1
 180:	d1ec      	bne.n	15c <sha512_256_test+0x15c>
    ret = wc_Sha512_256Final(&sha, hash);
 182:	4669      	mov	r1, sp
 184:	a81c      	add	r0, sp, #112	; 0x70
 186:	f7ff fffe 	bl	0 <wc_Sha512_256Final>
    if (ret != 0)
 18a:	b148      	cbz	r0, 1a0 <sha512_256_test+0x1a0>
        ERROR_OUT(WC_TEST_RET_ENC_EC(ret), exit);
 18c:	4244      	negs	r4, r0
 18e:	481c      	ldr	r0, [pc, #112]	; (200 <sha512_256_test+0x200>)
 190:	f3c4 040a 	ubfx	r4, r4, #0, #11
 194:	4344      	muls	r4, r0
 196:	f104 4460 	add.w	r4, r4, #3758096384	; 0xe0000000
 19a:	f6a4 6423 	subw	r4, r4, #3619	; 0xe23
 19e:	e786      	b.n	ae <sha512_256_test+0xae>
    if (XMEMCMP(hash, large_digest, WC_SHA512_256_DIGEST_SIZE) != 0)
 1a0:	4918      	ldr	r1, [pc, #96]	; (204 <sha512_256_test+0x204>)
 1a2:	2220      	movs	r2, #32
 1a4:	4668      	mov	r0, sp
 1a6:	f7ff fffe 	bl	0 <memcmp>
 1aa:	b9d8      	cbnz	r0, 1e4 <sha512_256_test+0x1e4>
    for (i = 1; i < 16; i++) {
 1ac:	2501      	movs	r5, #1
        ret = wc_Sha512_256Update(&sha, (byte*)large_input + i,
 1ae:	ab8c      	add	r3, sp, #560	; 0x230
 1b0:	f5c5 6280 	rsb	r2, r5, #1024	; 0x400
 1b4:	1959      	adds	r1, r3, r5
 1b6:	a81c      	add	r0, sp, #112	; 0x70
 1b8:	f7ff fffe 	bl	0 <wc_Sha512_256Update>
        if (ret != 0)
 1bc:	b148      	cbz	r0, 1d2 <sha512_256_test+0x1d2>
            ERROR_OUT(WC_TEST_RET_ENC_EC(ret), exit);
 1be:	4244      	negs	r4, r0
 1c0:	480f      	ldr	r0, [pc, #60]	; (200 <sha512_256_test+0x200>)
 1c2:	f3c4 040a 	ubfx	r4, r4, #0, #11
 1c6:	4344      	muls	r4, r0
 1c8:	f104 4460 	add.w	r4, r4, #3758096384	; 0xe0000000
 1cc:	f6a4 642d 	subw	r4, r4, #3629	; 0xe2d
 1d0:	e76d      	b.n	ae <sha512_256_test+0xae>
        ret = wc_Sha512_256Final(&sha, hash);
 1d2:	4669      	mov	r1, sp
 1d4:	a81c      	add	r0, sp, #112	; 0x70
 1d6:	f7ff fffe 	bl	0 <wc_Sha512_256Final>
    for (i = 1; i < 16; i++) {
 1da:	3501      	adds	r5, #1
 1dc:	2d10      	cmp	r5, #16
        ret = wc_Sha512_256Final(&sha, hash);
 1de:	4604      	mov	r4, r0
    for (i = 1; i < 16; i++) {
 1e0:	d1e5      	bne.n	1ae <sha512_256_test+0x1ae>
 1e2:	e764      	b.n	ae <sha512_256_test+0xae>
        ERROR_OUT(WC_TEST_RET_ENC_NC, exit);
 1e4:	4c08      	ldr	r4, [pc, #32]	; (208 <sha512_256_test+0x208>)
 1e6:	e762      	b.n	ae <sha512_256_test+0xae>
 1e8:	00000000 	.word	0x00000000
 1ec:	00000001 	.word	0x00000001
	...
 1f8:	00000021 	.word	0x00000021
 1fc:	00000042 	.word	0x00000042
 200:	fffe7960 	.word	0xfffe7960
 204:	00000063 	.word	0x00000063
 208:	fffff1db 	.word	0xfffff1db

Disassembly of section .text.hash_test:

00000000 <hash_test>:
{
   0:	e92d 4ff0 	stmdb	sp!, {r4, r5, r6, r7, r8, r9, sl, fp, lr}
    byte             data[] = "0123456789abcdef0123456789abcdef0123456";
   4:	4bab      	ldr	r3, [pc, #684]	; (2b4 <hash_test+0x2b4>)
{
   6:	b0ed      	sub	sp, #436	; 0x1b4
    byte             data[] = "0123456789abcdef0123456789abcdef0123456";
   8:	ac0a      	add	r4, sp, #40	; 0x28
   a:	f103 0528 	add.w	r5, r3, #40	; 0x28
   e:	6818      	ldr	r0, [r3, #0]
  10:	6859      	ldr	r1, [r3, #4]
  12:	4622      	mov	r2, r4
  14:	c203      	stmia	r2!, {r0, r1}
  16:	3308      	adds	r3, #8
  18:	42ab      	cmp	r3, r5
  1a:	4614      	mov	r4, r2
  1c:	d1f7      	bne.n	e <hash_test+0xe>
    enum wc_HashType typesGood[] = { WC_HASH_TYPE_MD5, WC_HASH_TYPE_SHA,
  1e:	4aa6      	ldr	r2, [pc, #664]	; (2b8 <hash_test+0x2b8>)
  20:	f8d2 00b7 	ldr.w	r0, [r2, #183]	; 0xb7
  24:	f8d2 10bb 	ldr.w	r1, [r2, #187]	; 0xbb
  28:	f8b2 20bf 	ldrh.w	r2, [r2, #191]	; 0xbf
  2c:	ab07      	add	r3, sp, #28
  2e:	c303      	stmia	r3!, {r0, r1}
    enum wc_HashType typesNoImpl[] = {
  30:	af05      	add	r7, sp, #20
    enum wc_HashType typesGood[] = { WC_HASH_TYPE_MD5, WC_HASH_TYPE_SHA,
  32:	801a      	strh	r2, [r3, #0]
    enum wc_HashType typesNoImpl[] = {
  34:	2303      	movs	r3, #3
  36:	703b      	strb	r3, [r7, #0]
  38:	2305      	movs	r3, #5
  3a:	707b      	strb	r3, [r7, #1]
  3c:	2307      	movs	r3, #7
  3e:	70bb      	strb	r3, [r7, #2]
  40:	230a      	movs	r3, #10
  42:	70fb      	strb	r3, [r7, #3]
  44:	230b      	movs	r3, #11
  46:	713b      	strb	r3, [r7, #4]
  48:	230c      	movs	r3, #12
  4a:	717b      	strb	r3, [r7, #5]
  4c:	230d      	movs	r3, #13
  4e:	71bb      	strb	r3, [r7, #6]
    enum wc_HashType typesBad[]  = { WC_HASH_TYPE_NONE, WC_HASH_TYPE_MD5_SHA,
  50:	2309      	movs	r3, #9
    enum wc_HashType typesNoImpl[] = {
  52:	2400      	movs	r4, #0
    enum wc_HashType typesBad[]  = { WC_HASH_TYPE_NONE, WC_HASH_TYPE_MD5_SHA,
  54:	f88d 300d 	strb.w	r3, [sp, #13]
  58:	2302      	movs	r3, #2
  5a:	2201      	movs	r2, #1
  5c:	f88d 300f 	strb.w	r3, [sp, #15]
    enum wc_HashType typesHashBad[] = { WC_HASH_TYPE_MD2, WC_HASH_TYPE_MD4,
  60:	f88d 3011 	strb.w	r3, [sp, #17]
    ret = wc_HashInit(NULL, WC_HASH_TYPE_SHA256);
  64:	2106      	movs	r1, #6
    enum wc_HashType typesHashBad[] = { WC_HASH_TYPE_MD2, WC_HASH_TYPE_MD4,
  66:	230e      	movs	r3, #14
    ret = wc_HashInit(NULL, WC_HASH_TYPE_SHA256);
  68:	4620      	mov	r0, r4
    enum wc_HashType typesNoImpl[] = {
  6a:	71fc      	strb	r4, [r7, #7]
    enum wc_HashType typesBad[]  = { WC_HASH_TYPE_NONE, WC_HASH_TYPE_MD5_SHA,
  6c:	f88d 400c 	strb.w	r4, [sp, #12]
  70:	f88d 200e 	strb.w	r2, [sp, #14]
    enum wc_HashType typesHashBad[] = { WC_HASH_TYPE_MD2, WC_HASH_TYPE_MD4,
  74:	f88d 2010 	strb.w	r2, [sp, #16]
  78:	f88d 3012 	strb.w	r3, [sp, #18]
  7c:	f88d 4013 	strb.w	r4, [sp, #19]
    ret = wc_HashInit(NULL, WC_HASH_TYPE_SHA256);
  80:	f7ff fffe 	bl	0 <wc_HashInit>
    if (ret != BAD_FUNC_ARG)
  84:	f110 0fad 	cmn.w	r0, #173	; 0xad
  88:	d009      	beq.n	9e <hash_test+0x9e>
        return WC_TEST_RET_ENC_EC(ret);
  8a:	4240      	negs	r0, r0
  8c:	f3c0 030a 	ubfx	r3, r0, #0, #11
  90:	4a8a      	ldr	r2, [pc, #552]	; (2bc <hash_test+0x2bc>)
  92:	488b      	ldr	r0, [pc, #556]	; (2c0 <hash_test+0x2c0>)
        return WC_TEST_RET_ENC_EC(ret);
  94:	fb02 0003 	mla	r0, r2, r3, r0
}
  98:	b06d      	add	sp, #436	; 0x1b4
  9a:	e8bd 8ff0 	ldmia.w	sp!, {r4, r5, r6, r7, r8, r9, sl, fp, pc}
    ret = wc_HashUpdate(NULL, WC_HASH_TYPE_SHA256, NULL, sizeof(data));
  9e:	2328      	movs	r3, #40	; 0x28
  a0:	4622      	mov	r2, r4
  a2:	2106      	movs	r1, #6
  a4:	4620      	mov	r0, r4
  a6:	f7ff fffe 	bl	0 <wc_HashUpdate>
    if (ret != BAD_FUNC_ARG)
  aa:	f110 0fad 	cmn.w	r0, #173	; 0xad
  ae:	d005      	beq.n	bc <hash_test+0xbc>
        return WC_TEST_RET_ENC_EC(ret);
  b0:	4240      	negs	r0, r0
  b2:	f3c0 030a 	ubfx	r3, r0, #0, #11
  b6:	4a81      	ldr	r2, [pc, #516]	; (2bc <hash_test+0x2bc>)
  b8:	4882      	ldr	r0, [pc, #520]	; (2c4 <hash_test+0x2c4>)
  ba:	e7eb      	b.n	94 <hash_test+0x94>
    ret = wc_HashUpdate(&hash, WC_HASH_TYPE_SHA256, NULL, sizeof(data));
  bc:	f10d 0bd0 	add.w	fp, sp, #208	; 0xd0
  c0:	2328      	movs	r3, #40	; 0x28
  c2:	4622      	mov	r2, r4
  c4:	2106      	movs	r1, #6
  c6:	4658      	mov	r0, fp
  c8:	f7ff fffe 	bl	0 <wc_HashUpdate>
    if (ret != BAD_FUNC_ARG)
  cc:	f110 0fad 	cmn.w	r0, #173	; 0xad
  d0:	d005      	beq.n	de <hash_test+0xde>
        return WC_TEST_RET_ENC_EC(ret);
  d2:	4240      	negs	r0, r0
  d4:	f3c0 030a 	ubfx	r3, r0, #0, #11
  d8:	4a78      	ldr	r2, [pc, #480]	; (2bc <hash_test+0x2bc>)
  da:	487b      	ldr	r0, [pc, #492]	; (2c8 <hash_test+0x2c8>)
  dc:	e7da      	b.n	94 <hash_test+0x94>
    ret = wc_HashUpdate(NULL, WC_HASH_TYPE_SHA256, data, sizeof(data));
  de:	2328      	movs	r3, #40	; 0x28
  e0:	eb0d 0203 	add.w	r2, sp, r3
  e4:	2106      	movs	r1, #6
  e6:	4620      	mov	r0, r4
  e8:	f7ff fffe 	bl	0 <wc_HashUpdate>
    if (ret != BAD_FUNC_ARG)
  ec:	f110 0fad 	cmn.w	r0, #173	; 0xad
  f0:	d009      	beq.n	106 <hash_test+0x106>
        return WC_TEST_RET_ENC_EC(ret);
  f2:	4b72      	ldr	r3, [pc, #456]	; (2bc <hash_test+0x2bc>)
  f4:	4240      	negs	r0, r0
  f6:	f3c0 000a 	ubfx	r0, r0, #0, #11
  fa:	4358      	muls	r0, r3
  fc:	f100 4060 	add.w	r0, r0, #3758096384	; 0xe0000000
 100:	f5a0 50a1 	sub.w	r0, r0, #5152	; 0x1420
 104:	e7c8      	b.n	98 <hash_test+0x98>
    ret = wc_HashFinal(NULL, WC_HASH_TYPE_SHA256, NULL);
 106:	4622      	mov	r2, r4
 108:	2106      	movs	r1, #6
 10a:	4620      	mov	r0, r4
 10c:	f7ff fffe 	bl	0 <wc_HashFinal>
    if (ret != BAD_FUNC_ARG)
 110:	f110 0fad 	cmn.w	r0, #173	; 0xad
 114:	d005      	beq.n	122 <hash_test+0x122>
        return WC_TEST_RET_ENC_EC(ret);
 116:	4240      	negs	r0, r0
 118:	f3c0 030a 	ubfx	r3, r0, #0, #11
 11c:	4a67      	ldr	r2, [pc, #412]	; (2bc <hash_test+0x2bc>)
 11e:	486b      	ldr	r0, [pc, #428]	; (2cc <hash_test+0x2cc>)
 120:	e7b8      	b.n	94 <hash_test+0x94>
    ret = wc_HashFinal(&hash, WC_HASH_TYPE_SHA256, NULL);
 122:	4622      	mov	r2, r4
 124:	2106      	movs	r1, #6
 126:	4658      	mov	r0, fp
 128:	f7ff fffe 	bl	0 <wc_HashFinal>
    if (ret != BAD_FUNC_ARG)
 12c:	f110 0fad 	cmn.w	r0, #173	; 0xad
 130:	d005      	beq.n	13e <hash_test+0x13e>
        return WC_TEST_RET_ENC_EC(ret);
 132:	4240      	negs	r0, r0
 134:	f3c0 030a 	ubfx	r3, r0, #0, #11
 138:	4a60      	ldr	r2, [pc, #384]	; (2bc <hash_test+0x2bc>)
 13a:	4865      	ldr	r0, [pc, #404]	; (2d0 <hash_test+0x2d0>)
 13c:	e7aa      	b.n	94 <hash_test+0x94>
    ret = wc_HashFinal(NULL, WC_HASH_TYPE_SHA256, out);
 13e:	aa14      	add	r2, sp, #80	; 0x50
 140:	2106      	movs	r1, #6
 142:	4620      	mov	r0, r4
 144:	f7ff fffe 	bl	0 <wc_HashFinal>
    if (ret != BAD_FUNC_ARG)
 148:	f110 0fad 	cmn.w	r0, #173	; 0xad
 14c:	d005      	beq.n	15a <hash_test+0x15a>
        return WC_TEST_RET_ENC_EC(ret);
 14e:	4240      	negs	r0, r0
 150:	f3c0 030a 	ubfx	r3, r0, #0, #11
 154:	4a59      	ldr	r2, [pc, #356]	; (2bc <hash_test+0x2bc>)
 156:	485f      	ldr	r0, [pc, #380]	; (2d4 <hash_test+0x2d4>)
 158:	e79c      	b.n	94 <hash_test+0x94>
 15a:	ae03      	add	r6, sp, #12
        ret = wc_HashInit(&hash, typesBad[i]);
 15c:	f816 8b01 	ldrb.w	r8, [r6], #1
 160:	4658      	mov	r0, fp
 162:	4641      	mov	r1, r8
 164:	f7ff fffe 	bl	0 <wc_HashInit>
        if (ret != BAD_FUNC_ARG)
 168:	30ad      	adds	r0, #173	; 0xad
 16a:	d004      	beq.n	176 <hash_test+0x176>
            return WC_TEST_RET_ENC_I(i);
 16c:	4b53      	ldr	r3, [pc, #332]	; (2bc <hash_test+0x2bc>)
 16e:	485a      	ldr	r0, [pc, #360]	; (2d8 <hash_test+0x2d8>)
            return WC_TEST_RET_ENC_I(i);
 170:	fb03 0004 	mla	r0, r3, r4, r0
 174:	e790      	b.n	98 <hash_test+0x98>
        ret = wc_HashUpdate(&hash, typesBad[i], data, sizeof(data));
 176:	2328      	movs	r3, #40	; 0x28
 178:	eb0d 0203 	add.w	r2, sp, r3
 17c:	4641      	mov	r1, r8
 17e:	4658      	mov	r0, fp
 180:	f7ff fffe 	bl	0 <wc_HashUpdate>
        if (ret != BAD_FUNC_ARG)
 184:	30ad      	adds	r0, #173	; 0xad
 186:	d002      	beq.n	18e <hash_test+0x18e>
            return WC_TEST_RET_ENC_I(i);
 188:	4b4c      	ldr	r3, [pc, #304]	; (2bc <hash_test+0x2bc>)
 18a:	4854      	ldr	r0, [pc, #336]	; (2dc <hash_test+0x2dc>)
 18c:	e7f0      	b.n	170 <hash_test+0x170>
        ret = wc_HashFinal(&hash, typesBad[i], out);
 18e:	aa14      	add	r2, sp, #80	; 0x50
 190:	4641      	mov	r1, r8
 192:	4658      	mov	r0, fp
 194:	f7ff fffe 	bl	0 <wc_HashFinal>
        if (ret != BAD_FUNC_ARG)
 198:	30ad      	adds	r0, #173	; 0xad
 19a:	d002      	beq.n	1a2 <hash_test+0x1a2>
            return WC_TEST_RET_ENC_I(i);
 19c:	4b47      	ldr	r3, [pc, #284]	; (2bc <hash_test+0x2bc>)
 19e:	4850      	ldr	r0, [pc, #320]	; (2e0 <hash_test+0x2e0>)
 1a0:	e7e6      	b.n	170 <hash_test+0x170>
        wc_HashFree(&hash, typesBad[i]);
 1a2:	4641      	mov	r1, r8
 1a4:	4658      	mov	r0, fp
    for (i = 0; i < (int)(sizeof(typesBad)/sizeof(*typesBad)); i++) {
 1a6:	3401      	adds	r4, #1
        wc_HashFree(&hash, typesBad[i]);
 1a8:	f7ff fffe 	bl	0 <wc_HashFree>
    for (i = 0; i < (int)(sizeof(typesBad)/sizeof(*typesBad)); i++) {
 1ac:	2c04      	cmp	r4, #4
 1ae:	d1d5      	bne.n	15c <hash_test+0x15c>
    for (i = 0, j = 0; i < (int)(sizeof(typesGood)/sizeof(*typesGood)); i++) {
 1b0:	f04f 0a00 	mov.w	sl, #0
 1b4:	f10d 091c 	add.w	r9, sp, #28
 1b8:	4654      	mov	r4, sl
        if (typesGood[i] == typesNoImpl[j]) {
 1ba:	f819 8b01 	ldrb.w	r8, [r9], #1
 1be:	f817 300a 	ldrb.w	r3, [r7, sl]
        ret = wc_HashInit(&hash, typesGood[i]);
 1c2:	4641      	mov	r1, r8
        if (typesGood[i] == typesNoImpl[j]) {
 1c4:	4543      	cmp	r3, r8
        ret = wc_HashInit(&hash, typesGood[i]);
 1c6:	4658      	mov	r0, fp
            j++;
 1c8:	bf06      	itte	eq
 1ca:	f10a 0a01 	addeq.w	sl, sl, #1
            exp_ret = HASH_TYPE_E;
 1ce:	f06f 06e7 	mvneq.w	r6, #231	; 0xe7
        exp_ret = 0;
 1d2:	2600      	movne	r6, #0
        ret = wc_HashInit(&hash, typesGood[i]);
 1d4:	f7ff fffe 	bl	0 <wc_HashInit>
        if (ret != exp_ret)
 1d8:	4286      	cmp	r6, r0
 1da:	d002      	beq.n	1e2 <hash_test+0x1e2>
            return WC_TEST_RET_ENC_I(i);
 1dc:	4b37      	ldr	r3, [pc, #220]	; (2bc <hash_test+0x2bc>)
 1de:	4841      	ldr	r0, [pc, #260]	; (2e4 <hash_test+0x2e4>)
 1e0:	e7c6      	b.n	170 <hash_test+0x170>
        ret = wc_HashUpdate(&hash, typesGood[i], data, sizeof(data));
 1e2:	2328      	movs	r3, #40	; 0x28
 1e4:	eb0d 0203 	add.w	r2, sp, r3
 1e8:	4641      	mov	r1, r8
 1ea:	4658      	mov	r0, fp
 1ec:	f7ff fffe 	bl	0 <wc_HashUpdate>
        if (ret != exp_ret)
 1f0:	4286      	cmp	r6, r0
 1f2:	d002      	beq.n	1fa <hash_test+0x1fa>
            return WC_TEST_RET_ENC_I(i);
 1f4:	4b31      	ldr	r3, [pc, #196]	; (2bc <hash_test+0x2bc>)
 1f6:	483c      	ldr	r0, [pc, #240]	; (2e8 <hash_test+0x2e8>)
 1f8:	e7ba      	b.n	170 <hash_test+0x170>
        ret = wc_HashFinal(&hash, typesGood[i], out);
 1fa:	aa14      	add	r2, sp, #80	; 0x50
 1fc:	4641      	mov	r1, r8
 1fe:	4658      	mov	r0, fp
 200:	f7ff fffe 	bl	0 <wc_HashFinal>
        if (ret != exp_ret)
 204:	4286      	cmp	r6, r0
 206:	d002      	beq.n	20e <hash_test+0x20e>
            return WC_TEST_RET_ENC_I(i);
 208:	4b2c      	ldr	r3, [pc, #176]	; (2bc <hash_test+0x2bc>)
 20a:	4838      	ldr	r0, [pc, #224]	; (2ec <hash_test+0x2ec>)
 20c:	e7b0      	b.n	170 <hash_test+0x170>
        wc_HashFree(&hash, typesGood[i]);
 20e:	4641      	mov	r1, r8
 210:	4658      	mov	r0, fp
 212:	f7ff fffe 	bl	0 <wc_HashFree>
        digestSz = wc_HashGetDigestSize(typesGood[i]);
 216:	4640      	mov	r0, r8
 218:	f7ff fffe 	bl	0 <wc_HashGetDigestSize>
 21c:	4605      	mov	r5, r0
        if (exp_ret < 0 && digestSz != exp_ret)
 21e:	b126      	cbz	r6, 22a <hash_test+0x22a>
 220:	4286      	cmp	r6, r0
 222:	d015      	beq.n	250 <hash_test+0x250>
            return WC_TEST_RET_ENC_I(i);
 224:	4b25      	ldr	r3, [pc, #148]	; (2bc <hash_test+0x2bc>)
 226:	4832      	ldr	r0, [pc, #200]	; (2f0 <hash_test+0x2f0>)
 228:	e7a2      	b.n	170 <hash_test+0x170>
        if (exp_ret == 0 && digestSz < 0)
 22a:	2800      	cmp	r0, #0
 22c:	da02      	bge.n	234 <hash_test+0x234>
            return WC_TEST_RET_ENC_I(i);
 22e:	4b23      	ldr	r3, [pc, #140]	; (2bc <hash_test+0x2bc>)
 230:	4830      	ldr	r0, [pc, #192]	; (2f4 <hash_test+0x2f4>)
 232:	e79d      	b.n	170 <hash_test+0x170>
                                                                  digestSz - 1);
 234:	1e43      	subs	r3, r0, #1
            ret = wc_Hash(typesGood[i], data, sizeof(data), hashOut,
 236:	2228      	movs	r2, #40	; 0x28
 238:	9300      	str	r3, [sp, #0]
 23a:	eb0d 0102 	add.w	r1, sp, r2
 23e:	ab24      	add	r3, sp, #144	; 0x90
 240:	4640      	mov	r0, r8
 242:	f7ff fffe 	bl	0 <wc_Hash>
            if (ret != BUFFER_E)
 246:	3084      	adds	r0, #132	; 0x84
 248:	d002      	beq.n	250 <hash_test+0x250>
                return WC_TEST_RET_ENC_I(i);
 24a:	4b1c      	ldr	r3, [pc, #112]	; (2bc <hash_test+0x2bc>)
 24c:	482a      	ldr	r0, [pc, #168]	; (2f8 <hash_test+0x2f8>)
 24e:	e78f      	b.n	170 <hash_test+0x170>
        ret = wc_Hash(typesGood[i], data, sizeof(data), hashOut, digestSz);
 250:	2228      	movs	r2, #40	; 0x28
 252:	9500      	str	r5, [sp, #0]
 254:	ab24      	add	r3, sp, #144	; 0x90
 256:	eb0d 0102 	add.w	r1, sp, r2
 25a:	4640      	mov	r0, r8
 25c:	f7ff fffe 	bl	0 <wc_Hash>
        if (ret != exp_ret)
 260:	4286      	cmp	r6, r0
 262:	d002      	beq.n	26a <hash_test+0x26a>
            return WC_TEST_RET_ENC_I(i);
 264:	4b15      	ldr	r3, [pc, #84]	; (2bc <hash_test+0x2bc>)
 266:	4825      	ldr	r0, [pc, #148]	; (2fc <hash_test+0x2fc>)
 268:	e782      	b.n	170 <hash_test+0x170>
        if (exp_ret == 0 && XMEMCMP(out, hashOut, digestSz) != 0)
 26a:	b946      	cbnz	r6, 27e <hash_test+0x27e>
 26c:	462a      	mov	r2, r5
 26e:	a924      	add	r1, sp, #144	; 0x90
 270:	a814      	add	r0, sp, #80	; 0x50
 272:	f7ff fffe 	bl	0 <memcmp>
 276:	b110      	cbz	r0, 27e <hash_test+0x27e>
            return WC_TEST_RET_ENC_I(i);
 278:	4b10      	ldr	r3, [pc, #64]	; (2bc <hash_test+0x2bc>)
 27a:	4821      	ldr	r0, [pc, #132]	; (300 <hash_test+0x300>)
 27c:	e778      	b.n	170 <hash_test+0x170>
        ret = wc_HashGetBlockSize(typesGood[i]);
 27e:	4640      	mov	r0, r8
 280:	f7ff fffe 	bl	0 <wc_HashGetBlockSize>
        if (exp_ret < 0 && ret != exp_ret)
 284:	b126      	cbz	r6, 290 <hash_test+0x290>
 286:	4286      	cmp	r6, r0
 288:	d007      	beq.n	29a <hash_test+0x29a>
            return WC_TEST_RET_ENC_I(i);
 28a:	4b0c      	ldr	r3, [pc, #48]	; (2bc <hash_test+0x2bc>)
 28c:	481d      	ldr	r0, [pc, #116]	; (304 <hash_test+0x304>)
 28e:	e76f      	b.n	170 <hash_test+0x170>
        if (exp_ret == 0 && ret < 0)
 290:	2800      	cmp	r0, #0
 292:	da02      	bge.n	29a <hash_test+0x29a>
            return WC_TEST_RET_ENC_I(i);
 294:	4b09      	ldr	r3, [pc, #36]	; (2bc <hash_test+0x2bc>)
 296:	481c      	ldr	r0, [pc, #112]	; (308 <hash_test+0x308>)
 298:	e76a      	b.n	170 <hash_test+0x170>
        ret = wc_HashGetOID(typesGood[i]);
 29a:	4640      	mov	r0, r8
 29c:	f7ff fffe 	bl	0 <wc_HashGetOID>
        if (ret == BAD_FUNC_ARG ||
 2a0:	f110 0fad 	cmn.w	r0, #173	; 0xad
 2a4:	d003      	beq.n	2ae <hash_test+0x2ae>
 2a6:	bb9e      	cbnz	r6, 310 <hash_test+0x310>
                (exp_ret == 0 && ret == HASH_TYPE_E) ||
 2a8:	f110 0fe8 	cmn.w	r0, #232	; 0xe8
 2ac:	d133      	bne.n	316 <hash_test+0x316>
            return WC_TEST_RET_ENC_I(i);
 2ae:	4b03      	ldr	r3, [pc, #12]	; (2bc <hash_test+0x2bc>)
 2b0:	4816      	ldr	r0, [pc, #88]	; (30c <hash_test+0x30c>)
 2b2:	e75d      	b.n	170 <hash_test+0x170>
	...
 2bc:	fffe7960 	.word	0xfffe7960
 2c0:	dfffebe9 	.word	0xdfffebe9
 2c4:	dfffebe6 	.word	0xdfffebe6
 2c8:	dfffebe3 	.word	0xdfffebe3
 2cc:	dfffebdd 	.word	0xdfffebdd
 2d0:	dfffebda 	.word	0xdfffebda
 2d4:	dfffebd7 	.word	0xdfffebd7
 2d8:	9fffebd1 	.word	0x9fffebd1
 2dc:	9fffebce 	.word	0x9fffebce
 2e0:	9fffebcb 	.word	0x9fffebcb
 2e4:	9fffebbd 	.word	0x9fffebbd
 2e8:	9fffebba 	.word	0x9fffebba
 2ec:	9fffebb7 	.word	0x9fffebb7
 2f0:	9fffebb2 	.word	0x9fffebb2
 2f4:	9fffebb0 	.word	0x9fffebb0
 2f8:	9fffebab 	.word	0x9fffebab
 2fc:	9fffeba7 	.word	0x9fffeba7
 300:	9fffeba5 	.word	0x9fffeba5
 304:	9fffeba1 	.word	0x9fffeba1
 308:	9fffeb9f 	.word	0x9fffeb9f
 30c:	9fffeb98 	.word	0x9fffeb98
                (exp_ret != 0 && ret != HASH_TYPE_E)) {
 310:	f110 0fe8 	cmn.w	r0, #232	; 0xe8
 314:	d1cb      	bne.n	2ae <hash_test+0x2ae>
        hashType = wc_OidGetHash(ret);
 316:	f7ff fffe 	bl	0 <wc_OidGetHash>
        if (exp_ret == 0 && hashType != typesGood[i])
 31a:	b926      	cbnz	r6, 326 <hash_test+0x326>
 31c:	4580      	cmp	r8, r0
 31e:	d002      	beq.n	326 <hash_test+0x326>
            return WC_TEST_RET_ENC_I(i);
 320:	4b78      	ldr	r3, [pc, #480]	; (504 <hash_test+0x504>)
 322:	4879      	ldr	r0, [pc, #484]	; (508 <hash_test+0x508>)
 324:	e724      	b.n	170 <hash_test+0x170>
    for (i = 0, j = 0; i < (int)(sizeof(typesGood)/sizeof(*typesGood)); i++) {
 326:	3401      	adds	r4, #1
 328:	2c0a      	cmp	r4, #10
 32a:	f47f af46 	bne.w	1ba <hash_test+0x1ba>
 32e:	ac04      	add	r4, sp, #16
    for (i = 0; i < (int)(sizeof(typesHashBad)/sizeof(*typesHashBad)); i++) {
 330:	2500      	movs	r5, #0
        ret = wc_Hash(typesHashBad[i], data, sizeof(data), out, sizeof(out));
 332:	2640      	movs	r6, #64	; 0x40
 334:	9600      	str	r6, [sp, #0]
 336:	2228      	movs	r2, #40	; 0x28
 338:	f814 0b01 	ldrb.w	r0, [r4], #1
 33c:	ab14      	add	r3, sp, #80	; 0x50
 33e:	eb0d 0102 	add.w	r1, sp, r2
 342:	f7ff fffe 	bl	0 <wc_Hash>
        if ((ret != BAD_FUNC_ARG) && (ret != BUFFER_E) && (ret != HASH_TYPE_E))
 346:	f110 0fad 	cmn.w	r0, #173	; 0xad
 34a:	d009      	beq.n	360 <hash_test+0x360>
 34c:	f110 0f84 	cmn.w	r0, #132	; 0x84
 350:	d006      	beq.n	360 <hash_test+0x360>
 352:	30e8      	adds	r0, #232	; 0xe8
 354:	d004      	beq.n	360 <hash_test+0x360>
            return WC_TEST_RET_ENC_I(i);
 356:	4b6b      	ldr	r3, [pc, #428]	; (504 <hash_test+0x504>)
 358:	486c      	ldr	r0, [pc, #432]	; (50c <hash_test+0x50c>)
 35a:	fb03 0005 	mla	r0, r3, r5, r0
 35e:	e69b      	b.n	98 <hash_test+0x98>
    for (i = 0; i < (int)(sizeof(typesHashBad)/sizeof(*typesHashBad)); i++) {
 360:	3501      	adds	r5, #1
 362:	2d04      	cmp	r5, #4
 364:	d1e6      	bne.n	334 <hash_test+0x334>
    ret = wc_HashGetOID(WC_HASH_TYPE_MD2);
 366:	2001      	movs	r0, #1
 368:	f7ff fffe 	bl	0 <wc_HashGetOID>
    if (ret != HASH_TYPE_E)
 36c:	f110 0fe8 	cmn.w	r0, #232	; 0xe8
 370:	d005      	beq.n	37e <hash_test+0x37e>
        return WC_TEST_RET_ENC_EC(ret);
 372:	4240      	negs	r0, r0
 374:	f3c0 030a 	ubfx	r3, r0, #0, #11
 378:	4a62      	ldr	r2, [pc, #392]	; (504 <hash_test+0x504>)
 37a:	4865      	ldr	r0, [pc, #404]	; (510 <hash_test+0x510>)
 37c:	e68a      	b.n	94 <hash_test+0x94>
    hashType = wc_OidGetHash(646); /* Md2h */
 37e:	f240 2086 	movw	r0, #646	; 0x286
 382:	f7ff fffe 	bl	0 <wc_OidGetHash>
    if (hashType != WC_HASH_TYPE_NONE)
 386:	4604      	mov	r4, r0
 388:	2800      	cmp	r0, #0
 38a:	f040 80b1 	bne.w	4f0 <hash_test+0x4f0>
    ret = wc_HashGetOID(WC_HASH_TYPE_MD5_SHA);
 38e:	2009      	movs	r0, #9
 390:	f7ff fffe 	bl	0 <wc_HashGetOID>
    if (ret != HASH_TYPE_E)
 394:	f110 0fe8 	cmn.w	r0, #232	; 0xe8
 398:	d005      	beq.n	3a6 <hash_test+0x3a6>
        return WC_TEST_RET_ENC_EC(ret);
 39a:	4240      	negs	r0, r0
 39c:	f3c0 030a 	ubfx	r3, r0, #0, #11
 3a0:	4a58      	ldr	r2, [pc, #352]	; (504 <hash_test+0x504>)
 3a2:	485c      	ldr	r0, [pc, #368]	; (514 <hash_test+0x514>)
 3a4:	e676      	b.n	94 <hash_test+0x94>
    ret = wc_HashGetOID(WC_HASH_TYPE_MD4);
 3a6:	2002      	movs	r0, #2
 3a8:	f7ff fffe 	bl	0 <wc_HashGetOID>
    if (ret != BAD_FUNC_ARG)
 3ac:	f110 0fad 	cmn.w	r0, #173	; 0xad
 3b0:	d005      	beq.n	3be <hash_test+0x3be>
        return WC_TEST_RET_ENC_EC(ret);
 3b2:	4240      	negs	r0, r0
 3b4:	f3c0 030a 	ubfx	r3, r0, #0, #11
 3b8:	4a52      	ldr	r2, [pc, #328]	; (504 <hash_test+0x504>)
 3ba:	4857      	ldr	r0, [pc, #348]	; (518 <hash_test+0x518>)
 3bc:	e66a      	b.n	94 <hash_test+0x94>
    ret = wc_HashGetOID(WC_HASH_TYPE_NONE);
 3be:	4620      	mov	r0, r4
 3c0:	f7ff fffe 	bl	0 <wc_HashGetOID>
    if (ret != BAD_FUNC_ARG)
 3c4:	f110 0fad 	cmn.w	r0, #173	; 0xad
 3c8:	d005      	beq.n	3d6 <hash_test+0x3d6>
        return WC_TEST_RET_ENC_EC(ret);
 3ca:	4240      	negs	r0, r0
 3cc:	f3c0 030a 	ubfx	r3, r0, #0, #11
 3d0:	4a4c      	ldr	r2, [pc, #304]	; (504 <hash_test+0x504>)
 3d2:	4852      	ldr	r0, [pc, #328]	; (51c <hash_test+0x51c>)
 3d4:	e65e      	b.n	94 <hash_test+0x94>
    hashType = wc_OidGetHash(0);
 3d6:	4620      	mov	r0, r4
 3d8:	f7ff fffe 	bl	0 <wc_OidGetHash>
    if (hashType != WC_HASH_TYPE_NONE)
 3dc:	2800      	cmp	r0, #0
 3de:	f040 8089 	bne.w	4f4 <hash_test+0x4f4>
    ret = wc_HashGetBlockSize(WC_HASH_TYPE_MD2);
 3e2:	2001      	movs	r0, #1
 3e4:	f7ff fffe 	bl	0 <wc_HashGetBlockSize>
    if (ret != HASH_TYPE_E)
 3e8:	f110 0fe8 	cmn.w	r0, #232	; 0xe8
 3ec:	d005      	beq.n	3fa <hash_test+0x3fa>
        return WC_TEST_RET_ENC_EC(ret);
 3ee:	4240      	negs	r0, r0
 3f0:	f3c0 030a 	ubfx	r3, r0, #0, #11
 3f4:	4a43      	ldr	r2, [pc, #268]	; (504 <hash_test+0x504>)
 3f6:	484a      	ldr	r0, [pc, #296]	; (520 <hash_test+0x520>)
 3f8:	e64c      	b.n	94 <hash_test+0x94>
    ret = wc_HashGetDigestSize(WC_HASH_TYPE_MD2);
 3fa:	2001      	movs	r0, #1
 3fc:	f7ff fffe 	bl	0 <wc_HashGetDigestSize>
    if (ret != HASH_TYPE_E)
 400:	f110 0fe8 	cmn.w	r0, #232	; 0xe8
 404:	d005      	beq.n	412 <hash_test+0x412>
        return WC_TEST_RET_ENC_EC(ret);
 406:	4240      	negs	r0, r0
 408:	f3c0 030a 	ubfx	r3, r0, #0, #11
 40c:	4a3d      	ldr	r2, [pc, #244]	; (504 <hash_test+0x504>)
 40e:	4845      	ldr	r0, [pc, #276]	; (524 <hash_test+0x524>)
 410:	e640      	b.n	94 <hash_test+0x94>
    ret = wc_HashGetBlockSize(WC_HASH_TYPE_MD4);
 412:	2002      	movs	r0, #2
 414:	f7ff fffe 	bl	0 <wc_HashGetBlockSize>
    if (ret != HASH_TYPE_E)
 418:	f110 0fe8 	cmn.w	r0, #232	; 0xe8
 41c:	d005      	beq.n	42a <hash_test+0x42a>
        return WC_TEST_RET_ENC_EC(ret);
 41e:	4240      	negs	r0, r0
 420:	f3c0 030a 	ubfx	r3, r0, #0, #11
 424:	4a37      	ldr	r2, [pc, #220]	; (504 <hash_test+0x504>)
 426:	4840      	ldr	r0, [pc, #256]	; (528 <hash_test+0x528>)
 428:	e634      	b.n	94 <hash_test+0x94>
    ret = wc_HashGetDigestSize(WC_HASH_TYPE_MD4);
 42a:	2002      	movs	r0, #2
 42c:	f7ff fffe 	bl	0 <wc_HashGetDigestSize>
    if (ret != HASH_TYPE_E)
 430:	f110 0fe8 	cmn.w	r0, #232	; 0xe8
 434:	d005      	beq.n	442 <hash_test+0x442>
        return WC_TEST_RET_ENC_EC(ret);
 436:	4240      	negs	r0, r0
 438:	f3c0 030a 	ubfx	r3, r0, #0, #11
 43c:	4a31      	ldr	r2, [pc, #196]	; (504 <hash_test+0x504>)
 43e:	483b      	ldr	r0, [pc, #236]	; (52c <hash_test+0x52c>)
 440:	e628      	b.n	94 <hash_test+0x94>
    ret = wc_HashGetBlockSize(WC_HASH_TYPE_MD5_SHA);
 442:	2009      	movs	r0, #9
 444:	f7ff fffe 	bl	0 <wc_HashGetBlockSize>
    if (ret != HASH_TYPE_E)
 448:	f110 0fe8 	cmn.w	r0, #232	; 0xe8
 44c:	d005      	beq.n	45a <hash_test+0x45a>
        return WC_TEST_RET_ENC_EC(ret);
 44e:	4240      	negs	r0, r0
 450:	f3c0 030a 	ubfx	r3, r0, #0, #11
 454:	4a2b      	ldr	r2, [pc, #172]	; (504 <hash_test+0x504>)
 456:	4836      	ldr	r0, [pc, #216]	; (530 <hash_test+0x530>)
 458:	e61c      	b.n	94 <hash_test+0x94>
    ret = wc_HashGetBlockSize(WC_HASH_TYPE_BLAKE2B);
 45a:	200e      	movs	r0, #14
 45c:	f7ff fffe 	bl	0 <wc_HashGetBlockSize>
    if (ret != HASH_TYPE_E)
 460:	f110 0fe8 	cmn.w	r0, #232	; 0xe8
 464:	d005      	beq.n	472 <hash_test+0x472>
        return WC_TEST_RET_ENC_EC(ret);
 466:	4240      	negs	r0, r0
 468:	f3c0 030a 	ubfx	r3, r0, #0, #11
 46c:	4a25      	ldr	r2, [pc, #148]	; (504 <hash_test+0x504>)
 46e:	4831      	ldr	r0, [pc, #196]	; (534 <hash_test+0x534>)
 470:	e610      	b.n	94 <hash_test+0x94>
    ret = wc_HashGetDigestSize(WC_HASH_TYPE_BLAKE2B);
 472:	200e      	movs	r0, #14
 474:	f7ff fffe 	bl	0 <wc_HashGetDigestSize>
    if (ret != HASH_TYPE_E)
 478:	f110 0fe8 	cmn.w	r0, #232	; 0xe8
 47c:	d005      	beq.n	48a <hash_test+0x48a>
        return WC_TEST_RET_ENC_EC(ret);
 47e:	4240      	negs	r0, r0
 480:	f3c0 030a 	ubfx	r3, r0, #0, #11
 484:	4a1f      	ldr	r2, [pc, #124]	; (504 <hash_test+0x504>)
 486:	482c      	ldr	r0, [pc, #176]	; (538 <hash_test+0x538>)
 488:	e604      	b.n	94 <hash_test+0x94>
    ret = wc_HashGetBlockSize(WC_HASH_TYPE_NONE);
 48a:	2000      	movs	r0, #0
 48c:	f7ff fffe 	bl	0 <wc_HashGetBlockSize>
    if (ret != BAD_FUNC_ARG)
 490:	f110 0fad 	cmn.w	r0, #173	; 0xad
 494:	d005      	beq.n	4a2 <hash_test+0x4a2>
        return WC_TEST_RET_ENC_EC(ret);
 496:	4240      	negs	r0, r0
 498:	f3c0 030a 	ubfx	r3, r0, #0, #11
 49c:	4a19      	ldr	r2, [pc, #100]	; (504 <hash_test+0x504>)
 49e:	4827      	ldr	r0, [pc, #156]	; (53c <hash_test+0x53c>)
 4a0:	e5f8      	b.n	94 <hash_test+0x94>
    ret = wc_HashGetDigestSize(WC_HASH_TYPE_NONE);
 4a2:	2000      	movs	r0, #0
 4a4:	f7ff fffe 	bl	0 <wc_HashGetDigestSize>
    if (ret != BAD_FUNC_ARG)
 4a8:	f110 0fad 	cmn.w	r0, #173	; 0xad
 4ac:	d005      	beq.n	4ba <hash_test+0x4ba>
        return WC_TEST_RET_ENC_EC(ret);
 4ae:	4240      	negs	r0, r0
 4b0:	f3c0 030a 	ubfx	r3, r0, #0, #11
 4b4:	4a13      	ldr	r2, [pc, #76]	; (504 <hash_test+0x504>)
 4b6:	4822      	ldr	r0, [pc, #136]	; (540 <hash_test+0x540>)
 4b8:	e5ec      	b.n	94 <hash_test+0x94>
    ret = wc_GetCTC_HashOID(WC_SHA);
 4ba:	2004      	movs	r0, #4
 4bc:	f7ff fffe 	bl	0 <wc_GetCTC_HashOID>
    if (ret == 0)
 4c0:	b1d0      	cbz	r0, 4f8 <hash_test+0x4f8>
    ret = wc_GetCTC_HashOID(WC_SHA256);
 4c2:	2006      	movs	r0, #6
 4c4:	f7ff fffe 	bl	0 <wc_GetCTC_HashOID>
    if (ret == 0)
 4c8:	b1c0      	cbz	r0, 4fc <hash_test+0x4fc>
    ret = wc_GetCTC_HashOID(WC_SHA512);
 4ca:	2008      	movs	r0, #8
 4cc:	f7ff fffe 	bl	0 <wc_GetCTC_HashOID>
    if (ret == 0)
 4d0:	b1b0      	cbz	r0, 500 <hash_test+0x500>
    ret = wc_GetCTC_HashOID(-1);
 4d2:	f04f 30ff 	mov.w	r0, #4294967295	; 0xffffffff
 4d6:	f7ff fffe 	bl	0 <wc_GetCTC_HashOID>
    if (ret != 0)
 4da:	2800      	cmp	r0, #0
 4dc:	f43f addc 	beq.w	98 <hash_test+0x98>
        return WC_TEST_RET_ENC_EC(ret);
 4e0:	4a08      	ldr	r2, [pc, #32]	; (504 <hash_test+0x504>)
 4e2:	4b18      	ldr	r3, [pc, #96]	; (544 <hash_test+0x544>)
 4e4:	4240      	negs	r0, r0
 4e6:	f3c0 000a 	ubfx	r0, r0, #0, #11
 4ea:	fb02 3000 	mla	r0, r2, r0, r3
 4ee:	e5d3      	b.n	98 <hash_test+0x98>
        return WC_TEST_RET_ENC_NC;
 4f0:	4815      	ldr	r0, [pc, #84]	; (548 <hash_test+0x548>)
 4f2:	e5d1      	b.n	98 <hash_test+0x98>
        return WC_TEST_RET_ENC_NC;
 4f4:	4815      	ldr	r0, [pc, #84]	; (54c <hash_test+0x54c>)
 4f6:	e5cf      	b.n	98 <hash_test+0x98>
        return WC_TEST_RET_ENC_EC(ret);
 4f8:	4815      	ldr	r0, [pc, #84]	; (550 <hash_test+0x550>)
 4fa:	e5cd      	b.n	98 <hash_test+0x98>
        return WC_TEST_RET_ENC_EC(ret);
 4fc:	4815      	ldr	r0, [pc, #84]	; (554 <hash_test+0x554>)
 4fe:	e5cb      	b.n	98 <hash_test+0x98>
        return WC_TEST_RET_ENC_EC(ret);
 500:	4815      	ldr	r0, [pc, #84]	; (558 <hash_test+0x558>)
 502:	e5c9      	b.n	98 <hash_test+0x98>
 504:	fffe7960 	.word	0xfffe7960
 508:	9fffeb93 	.word	0x9fffeb93
 50c:	9fffeb8c 	.word	0x9fffeb8c
 510:	dfffeb82 	.word	0xdfffeb82
 514:	dfffeb71 	.word	0xdfffeb71
 518:	dfffeb6d 	.word	0xdfffeb6d
 51c:	dfffeb6a 	.word	0xdfffeb6a
 520:	dfffeb5d 	.word	0xdfffeb5d
 524:	dfffeb55 	.word	0xdfffeb55
 528:	dfffeb4c 	.word	0xdfffeb4c
 52c:	dfffeb44 	.word	0xdfffeb44
 530:	dfffeb3c 	.word	0xdfffeb3c
 534:	dfffeb33 	.word	0xdfffeb33
 538:	dfffeb2b 	.word	0xdfffeb2b
 53c:	dfffeb26 	.word	0xdfffeb26
 540:	dfffeb23 	.word	0xdfffeb23
 544:	dfffeafb 	.word	0xdfffeafb
 548:	ffffeb7a 	.word	0xffffeb7a
 54c:	ffffeb66 	.word	0xffffeb66
 550:	dfffeb13 	.word	0xdfffeb13
 554:	dfffeb09 	.word	0xdfffeb09
 558:	dfffeaff 	.word	0xdfffeaff

Disassembly of section .text.hmac_sha_test:

00000000 <hmac_sha_test>:
{
   0:	e92d 47f0 	stmdb	sp!, {r4, r5, r6, r7, r8, r9, sl, lr}
    const char* keys[]=
   4:	4c42      	ldr	r4, [pc, #264]	; (110 <hmac_sha_test+0x110>)
    a.inLen  = XSTRLEN(a.input);
   6:	f8df a10c 	ldr.w	sl, [pc, #268]	; 114 <hmac_sha_test+0x114>
    b.inLen  = XSTRLEN(b.input);
   a:	f8df 910c 	ldr.w	r9, [pc, #268]	; 118 <hmac_sha_test+0x118>
    c.inLen  = XSTRLEN(c.input);
   e:	f8df 810c 	ldr.w	r8, [pc, #268]	; 11c <hmac_sha_test+0x11c>
    const char* keys[]=
  12:	e894 0007 	ldmia.w	r4, {r0, r1, r2}
{
  16:	f5ad 7d1e 	sub.w	sp, sp, #632	; 0x278
    const char* keys[]=
  1a:	466f      	mov	r7, sp
  1c:	e887 0007 	stmia.w	r7, {r0, r1, r2}
    a.inLen  = XSTRLEN(a.input);
  20:	4650      	mov	r0, sl
  22:	f7ff fffe 	bl	0 <strlen>
  26:	4606      	mov	r6, r0
    b.inLen  = XSTRLEN(b.input);
  28:	4648      	mov	r0, r9
  2a:	f7ff fffe 	bl	0 <strlen>
  2e:	4605      	mov	r5, r0
    c.inLen  = XSTRLEN(c.input);
  30:	4640      	mov	r0, r8
  32:	f7ff fffe 	bl	0 <strlen>
    test_hmac[1] = b;
  36:	4b3a      	ldr	r3, [pc, #232]	; (120 <hmac_sha_test+0x120>)
    test_hmac[0] = a;
  38:	f8cd a020 	str.w	sl, [sp, #32]
    test_hmac[1] = b;
  3c:	e9cd 350d 	strd	r3, r5, [sp, #52]	; 0x34
    test_hmac[2] = c;
  40:	4b38      	ldr	r3, [pc, #224]	; (124 <hmac_sha_test+0x124>)
    test_hmac[1] = b;
  42:	f8cd 9030 	str.w	r9, [sp, #48]	; 0x30
    test_hmac[2] = c;
  46:	e9cd 3011 	strd	r3, r0, [sp, #68]	; 0x44
    test_hmac[0] = a;
  4a:	340c      	adds	r4, #12
  4c:	e9cd 4609 	strd	r4, r6, [sp, #36]	; 0x24
    test_hmac[2] = c;
  50:	f8cd 8040 	str.w	r8, [sp, #64]	; 0x40
  54:	ad08      	add	r5, sp, #32
    for (i = 0; i < times; ++i) {
  56:	2600      	movs	r6, #0
        if ((ret = wc_HmacInit(&hmac, HEAP_HINT, devId)) != 0)
  58:	f06f 0201 	mvn.w	r2, #1
  5c:	2100      	movs	r1, #0
  5e:	a814      	add	r0, sp, #80	; 0x50
  60:	f7ff fffe 	bl	0 <wc_HmacInit>
  64:	b138      	cbz	r0, 76 <hmac_sha_test+0x76>
            return WC_TEST_RET_ENC_EC(ret);
  66:	4240      	negs	r0, r0
  68:	4b2f      	ldr	r3, [pc, #188]	; (128 <hmac_sha_test+0x128>)
  6a:	4c30      	ldr	r4, [pc, #192]	; (12c <hmac_sha_test+0x12c>)
  6c:	f3c0 000a 	ubfx	r0, r0, #0, #11
        return WC_TEST_RET_ENC_EC(ret);
  70:	fb03 4400 	mla	r4, r3, r0, r4
  74:	e033      	b.n	de <hmac_sha_test+0xde>
        ret = wc_HmacSetKey(&hmac, WC_SHA, (byte*)keys[i],
  76:	f857 4b04 	ldr.w	r4, [r7], #4
            (word32)XSTRLEN(keys[i]));
  7a:	4620      	mov	r0, r4
  7c:	f7ff fffe 	bl	0 <strlen>
        ret = wc_HmacSetKey(&hmac, WC_SHA, (byte*)keys[i],
  80:	4622      	mov	r2, r4
            (word32)XSTRLEN(keys[i]));
  82:	4603      	mov	r3, r0
        ret = wc_HmacSetKey(&hmac, WC_SHA, (byte*)keys[i],
  84:	2104      	movs	r1, #4
  86:	a814      	add	r0, sp, #80	; 0x50
  88:	f7ff fffe 	bl	0 <wc_HmacSetKey>
        if (ret != 0)
  8c:	b128      	cbz	r0, 9a <hmac_sha_test+0x9a>
            return WC_TEST_RET_ENC_EC(ret);
  8e:	4240      	negs	r0, r0
  90:	4b25      	ldr	r3, [pc, #148]	; (128 <hmac_sha_test+0x128>)
  92:	4c27      	ldr	r4, [pc, #156]	; (130 <hmac_sha_test+0x130>)
  94:	f3c0 000a 	ubfx	r0, r0, #0, #11
  98:	e7ea      	b.n	70 <hmac_sha_test+0x70>
        ret = wc_HmacUpdate(&hmac, (byte*)test_hmac[i].input,
  9a:	68aa      	ldr	r2, [r5, #8]
  9c:	6829      	ldr	r1, [r5, #0]
  9e:	a814      	add	r0, sp, #80	; 0x50
  a0:	f7ff fffe 	bl	0 <wc_HmacUpdate>
        if (ret != 0)
  a4:	b128      	cbz	r0, b2 <hmac_sha_test+0xb2>
            return WC_TEST_RET_ENC_EC(ret);
  a6:	4240      	negs	r0, r0
  a8:	4b1f      	ldr	r3, [pc, #124]	; (128 <hmac_sha_test+0x128>)
  aa:	4c22      	ldr	r4, [pc, #136]	; (134 <hmac_sha_test+0x134>)
  ac:	f3c0 000a 	ubfx	r0, r0, #0, #11
  b0:	e7de      	b.n	70 <hmac_sha_test+0x70>
        ret = wc_HmacFinal(&hmac, hash);
  b2:	a903      	add	r1, sp, #12
  b4:	a814      	add	r0, sp, #80	; 0x50
  b6:	f7ff fffe 	bl	0 <wc_HmacFinal>
        if (ret != 0)
  ba:	b128      	cbz	r0, c8 <hmac_sha_test+0xc8>
            return WC_TEST_RET_ENC_EC(ret);
  bc:	4240      	negs	r0, r0
  be:	4b1a      	ldr	r3, [pc, #104]	; (128 <hmac_sha_test+0x128>)
  c0:	4c1d      	ldr	r4, [pc, #116]	; (138 <hmac_sha_test+0x138>)
  c2:	f3c0 000a 	ubfx	r0, r0, #0, #11
  c6:	e7d3      	b.n	70 <hmac_sha_test+0x70>
        if (XMEMCMP(hash, test_hmac[i].output, WC_SHA_DIGEST_SIZE) != 0)
  c8:	6869      	ldr	r1, [r5, #4]
  ca:	2214      	movs	r2, #20
  cc:	a803      	add	r0, sp, #12
  ce:	f7ff fffe 	bl	0 <memcmp>
  d2:	4604      	mov	r4, r0
  d4:	b140      	cbz	r0, e8 <hmac_sha_test+0xe8>
            return WC_TEST_RET_ENC_I(i);
  d6:	4814      	ldr	r0, [pc, #80]	; (128 <hmac_sha_test+0x128>)
  d8:	4c18      	ldr	r4, [pc, #96]	; (13c <hmac_sha_test+0x13c>)
  da:	fb00 4406 	mla	r4, r0, r6, r4
}
  de:	4620      	mov	r0, r4
  e0:	f50d 7d1e 	add.w	sp, sp, #632	; 0x278
  e4:	e8bd 87f0 	ldmia.w	sp!, {r4, r5, r6, r7, r8, r9, sl, pc}
        wc_HmacFree(&hmac);
  e8:	a814      	add	r0, sp, #80	; 0x50
    for (i = 0; i < times; ++i) {
  ea:	3601      	adds	r6, #1
        wc_HmacFree(&hmac);
  ec:	f7ff fffe 	bl	0 <wc_HmacFree>
    for (i = 0; i < times; ++i) {
  f0:	2e03      	cmp	r6, #3
  f2:	f105 0510 	add.w	r5, r5, #16
  f6:	d1af      	bne.n	58 <hmac_sha_test+0x58>
    if ((ret = wc_HmacSizeByType(WC_SHA)) != WC_SHA_DIGEST_SIZE)
  f8:	2004      	movs	r0, #4
  fa:	f7ff fffe 	bl	0 <wc_HmacSizeByType>
  fe:	2814      	cmp	r0, #20
 100:	d0ed      	beq.n	de <hmac_sha_test+0xde>
        return WC_TEST_RET_ENC_EC(ret);
 102:	4240      	negs	r0, r0
 104:	4b08      	ldr	r3, [pc, #32]	; (128 <hmac_sha_test+0x128>)
 106:	4c0e      	ldr	r4, [pc, #56]	; (140 <hmac_sha_test+0x140>)
 108:	f3c0 000a 	ubfx	r0, r0, #0, #11
 10c:	e7b0      	b.n	70 <hmac_sha_test+0x70>
 10e:	bf00      	nop
 110:	000000c4 	.word	0x000000c4
 114:	00000000 	.word	0x00000000
 118:	00000009 	.word	0x00000009
 11c:	00000026 	.word	0x00000026
 120:	00000059 	.word	0x00000059
 124:	0000006e 	.word	0x0000006e
 128:	fffe7960 	.word	0xfffe7960
 12c:	dfffea6b 	.word	0xdfffea6b
 130:	dfffea66 	.word	0xdfffea66
 134:	dfffea62 	.word	0xdfffea62
 138:	dfffea5f 	.word	0xdfffea5f
 13c:	9fffea5c 	.word	0x9fffea5c
 140:	dfffea55 	.word	0xdfffea55

Disassembly of section .text.hmac_sha256_test:

00000000 <hmac_sha256_test>:
{
   0:	e92d 47f0 	stmdb	sp!, {r4, r5, r6, r7, r8, r9, sl, lr}
    const char* keys[]=
   4:	4d4a      	ldr	r5, [pc, #296]	; (130 <hmac_sha256_test+0x130>)
    a.inLen  = XSTRLEN(a.input);
   6:	f8df a12c 	ldr.w	sl, [pc, #300]	; 134 <hmac_sha256_test+0x134>
    b.inLen  = XSTRLEN(b.input);
   a:	f8df 912c 	ldr.w	r9, [pc, #300]	; 138 <hmac_sha256_test+0x138>
    c.inLen  = XSTRLEN(c.input);
   e:	f8df 812c 	ldr.w	r8, [pc, #300]	; 13c <hmac_sha256_test+0x13c>
    const char* keys[]=
  12:	e895 000f 	ldmia.w	r5, {r0, r1, r2, r3}
{
  16:	f5ad 7d26 	sub.w	sp, sp, #664	; 0x298
    const char* keys[]=
  1a:	466c      	mov	r4, sp
  1c:	e884 000f 	stmia.w	r4, {r0, r1, r2, r3}
    a.inLen  = XSTRLEN(a.input);
  20:	4650      	mov	r0, sl
  22:	f7ff fffe 	bl	0 <strlen>
  26:	4607      	mov	r7, r0
    b.inLen  = XSTRLEN(b.input);
  28:	4648      	mov	r0, r9
  2a:	f7ff fffe 	bl	0 <strlen>
  2e:	4606      	mov	r6, r0
    c.inLen  = XSTRLEN(c.input);
  30:	4640      	mov	r0, r8
  32:	f7ff fffe 	bl	0 <strlen>
    test_hmac[0] = a;
  36:	f105 0310 	add.w	r3, r5, #16
  3a:	e9cd 370d 	strd	r3, r7, [sp, #52]	; 0x34
    test_hmac[2] = c;
  3e:	4b40      	ldr	r3, [pc, #256]	; (140 <hmac_sha256_test+0x140>)
    test_hmac[0] = a;
  40:	f8cd a030 	str.w	sl, [sp, #48]	; 0x30
    test_hmac[1] = b;
  44:	3531      	adds	r5, #49	; 0x31
    test_hmac[2] = c;
  46:	e9cd 3015 	strd	r3, r0, [sp, #84]	; 0x54
    test_hmac[3] = d;
  4a:	4b3e      	ldr	r3, [pc, #248]	; (144 <hmac_sha256_test+0x144>)
    test_hmac[1] = b;
  4c:	f8cd 9040 	str.w	r9, [sp, #64]	; 0x40
  50:	e9cd 5611 	strd	r5, r6, [sp, #68]	; 0x44
    test_hmac[3] = d;
  54:	2500      	movs	r5, #0
  56:	e9cd 3519 	strd	r3, r5, [sp, #100]	; 0x64
    test_hmac[2] = c;
  5a:	f8cd 8050 	str.w	r8, [sp, #80]	; 0x50
    test_hmac[3] = d;
  5e:	9518      	str	r5, [sp, #96]	; 0x60
  60:	ae0c      	add	r6, sp, #48	; 0x30
  62:	4627      	mov	r7, r4
        if (wc_HmacInit(&hmac, HEAP_HINT, devId) != 0)
  64:	f06f 0201 	mvn.w	r2, #1
  68:	2100      	movs	r1, #0
  6a:	a81c      	add	r0, sp, #112	; 0x70
  6c:	f7ff fffe 	bl	0 <wc_HmacInit>
  70:	b140      	cbz	r0, 84 <hmac_sha256_test+0x84>
            return WC_TEST_RET_ENC_I(i);
  72:	4835      	ldr	r0, [pc, #212]	; (148 <hmac_sha256_test+0x148>)
  74:	4c35      	ldr	r4, [pc, #212]	; (14c <hmac_sha256_test+0x14c>)
            return WC_TEST_RET_ENC_I(i);
  76:	fb00 4405 	mla	r4, r0, r5, r4
}
  7a:	4620      	mov	r0, r4
  7c:	f50d 7d26 	add.w	sp, sp, #664	; 0x298
  80:	e8bd 87f0 	ldmia.w	sp!, {r4, r5, r6, r7, r8, r9, sl, pc}
        ret = wc_HmacSetKey(&hmac, WC_SHA256, (byte*)keys[i],
  84:	f857 4b04 	ldr.w	r4, [r7], #4
            (word32)XSTRLEN(keys[i]));
  88:	4620      	mov	r0, r4
  8a:	f7ff fffe 	bl	0 <strlen>
        ret = wc_HmacSetKey(&hmac, WC_SHA256, (byte*)keys[i],
  8e:	4622      	mov	r2, r4
            (word32)XSTRLEN(keys[i]));
  90:	4603      	mov	r3, r0
        ret = wc_HmacSetKey(&hmac, WC_SHA256, (byte*)keys[i],
  92:	2106      	movs	r1, #6
  94:	a81c      	add	r0, sp, #112	; 0x70
  96:	f7ff fffe 	bl	0 <wc_HmacSetKey>
        if (ret != 0)
  9a:	b110      	cbz	r0, a2 <hmac_sha256_test+0xa2>
            return WC_TEST_RET_ENC_I(i);
  9c:	482a      	ldr	r0, [pc, #168]	; (148 <hmac_sha256_test+0x148>)
  9e:	4c2c      	ldr	r4, [pc, #176]	; (150 <hmac_sha256_test+0x150>)
  a0:	e7e9      	b.n	76 <hmac_sha256_test+0x76>
        if (test_hmac[i].input != NULL) {
  a2:	6831      	ldr	r1, [r6, #0]
  a4:	b139      	cbz	r1, b6 <hmac_sha256_test+0xb6>
            ret = wc_HmacUpdate(&hmac, (byte*)test_hmac[i].input,
  a6:	68b2      	ldr	r2, [r6, #8]
  a8:	a81c      	add	r0, sp, #112	; 0x70
  aa:	f7ff fffe 	bl	0 <wc_HmacUpdate>
            if (ret != 0)
  ae:	b110      	cbz	r0, b6 <hmac_sha256_test+0xb6>
                return WC_TEST_RET_ENC_I(i);
  b0:	4825      	ldr	r0, [pc, #148]	; (148 <hmac_sha256_test+0x148>)
  b2:	4c28      	ldr	r4, [pc, #160]	; (154 <hmac_sha256_test+0x154>)
  b4:	e7df      	b.n	76 <hmac_sha256_test+0x76>
        ret = wc_HmacFinal(&hmac, hash);
  b6:	a904      	add	r1, sp, #16
  b8:	a81c      	add	r0, sp, #112	; 0x70
  ba:	f7ff fffe 	bl	0 <wc_HmacFinal>
        if (ret != 0)
  be:	b110      	cbz	r0, c6 <hmac_sha256_test+0xc6>
            return WC_TEST_RET_ENC_I(i);
  c0:	4821      	ldr	r0, [pc, #132]	; (148 <hmac_sha256_test+0x148>)
  c2:	4c25      	ldr	r4, [pc, #148]	; (158 <hmac_sha256_test+0x158>)
  c4:	e7d7      	b.n	76 <hmac_sha256_test+0x76>
        if (XMEMCMP(hash, test_hmac[i].output, WC_SHA256_DIGEST_SIZE) != 0)
  c6:	6871      	ldr	r1, [r6, #4]
  c8:	2220      	movs	r2, #32
  ca:	a804      	add	r0, sp, #16
  cc:	f7ff fffe 	bl	0 <memcmp>
  d0:	4604      	mov	r4, r0
  d2:	b110      	cbz	r0, da <hmac_sha256_test+0xda>
            return WC_TEST_RET_ENC_I(i);
  d4:	481c      	ldr	r0, [pc, #112]	; (148 <hmac_sha256_test+0x148>)
  d6:	4c21      	ldr	r4, [pc, #132]	; (15c <hmac_sha256_test+0x15c>)
  d8:	e7cd      	b.n	76 <hmac_sha256_test+0x76>
        wc_HmacFree(&hmac);
  da:	a81c      	add	r0, sp, #112	; 0x70
    for (i = 0; i < times; ++i) {
  dc:	3501      	adds	r5, #1
        wc_HmacFree(&hmac);
  de:	f7ff fffe 	bl	0 <wc_HmacFree>
    for (i = 0; i < times; ++i) {
  e2:	2d04      	cmp	r5, #4
  e4:	f106 0610 	add.w	r6, r6, #16
  e8:	d1bc      	bne.n	64 <hmac_sha256_test+0x64>
    if ((ret = wc_HmacSizeByType(WC_SHA256)) != WC_SHA256_DIGEST_SIZE)
  ea:	2006      	movs	r0, #6
  ec:	f7ff fffe 	bl	0 <wc_HmacSizeByType>
  f0:	2820      	cmp	r0, #32
  f2:	d007      	beq.n	104 <hmac_sha256_test+0x104>
        return WC_TEST_RET_ENC_EC(ret);
  f4:	4240      	negs	r0, r0
  f6:	4b14      	ldr	r3, [pc, #80]	; (148 <hmac_sha256_test+0x148>)
  f8:	4c19      	ldr	r4, [pc, #100]	; (160 <hmac_sha256_test+0x160>)
  fa:	f3c0 000a 	ubfx	r0, r0, #0, #11
        return WC_TEST_RET_ENC_EC(ret);
  fe:	fb03 4400 	mla	r4, r3, r0, r4
 102:	e7ba      	b.n	7a <hmac_sha256_test+0x7a>
    if ((ret = wc_HmacSizeByType(21)) != BAD_FUNC_ARG)
 104:	2015      	movs	r0, #21
 106:	f7ff fffe 	bl	0 <wc_HmacSizeByType>
 10a:	f110 0fad 	cmn.w	r0, #173	; 0xad
 10e:	d005      	beq.n	11c <hmac_sha256_test+0x11c>
        return WC_TEST_RET_ENC_EC(ret);
 110:	4240      	negs	r0, r0
 112:	4b0d      	ldr	r3, [pc, #52]	; (148 <hmac_sha256_test+0x148>)
 114:	4c13      	ldr	r4, [pc, #76]	; (164 <hmac_sha256_test+0x164>)
 116:	f3c0 000a 	ubfx	r0, r0, #0, #11
 11a:	e7f0      	b.n	fe <hmac_sha256_test+0xfe>
    if ((ret = wolfSSL_GetHmacMaxSize()) != WC_MAX_DIGEST_SIZE)
 11c:	f7ff fffe 	bl	0 <wolfSSL_GetHmacMaxSize>
 120:	2840      	cmp	r0, #64	; 0x40
 122:	d0aa      	beq.n	7a <hmac_sha256_test+0x7a>
        return WC_TEST_RET_ENC_EC(ret);
 124:	4240      	negs	r0, r0
 126:	4b08      	ldr	r3, [pc, #32]	; (148 <hmac_sha256_test+0x148>)
 128:	4c0f      	ldr	r4, [pc, #60]	; (168 <hmac_sha256_test+0x168>)
 12a:	f3c0 000a 	ubfx	r0, r0, #0, #11
 12e:	e7e6      	b.n	fe <hmac_sha256_test+0xfe>
 130:	000000e8 	.word	0x000000e8
 134:	00000000 	.word	0x00000000
 138:	00000009 	.word	0x00000009
 13c:	00000026 	.word	0x00000026
 140:	00000000 	.word	0x00000000
 144:	00000021 	.word	0x00000021
 148:	fffe7960 	.word	0xfffe7960
 14c:	9fffe9a8 	.word	0x9fffe9a8
 150:	9fffe9a3 	.word	0x9fffe9a3
 154:	9fffe99e 	.word	0x9fffe99e
 158:	9fffe99a 	.word	0x9fffe99a
 15c:	9fffe997 	.word	0x9fffe997
 160:	dfffe990 	.word	0xdfffe990
 164:	dfffe98e 	.word	0xdfffe98e
 168:	dfffe98b 	.word	0xdfffe98b

Disassembly of section .text.hmac_sha512_test:

00000000 <hmac_sha512_test>:
{
   0:	e92d 4ff0 	stmdb	sp!, {r4, r5, r6, r7, r8, r9, sl, fp, lr}
    const char* keys[]=
   4:	4b47      	ldr	r3, [pc, #284]	; (124 <hmac_sha512_test+0x124>)
    a.inLen  = XSTRLEN(a.input);
   6:	f8df b120 	ldr.w	fp, [pc, #288]	; 128 <hmac_sha512_test+0x128>
    b.inLen  = XSTRLEN(b.input);
   a:	f8df a120 	ldr.w	sl, [pc, #288]	; 12c <hmac_sha512_test+0x12c>
    c.inLen  = XSTRLEN(c.input);
   e:	f8df 9120 	ldr.w	r9, [pc, #288]	; 130 <hmac_sha512_test+0x130>
    d.inLen  = XSTRLEN(d.input);
  12:	f8df 8120 	ldr.w	r8, [pc, #288]	; 134 <hmac_sha512_test+0x134>
    const char* keys[]=
  16:	cb0f      	ldmia	r3, {r0, r1, r2, r3}
{
  18:	f5ad 7d2f 	sub.w	sp, sp, #700	; 0x2bc
    const char* keys[]=
  1c:	466e      	mov	r6, sp
  1e:	e886 000f 	stmia.w	r6, {r0, r1, r2, r3}
    a.inLen  = XSTRLEN(a.input);
  22:	4658      	mov	r0, fp
  24:	f7ff fffe 	bl	0 <strlen>
  28:	4607      	mov	r7, r0
    b.inLen  = XSTRLEN(b.input);
  2a:	4650      	mov	r0, sl
  2c:	f7ff fffe 	bl	0 <strlen>
  30:	4605      	mov	r5, r0
    c.inLen  = XSTRLEN(c.input);
  32:	4648      	mov	r0, r9
  34:	f7ff fffe 	bl	0 <strlen>
  38:	4604      	mov	r4, r0
    d.inLen  = XSTRLEN(d.input);
  3a:	4640      	mov	r0, r8
  3c:	f7ff fffe 	bl	0 <strlen>
    test_hmac[0] = a;
  40:	4b3d      	ldr	r3, [pc, #244]	; (138 <hmac_sha512_test+0x138>)
  42:	f8cd b050 	str.w	fp, [sp, #80]	; 0x50
  46:	e9cd 3715 	strd	r3, r7, [sp, #84]	; 0x54
    test_hmac[1] = b;
  4a:	4b3c      	ldr	r3, [pc, #240]	; (13c <hmac_sha512_test+0x13c>)
  4c:	f8cd a060 	str.w	sl, [sp, #96]	; 0x60
  50:	e9cd 3519 	strd	r3, r5, [sp, #100]	; 0x64
    test_hmac[2] = c;
  54:	4b3a      	ldr	r3, [pc, #232]	; (140 <hmac_sha512_test+0x140>)
  56:	f8cd 9070 	str.w	r9, [sp, #112]	; 0x70
  5a:	e9cd 341d 	strd	r3, r4, [sp, #116]	; 0x74
    test_hmac[3] = d;
  5e:	4b39      	ldr	r3, [pc, #228]	; (144 <hmac_sha512_test+0x144>)
  60:	f8cd 8080 	str.w	r8, [sp, #128]	; 0x80
  64:	e9cd 3021 	strd	r3, r0, [sp, #132]	; 0x84
    for (i = 0; i < times; ++i) {
  68:	ad14      	add	r5, sp, #80	; 0x50
  6a:	2700      	movs	r7, #0
        if ((ret = wc_HmacInit(&hmac, HEAP_HINT, devId)) != 0)
  6c:	f06f 0201 	mvn.w	r2, #1
  70:	2100      	movs	r1, #0
  72:	a824      	add	r0, sp, #144	; 0x90
  74:	f7ff fffe 	bl	0 <wc_HmacInit>
  78:	b138      	cbz	r0, 8a <hmac_sha512_test+0x8a>
            return WC_TEST_RET_ENC_EC(ret);
  7a:	4240      	negs	r0, r0
  7c:	4b32      	ldr	r3, [pc, #200]	; (148 <hmac_sha512_test+0x148>)
  7e:	4c33      	ldr	r4, [pc, #204]	; (14c <hmac_sha512_test+0x14c>)
  80:	f3c0 000a 	ubfx	r0, r0, #0, #11
        return WC_TEST_RET_ENC_EC(ret);
  84:	fb03 4400 	mla	r4, r3, r0, r4
  88:	e033      	b.n	f2 <hmac_sha512_test+0xf2>
        ret = wc_HmacSetKey(&hmac, WC_SHA512, (byte*)keys[i],
  8a:	f856 4b04 	ldr.w	r4, [r6], #4
            (word32)XSTRLEN(keys[i]));
  8e:	4620      	mov	r0, r4
  90:	f7ff fffe 	bl	0 <strlen>
        ret = wc_HmacSetKey(&hmac, WC_SHA512, (byte*)keys[i],
  94:	4622      	mov	r2, r4
            (word32)XSTRLEN(keys[i]));
  96:	4603      	mov	r3, r0
        ret = wc_HmacSetKey(&hmac, WC_SHA512, (byte*)keys[i],
  98:	2108      	movs	r1, #8
  9a:	a824      	add	r0, sp, #144	; 0x90
  9c:	f7ff fffe 	bl	0 <wc_HmacSetKey>
        if (ret != 0)
  a0:	b128      	cbz	r0, ae <hmac_sha512_test+0xae>
            return WC_TEST_RET_ENC_EC(ret);
  a2:	4240      	negs	r0, r0
  a4:	4b28      	ldr	r3, [pc, #160]	; (148 <hmac_sha512_test+0x148>)
  a6:	4c2a      	ldr	r4, [pc, #168]	; (150 <hmac_sha512_test+0x150>)
  a8:	f3c0 000a 	ubfx	r0, r0, #0, #11
  ac:	e7ea      	b.n	84 <hmac_sha512_test+0x84>
        ret = wc_HmacUpdate(&hmac, (byte*)test_hmac[i].input,
  ae:	68aa      	ldr	r2, [r5, #8]
  b0:	6829      	ldr	r1, [r5, #0]
  b2:	a824      	add	r0, sp, #144	; 0x90
  b4:	f7ff fffe 	bl	0 <wc_HmacUpdate>
        if (ret != 0)
  b8:	b128      	cbz	r0, c6 <hmac_sha512_test+0xc6>
            return WC_TEST_RET_ENC_EC(ret);
  ba:	4240      	negs	r0, r0
  bc:	4b22      	ldr	r3, [pc, #136]	; (148 <hmac_sha512_test+0x148>)
  be:	4c25      	ldr	r4, [pc, #148]	; (154 <hmac_sha512_test+0x154>)
  c0:	f3c0 000a 	ubfx	r0, r0, #0, #11
  c4:	e7de      	b.n	84 <hmac_sha512_test+0x84>
        ret = wc_HmacFinal(&hmac, hash);
  c6:	a904      	add	r1, sp, #16
  c8:	a824      	add	r0, sp, #144	; 0x90
  ca:	f7ff fffe 	bl	0 <wc_HmacFinal>
        if (ret != 0)
  ce:	b128      	cbz	r0, dc <hmac_sha512_test+0xdc>
            return WC_TEST_RET_ENC_EC(ret);
  d0:	4240      	negs	r0, r0
  d2:	4b1d      	ldr	r3, [pc, #116]	; (148 <hmac_sha512_test+0x148>)
  d4:	4c20      	ldr	r4, [pc, #128]	; (158 <hmac_sha512_test+0x158>)
  d6:	f3c0 000a 	ubfx	r0, r0, #0, #11
  da:	e7d3      	b.n	84 <hmac_sha512_test+0x84>
        if (XMEMCMP(hash, test_hmac[i].output, WC_SHA512_DIGEST_SIZE) != 0)
  dc:	6869      	ldr	r1, [r5, #4]
  de:	2240      	movs	r2, #64	; 0x40
  e0:	a804      	add	r0, sp, #16
  e2:	f7ff fffe 	bl	0 <memcmp>
  e6:	4604      	mov	r4, r0
  e8:	b140      	cbz	r0, fc <hmac_sha512_test+0xfc>
            return WC_TEST_RET_ENC_I(i);
  ea:	4817      	ldr	r0, [pc, #92]	; (148 <hmac_sha512_test+0x148>)
  ec:	4c1b      	ldr	r4, [pc, #108]	; (15c <hmac_sha512_test+0x15c>)
  ee:	fb00 4407 	mla	r4, r0, r7, r4
}
  f2:	4620      	mov	r0, r4
  f4:	f50d 7d2f 	add.w	sp, sp, #700	; 0x2bc
  f8:	e8bd 8ff0 	ldmia.w	sp!, {r4, r5, r6, r7, r8, r9, sl, fp, pc}
        wc_HmacFree(&hmac);
  fc:	a824      	add	r0, sp, #144	; 0x90
    for (i = 0; i < times; ++i) {
  fe:	3701      	adds	r7, #1
        wc_HmacFree(&hmac);
 100:	f7ff fffe 	bl	0 <wc_HmacFree>
    for (i = 0; i < times; ++i) {
 104:	2f04      	cmp	r7, #4
 106:	f105 0510 	add.w	r5, r5, #16
 10a:	d1af      	bne.n	6c <hmac_sha512_test+0x6c>
    if ((ret = wc_HmacSizeByType(WC_SHA512)) != WC_SHA512_DIGEST_SIZE)
 10c:	2008      	movs	r0, #8
 10e:	f7ff fffe 	bl	0 <wc_HmacSizeByType>
 112:	2840      	cmp	r0, #64	; 0x40
 114:	d0ed      	beq.n	f2 <hmac_sha512_test+0xf2>
        return WC_TEST_RET_ENC_EC(ret);
 116:	4240      	negs	r0, r0
 118:	4b0b      	ldr	r3, [pc, #44]	; (148 <hmac_sha512_test+0x148>)
 11a:	4c11      	ldr	r4, [pc, #68]	; (160 <hmac_sha512_test+0x160>)
 11c:	f3c0 000a 	ubfx	r0, r0, #0, #11
 120:	e7b0      	b.n	84 <hmac_sha512_test+0x84>
 122:	bf00      	nop
 124:	0000013c 	.word	0x0000013c
 128:	00000000 	.word	0x00000000
 12c:	00000009 	.word	0x00000009
 130:	00000026 	.word	0x00000026
 134:	00000000 	.word	0x00000000
 138:	0000000e 	.word	0x0000000e
 13c:	0000004f 	.word	0x0000004f
 140:	00000090 	.word	0x00000090
 144:	000000d1 	.word	0x000000d1
 148:	fffe7960 	.word	0xfffe7960
 14c:	dfffe8c8 	.word	0xdfffe8c8
 150:	dfffe8c3 	.word	0xdfffe8c3
 154:	dfffe8bf 	.word	0xdfffe8bf
 158:	dfffe8bc 	.word	0xdfffe8bc
 15c:	9fffe8b9 	.word	0x9fffe8b9
 160:	dfffe8b2 	.word	0xdfffe8b2

Disassembly of section .text.des_test:

00000000 <des_test>:
{
   0:	b510      	push	{r4, lr}
    ret = wc_Des_SetKey(&enc, key, iv, DES_ENCRYPTION);
   2:	4c2d      	ldr	r4, [pc, #180]	; (b8 <des_test+0xb8>)
   4:	492d      	ldr	r1, [pc, #180]	; (bc <des_test+0xbc>)
{
   6:	b0d6      	sub	sp, #344	; 0x158
    ret = wc_Des_SetKey(&enc, key, iv, DES_ENCRYPTION);
   8:	2300      	movs	r3, #0
   a:	4622      	mov	r2, r4
   c:	a80e      	add	r0, sp, #56	; 0x38
   e:	f7ff fffe 	bl	0 <wc_Des_SetKey>
    if (ret != 0)
  12:	b140      	cbz	r0, 26 <des_test+0x26>
        return WC_TEST_RET_ENC_EC(ret);
  14:	4240      	negs	r0, r0
  16:	f3c0 030a 	ubfx	r3, r0, #0, #11
  1a:	4a29      	ldr	r2, [pc, #164]	; (c0 <des_test+0xc0>)
  1c:	4829      	ldr	r0, [pc, #164]	; (c4 <des_test+0xc4>)
        return WC_TEST_RET_ENC_EC(ret);
  1e:	fb02 0003 	mla	r0, r2, r3, r0
}
  22:	b056      	add	sp, #344	; 0x158
  24:	bd10      	pop	{r4, pc}
    ret = wc_Des_CbcEncrypt(&enc, cipher, vector, sizeof(vector));
  26:	4a28      	ldr	r2, [pc, #160]	; (c8 <des_test+0xc8>)
  28:	2318      	movs	r3, #24
  2a:	a908      	add	r1, sp, #32
  2c:	a80e      	add	r0, sp, #56	; 0x38
  2e:	f7ff fffe 	bl	0 <wc_Des_CbcEncrypt>
    if (ret != 0)
  32:	b128      	cbz	r0, 40 <des_test+0x40>
        return WC_TEST_RET_ENC_EC(ret);
  34:	4240      	negs	r0, r0
  36:	f3c0 030a 	ubfx	r3, r0, #0, #11
  3a:	4a21      	ldr	r2, [pc, #132]	; (c0 <des_test+0xc0>)
  3c:	4823      	ldr	r0, [pc, #140]	; (cc <des_test+0xcc>)
  3e:	e7ee      	b.n	1e <des_test+0x1e>
    ret = wc_Des_SetKey(&dec, key, iv, DES_DECRYPTION);
  40:	491e      	ldr	r1, [pc, #120]	; (bc <des_test+0xbc>)
  42:	2301      	movs	r3, #1
  44:	4622      	mov	r2, r4
  46:	a832      	add	r0, sp, #200	; 0xc8
  48:	f7ff fffe 	bl	0 <wc_Des_SetKey>
    if (ret != 0)
  4c:	b128      	cbz	r0, 5a <des_test+0x5a>
        return WC_TEST_RET_ENC_EC(ret);
  4e:	4240      	negs	r0, r0
  50:	f3c0 030a 	ubfx	r3, r0, #0, #11
  54:	4a1a      	ldr	r2, [pc, #104]	; (c0 <des_test+0xc0>)
  56:	481e      	ldr	r0, [pc, #120]	; (d0 <des_test+0xd0>)
  58:	e7e1      	b.n	1e <des_test+0x1e>
    ret = wc_Des_CbcDecrypt(&dec, plain, cipher, sizeof(cipher));
  5a:	2318      	movs	r3, #24
  5c:	aa08      	add	r2, sp, #32
  5e:	a902      	add	r1, sp, #8
  60:	a832      	add	r0, sp, #200	; 0xc8
  62:	f7ff fffe 	bl	0 <wc_Des_CbcDecrypt>
    if (ret != 0)
  66:	b128      	cbz	r0, 74 <des_test+0x74>
        return WC_TEST_RET_ENC_EC(ret);
  68:	4240      	negs	r0, r0
  6a:	f3c0 030a 	ubfx	r3, r0, #0, #11
  6e:	4a14      	ldr	r2, [pc, #80]	; (c0 <des_test+0xc0>)
  70:	4818      	ldr	r0, [pc, #96]	; (d4 <des_test+0xd4>)
  72:	e7d4      	b.n	1e <des_test+0x1e>
    if (XMEMCMP(plain, vector, sizeof(plain)))
  74:	4914      	ldr	r1, [pc, #80]	; (c8 <des_test+0xc8>)
  76:	2218      	movs	r2, #24
  78:	a802      	add	r0, sp, #8
  7a:	f7ff fffe 	bl	0 <memcmp>
  7e:	b9b0      	cbnz	r0, ae <des_test+0xae>
    if (XMEMCMP(cipher, verify, sizeof(cipher)))
  80:	4915      	ldr	r1, [pc, #84]	; (d8 <des_test+0xd8>)
  82:	2218      	movs	r2, #24
  84:	a808      	add	r0, sp, #32
  86:	f7ff fffe 	bl	0 <memcmp>
  8a:	b990      	cbnz	r0, b2 <des_test+0xb2>
    ret = wc_Des_CbcEncryptWithKey(cipher, vector, sizeof(vector), key, iv);
  8c:	4b0b      	ldr	r3, [pc, #44]	; (bc <des_test+0xbc>)
  8e:	490e      	ldr	r1, [pc, #56]	; (c8 <des_test+0xc8>)
  90:	9400      	str	r4, [sp, #0]
  92:	2218      	movs	r2, #24
  94:	a808      	add	r0, sp, #32
  96:	f7ff fffe 	bl	0 <wc_Des_CbcEncryptWithKey>
    if (ret != 0)
  9a:	2800      	cmp	r0, #0
  9c:	d0c1      	beq.n	22 <des_test+0x22>
        return WC_TEST_RET_ENC_EC(ret);
  9e:	4a08      	ldr	r2, [pc, #32]	; (c0 <des_test+0xc0>)
  a0:	4b0e      	ldr	r3, [pc, #56]	; (dc <des_test+0xdc>)
  a2:	4240      	negs	r0, r0
  a4:	f3c0 000a 	ubfx	r0, r0, #0, #11
  a8:	fb02 3000 	mla	r0, r2, r0, r3
  ac:	e7b9      	b.n	22 <des_test+0x22>
        return WC_TEST_RET_ENC_NC;
  ae:	480c      	ldr	r0, [pc, #48]	; (e0 <des_test+0xe0>)
  b0:	e7b7      	b.n	22 <des_test+0x22>
        return WC_TEST_RET_ENC_NC;
  b2:	480c      	ldr	r0, [pc, #48]	; (e4 <des_test+0xe4>)
  b4:	e7b5      	b.n	22 <des_test+0x22>
  b6:	bf00      	nop
	...
  c0:	fffe7960 	.word	0xfffe7960
  c4:	dfffe1d4 	.word	0xdfffe1d4
  c8:	00000000 	.word	0x00000000
  cc:	dfffe1d0 	.word	0xdfffe1d0
  d0:	dfffe1cc 	.word	0xdfffe1cc
  d4:	dfffe1c8 	.word	0xdfffe1c8
  d8:	00000000 	.word	0x00000000
  dc:	dfffe1be 	.word	0xdfffe1be
  e0:	ffffe1c5 	.word	0xffffe1c5
  e4:	ffffe1c2 	.word	0xffffe1c2

Disassembly of section .text.des3_test:

00000000 <des3_test>:
{
   0:	b510      	push	{r4, lr}
   2:	f5ad 7d56 	sub.w	sp, sp, #856	; 0x358
    ret = wc_Des3Init(&enc, HEAP_HINT, devId);
   6:	2100      	movs	r1, #0
   8:	f06f 0201 	mvn.w	r2, #1
   c:	a80c      	add	r0, sp, #48	; 0x30
   e:	f7ff fffe 	bl	0 <wc_Des3Init>
    if (ret != 0)
  12:	4601      	mov	r1, r0
  14:	b150      	cbz	r0, 2c <des3_test+0x2c>
        return WC_TEST_RET_ENC_EC(ret);
  16:	4241      	negs	r1, r0
  18:	4c33      	ldr	r4, [pc, #204]	; (e8 <des3_test+0xe8>)
  1a:	4834      	ldr	r0, [pc, #208]	; (ec <des3_test+0xec>)
  1c:	f3c1 010a 	ubfx	r1, r1, #0, #11
  20:	fb00 4401 	mla	r4, r0, r1, r4
}
  24:	4620      	mov	r0, r4
  26:	f50d 7d56 	add.w	sp, sp, #856	; 0x358
  2a:	bd10      	pop	{r4, pc}
    ret = wc_Des3Init(&dec, HEAP_HINT, devId);
  2c:	f06f 0201 	mvn.w	r2, #1
  30:	a871      	add	r0, sp, #452	; 0x1c4
  32:	f7ff fffe 	bl	0 <wc_Des3Init>
    if (ret != 0)
  36:	4603      	mov	r3, r0
  38:	b138      	cbz	r0, 4a <des3_test+0x4a>
        return WC_TEST_RET_ENC_EC(ret);
  3a:	4243      	negs	r3, r0
  3c:	4c2c      	ldr	r4, [pc, #176]	; (f0 <des3_test+0xf0>)
  3e:	482b      	ldr	r0, [pc, #172]	; (ec <des3_test+0xec>)
  40:	f3c3 030a 	ubfx	r3, r3, #0, #11
        return WC_TEST_RET_ENC_EC(ret);
  44:	fb03 4400 	mla	r4, r3, r0, r4
  48:	e7ec      	b.n	24 <des3_test+0x24>
    ret = wc_Des3_SetKey(&enc, key3, iv3, DES_ENCRYPTION);
  4a:	4a2a      	ldr	r2, [pc, #168]	; (f4 <des3_test+0xf4>)
  4c:	492a      	ldr	r1, [pc, #168]	; (f8 <des3_test+0xf8>)
  4e:	a80c      	add	r0, sp, #48	; 0x30
  50:	f7ff fffe 	bl	0 <wc_Des3_SetKey>
    if (ret != 0)
  54:	b128      	cbz	r0, 62 <des3_test+0x62>
        return WC_TEST_RET_ENC_EC(ret);
  56:	4240      	negs	r0, r0
  58:	4b24      	ldr	r3, [pc, #144]	; (ec <des3_test+0xec>)
  5a:	4c28      	ldr	r4, [pc, #160]	; (fc <des3_test+0xfc>)
  5c:	f3c0 000a 	ubfx	r0, r0, #0, #11
  60:	e7f0      	b.n	44 <des3_test+0x44>
    ret = wc_Des3_SetKey(&dec, key3, iv3, DES_DECRYPTION);
  62:	4a24      	ldr	r2, [pc, #144]	; (f4 <des3_test+0xf4>)
  64:	4924      	ldr	r1, [pc, #144]	; (f8 <des3_test+0xf8>)
  66:	2301      	movs	r3, #1
  68:	a871      	add	r0, sp, #452	; 0x1c4
  6a:	f7ff fffe 	bl	0 <wc_Des3_SetKey>
    if (ret != 0)
  6e:	b128      	cbz	r0, 7c <des3_test+0x7c>
        return WC_TEST_RET_ENC_EC(ret);
  70:	4240      	negs	r0, r0
  72:	4b1e      	ldr	r3, [pc, #120]	; (ec <des3_test+0xec>)
  74:	4c22      	ldr	r4, [pc, #136]	; (100 <des3_test+0x100>)
  76:	f3c0 000a 	ubfx	r0, r0, #0, #11
  7a:	e7e3      	b.n	44 <des3_test+0x44>
    ret = wc_Des3_CbcEncrypt(&enc, cipher, vector, sizeof(vector));
  7c:	2318      	movs	r3, #24
  7e:	4a21      	ldr	r2, [pc, #132]	; (104 <des3_test+0x104>)
  80:	eb0d 0103 	add.w	r1, sp, r3
  84:	a80c      	add	r0, sp, #48	; 0x30
  86:	f7ff fffe 	bl	0 <wc_Des3_CbcEncrypt>
    if (ret != 0)
  8a:	b128      	cbz	r0, 98 <des3_test+0x98>
        return WC_TEST_RET_ENC_EC(ret);
  8c:	4240      	negs	r0, r0
  8e:	4b17      	ldr	r3, [pc, #92]	; (ec <des3_test+0xec>)
  90:	4c1d      	ldr	r4, [pc, #116]	; (108 <des3_test+0x108>)
  92:	f3c0 000a 	ubfx	r0, r0, #0, #11
  96:	e7d5      	b.n	44 <des3_test+0x44>
    ret = wc_Des3_CbcDecrypt(&dec, plain, cipher, sizeof(cipher));
  98:	2318      	movs	r3, #24
  9a:	eb0d 0203 	add.w	r2, sp, r3
  9e:	4669      	mov	r1, sp
  a0:	a871      	add	r0, sp, #452	; 0x1c4
  a2:	f7ff fffe 	bl	0 <wc_Des3_CbcDecrypt>
    if (ret != 0)
  a6:	b128      	cbz	r0, b4 <des3_test+0xb4>
        return WC_TEST_RET_ENC_EC(ret);
  a8:	4240      	negs	r0, r0
  aa:	4b10      	ldr	r3, [pc, #64]	; (ec <des3_test+0xec>)
  ac:	4c17      	ldr	r4, [pc, #92]	; (10c <des3_test+0x10c>)
  ae:	f3c0 000a 	ubfx	r0, r0, #0, #11
  b2:	e7c7      	b.n	44 <des3_test+0x44>
    if (XMEMCMP(plain, vector, sizeof(plain)))
  b4:	4913      	ldr	r1, [pc, #76]	; (104 <des3_test+0x104>)
  b6:	2218      	movs	r2, #24
  b8:	4668      	mov	r0, sp
  ba:	f7ff fffe 	bl	0 <memcmp>
  be:	b970      	cbnz	r0, de <des3_test+0xde>
    if (XMEMCMP(cipher, verify3, sizeof(cipher)))
  c0:	2218      	movs	r2, #24
  c2:	4913      	ldr	r1, [pc, #76]	; (110 <des3_test+0x110>)
  c4:	eb0d 0002 	add.w	r0, sp, r2
  c8:	f7ff fffe 	bl	0 <memcmp>
  cc:	4604      	mov	r4, r0
  ce:	b940      	cbnz	r0, e2 <des3_test+0xe2>
    wc_Des3Free(&enc);
  d0:	a80c      	add	r0, sp, #48	; 0x30
  d2:	f7ff fffe 	bl	0 <wc_Des3Free>
    wc_Des3Free(&dec);
  d6:	a871      	add	r0, sp, #452	; 0x1c4
  d8:	f7ff fffe 	bl	0 <wc_Des3Free>
    return 0;
  dc:	e7a2      	b.n	24 <des3_test+0x24>
        return WC_TEST_RET_ENC_NC;
  de:	4c0d      	ldr	r4, [pc, #52]	; (114 <des3_test+0x114>)
  e0:	e7a0      	b.n	24 <des3_test+0x24>
        return WC_TEST_RET_ENC_NC;
  e2:	4c0d      	ldr	r4, [pc, #52]	; (118 <des3_test+0x118>)
  e4:	e79e      	b.n	24 <des3_test+0x24>
  e6:	bf00      	nop
  e8:	dfffe16d 	.word	0xdfffe16d
  ec:	fffe7960 	.word	0xfffe7960
  f0:	dfffe16a 	.word	0xdfffe16a
	...
  fc:	dfffe166 	.word	0xdfffe166
 100:	dfffe163 	.word	0xdfffe163
 104:	00000000 	.word	0x00000000
 108:	dfffe15d 	.word	0xdfffe15d
 10c:	dfffe157 	.word	0xdfffe157
 110:	00000000 	.word	0x00000000
 114:	ffffe154 	.word	0xffffe154
 118:	ffffe151 	.word	0xffffe151

Disassembly of section .text.aes_test:

00000000 <aes_test>:
{
   0:	e92d 4ff0 	stmdb	sp!, {r4, r5, r6, r7, r8, r9, sl, fp, lr}
    Aes *enc = (Aes *)XMALLOC(sizeof *enc, HEAP_HINT, DYNAMIC_TYPE_AES);
   4:	f44f 709c 	mov.w	r0, #312	; 0x138
{
   8:	b0bb      	sub	sp, #236	; 0xec
    Aes *enc = (Aes *)XMALLOC(sizeof *enc, HEAP_HINT, DYNAMIC_TYPE_AES);
   a:	f7ff fffe 	bl	0 <malloc>
   e:	4606      	mov	r6, r0
    Aes *dec = (Aes *)XMALLOC(sizeof *dec, HEAP_HINT, DYNAMIC_TYPE_AES);
  10:	f44f 709c 	mov.w	r0, #312	; 0x138
  14:	f7ff fffe 	bl	0 <malloc>
  18:	4605      	mov	r5, r0
    if (enc == NULL)
  1a:	2e00      	cmp	r6, #0
  1c:	f000 82d4 	beq.w	5c8 <aes_test+0x5c8>
    if (dec == NULL)
  20:	2800      	cmp	r0, #0
  22:	f000 8321 	beq.w	668 <aes_test+0x668>
    ret = wc_AesInit(enc, HEAP_HINT, devId);
  26:	f06f 0201 	mvn.w	r2, #1
  2a:	2100      	movs	r1, #0
  2c:	4630      	mov	r0, r6
  2e:	f7ff fffe 	bl	0 <wc_AesInit>
    if (ret != 0)
  32:	4607      	mov	r7, r0
  34:	b140      	cbz	r0, 48 <aes_test+0x48>
        ERROR_OUT(WC_TEST_RET_ENC_EC(ret), out);
  36:	499c      	ldr	r1, [pc, #624]	; (2a8 <aes_test+0x2a8>)
  38:	4c9c      	ldr	r4, [pc, #624]	; (2ac <aes_test+0x2ac>)
  3a:	4240      	negs	r0, r0
  3c:	f3c0 000a 	ubfx	r0, r0, #0, #11
  40:	fb01 4400 	mla	r4, r1, r0, r4
        return WC_TEST_RET_ENC_NC;
  44:	2700      	movs	r7, #0
  46:	e010      	b.n	6a <aes_test+0x6a>
    ret = wc_AesInit(dec, HEAP_HINT, devId);
  48:	4601      	mov	r1, r0
  4a:	f06f 0201 	mvn.w	r2, #1
  4e:	4628      	mov	r0, r5
  50:	f7ff fffe 	bl	0 <wc_AesInit>
    if (ret != 0)
  54:	b1c0      	cbz	r0, 88 <aes_test+0x88>
        ERROR_OUT(WC_TEST_RET_ENC_EC(ret), out);
  56:	4240      	negs	r0, r0
  58:	4993      	ldr	r1, [pc, #588]	; (2a8 <aes_test+0x2a8>)
  5a:	4c95      	ldr	r4, [pc, #596]	; (2b0 <aes_test+0x2b0>)
  5c:	f3c0 000a 	ubfx	r0, r0, #0, #11
            ERROR_OUT(WC_TEST_RET_ENC_EC(ret), out);
  60:	fb01 4400 	mla	r4, r1, r0, r4
            wc_AesFree(enc);
  64:	4630      	mov	r0, r6
  66:	f7ff fffe 	bl	0 <wc_AesFree>
        XFREE(enc, HEAP_HINT, DYNAMIC_TYPE_AES);
  6a:	4630      	mov	r0, r6
  6c:	f7ff fffe 	bl	0 <free>
    if (dec) {
  70:	b135      	cbz	r5, 80 <aes_test+0x80>
        if (dec_inited)
  72:	b117      	cbz	r7, 7a <aes_test+0x7a>
            wc_AesFree(dec);
  74:	4628      	mov	r0, r5
  76:	f7ff fffe 	bl	0 <wc_AesFree>
        XFREE(dec, HEAP_HINT, DYNAMIC_TYPE_AES);
  7a:	4628      	mov	r0, r5
  7c:	f7ff fffe 	bl	0 <free>
}
  80:	4620      	mov	r0, r4
  82:	b03b      	add	sp, #236	; 0xec
  84:	e8bd 8ff0 	ldmia.w	sp!, {r4, r5, r6, r7, r8, r9, sl, fp, pc}
    ret = wc_AesSetKey(enc, key, AES_BLOCK_SIZE, iv, AES_ENCRYPTION);
  88:	4b8a      	ldr	r3, [pc, #552]	; (2b4 <aes_test+0x2b4>)
  8a:	498b      	ldr	r1, [pc, #556]	; (2b8 <aes_test+0x2b8>)
  8c:	9700      	str	r7, [sp, #0]
  8e:	2210      	movs	r2, #16
  90:	4630      	mov	r0, r6
  92:	f7ff fffe 	bl	0 <wc_AesSetKey>
    if (ret != 0)
  96:	b138      	cbz	r0, a8 <aes_test+0xa8>
        ERROR_OUT(WC_TEST_RET_ENC_EC(ret), out);
  98:	4240      	negs	r0, r0
  9a:	4983      	ldr	r1, [pc, #524]	; (2a8 <aes_test+0x2a8>)
  9c:	4c87      	ldr	r4, [pc, #540]	; (2bc <aes_test+0x2bc>)
  9e:	f3c0 000a 	ubfx	r0, r0, #0, #11
        return WC_TEST_RET_ENC_EC(ret);
  a2:	fb01 4400 	mla	r4, r1, r0, r4
  a6:	e0fd      	b.n	2a4 <aes_test+0x2a4>
    ret = wc_AesSetKey(dec, key, AES_BLOCK_SIZE, iv, AES_DECRYPTION);
  a8:	f04f 0801 	mov.w	r8, #1
  ac:	4b81      	ldr	r3, [pc, #516]	; (2b4 <aes_test+0x2b4>)
  ae:	4982      	ldr	r1, [pc, #520]	; (2b8 <aes_test+0x2b8>)
  b0:	f8cd 8000 	str.w	r8, [sp]
  b4:	2210      	movs	r2, #16
  b6:	4628      	mov	r0, r5
  b8:	f7ff fffe 	bl	0 <wc_AesSetKey>
    if (ret != 0)
  bc:	b128      	cbz	r0, ca <aes_test+0xca>
        ERROR_OUT(WC_TEST_RET_ENC_EC(ret), out);
  be:	4240      	negs	r0, r0
  c0:	4979      	ldr	r1, [pc, #484]	; (2a8 <aes_test+0x2a8>)
  c2:	4c7f      	ldr	r4, [pc, #508]	; (2c0 <aes_test+0x2c0>)
  c4:	f3c0 000a 	ubfx	r0, r0, #0, #11
  c8:	e7eb      	b.n	a2 <aes_test+0xa2>
    XMEMSET(cipher, 0, AES_BLOCK_SIZE * 4);
  ca:	2240      	movs	r2, #64	; 0x40
  cc:	4639      	mov	r1, r7
  ce:	a81a      	add	r0, sp, #104	; 0x68
  d0:	f7ff fffe 	bl	0 <memset>
    ret = wc_AesCbcEncrypt(enc, cipher, msg, AES_BLOCK_SIZE);
  d4:	4a7b      	ldr	r2, [pc, #492]	; (2c4 <aes_test+0x2c4>)
  d6:	2310      	movs	r3, #16
  d8:	a91a      	add	r1, sp, #104	; 0x68
  da:	4630      	mov	r0, r6
  dc:	f7ff fffe 	bl	0 <wc_AesCbcEncrypt>
    if (ret != 0)
  e0:	b128      	cbz	r0, ee <aes_test+0xee>
        ERROR_OUT(WC_TEST_RET_ENC_EC(ret), out);
  e2:	4240      	negs	r0, r0
  e4:	4970      	ldr	r1, [pc, #448]	; (2a8 <aes_test+0x2a8>)
  e6:	4c78      	ldr	r4, [pc, #480]	; (2c8 <aes_test+0x2c8>)
  e8:	f3c0 000a 	ubfx	r0, r0, #0, #11
  ec:	e7d9      	b.n	a2 <aes_test+0xa2>
    XMEMSET(plain, 0, AES_BLOCK_SIZE * 4);
  ee:	2240      	movs	r2, #64	; 0x40
  f0:	4639      	mov	r1, r7
  f2:	a82a      	add	r0, sp, #168	; 0xa8
  f4:	f7ff fffe 	bl	0 <memset>
    ret = wc_AesCbcDecrypt(dec, plain, cipher, AES_BLOCK_SIZE);
  f8:	2310      	movs	r3, #16
  fa:	aa1a      	add	r2, sp, #104	; 0x68
  fc:	a92a      	add	r1, sp, #168	; 0xa8
  fe:	4628      	mov	r0, r5
 100:	f7ff fffe 	bl	0 <wc_AesCbcDecrypt>
    if (ret != 0)
 104:	b128      	cbz	r0, 112 <aes_test+0x112>
        ERROR_OUT(WC_TEST_RET_ENC_EC(ret), out);
 106:	4240      	negs	r0, r0
 108:	4967      	ldr	r1, [pc, #412]	; (2a8 <aes_test+0x2a8>)
 10a:	4c70      	ldr	r4, [pc, #448]	; (2cc <aes_test+0x2cc>)
 10c:	f3c0 000a 	ubfx	r0, r0, #0, #11
 110:	e7c7      	b.n	a2 <aes_test+0xa2>
    if (XMEMCMP(plain, msg, AES_BLOCK_SIZE))
 112:	496c      	ldr	r1, [pc, #432]	; (2c4 <aes_test+0x2c4>)
 114:	2210      	movs	r2, #16
 116:	a82a      	add	r0, sp, #168	; 0xa8
 118:	f7ff fffe 	bl	0 <memcmp>
 11c:	2800      	cmp	r0, #0
 11e:	f040 8258 	bne.w	5d2 <aes_test+0x5d2>
    if (XMEMCMP(cipher, verify, AES_BLOCK_SIZE))
 122:	496b      	ldr	r1, [pc, #428]	; (2d0 <aes_test+0x2d0>)
 124:	2210      	movs	r2, #16
 126:	a81a      	add	r0, sp, #104	; 0x68
 128:	f7ff fffe 	bl	0 <memcmp>
 12c:	2800      	cmp	r0, #0
 12e:	f040 8252 	bne.w	5d6 <aes_test+0x5d6>
        ret = wc_AesSetKey(enc, key2, sizeof(key2), iv2, AES_ENCRYPTION);
 132:	2300      	movs	r3, #0
 134:	4967      	ldr	r1, [pc, #412]	; (2d4 <aes_test+0x2d4>)
 136:	9300      	str	r3, [sp, #0]
 138:	2210      	movs	r2, #16
 13a:	4b67      	ldr	r3, [pc, #412]	; (2d8 <aes_test+0x2d8>)
 13c:	4630      	mov	r0, r6
 13e:	f7ff fffe 	bl	0 <wc_AesSetKey>
        if (ret != 0)
 142:	4601      	mov	r1, r0
 144:	b128      	cbz	r0, 152 <aes_test+0x152>
            ERROR_OUT(WC_TEST_RET_ENC_EC(ret), out);
 146:	4241      	negs	r1, r0
 148:	f3c1 000a 	ubfx	r0, r1, #0, #11
 14c:	4c63      	ldr	r4, [pc, #396]	; (2dc <aes_test+0x2dc>)
 14e:	4956      	ldr	r1, [pc, #344]	; (2a8 <aes_test+0x2a8>)
 150:	e7a7      	b.n	a2 <aes_test+0xa2>
        XMEMSET(cipher, 0, AES_BLOCK_SIZE * 2);
 152:	2220      	movs	r2, #32
 154:	a81a      	add	r0, sp, #104	; 0x68
 156:	f7ff fffe 	bl	0 <memset>
        ret = wc_AesCbcEncrypt(enc, cipher, msg2, AES_BLOCK_SIZE);
 15a:	4a61      	ldr	r2, [pc, #388]	; (2e0 <aes_test+0x2e0>)
 15c:	2310      	movs	r3, #16
 15e:	a91a      	add	r1, sp, #104	; 0x68
 160:	4630      	mov	r0, r6
 162:	f7ff fffe 	bl	0 <wc_AesCbcEncrypt>
        if (ret != 0)
 166:	b128      	cbz	r0, 174 <aes_test+0x174>
            ERROR_OUT(WC_TEST_RET_ENC_EC(ret), out);
 168:	4240      	negs	r0, r0
 16a:	494f      	ldr	r1, [pc, #316]	; (2a8 <aes_test+0x2a8>)
 16c:	4c5d      	ldr	r4, [pc, #372]	; (2e4 <aes_test+0x2e4>)
 16e:	f3c0 000a 	ubfx	r0, r0, #0, #11
 172:	e796      	b.n	a2 <aes_test+0xa2>
        if (XMEMCMP(cipher, verify2, AES_BLOCK_SIZE))
 174:	495c      	ldr	r1, [pc, #368]	; (2e8 <aes_test+0x2e8>)
 176:	2210      	movs	r2, #16
 178:	a81a      	add	r0, sp, #104	; 0x68
 17a:	f7ff fffe 	bl	0 <memcmp>
 17e:	2800      	cmp	r0, #0
 180:	f040 822b 	bne.w	5da <aes_test+0x5da>
        ret = wc_AesCbcEncrypt(enc, cipher + AES_BLOCK_SIZE,
 184:	4a59      	ldr	r2, [pc, #356]	; (2ec <aes_test+0x2ec>)
 186:	2310      	movs	r3, #16
 188:	a91e      	add	r1, sp, #120	; 0x78
 18a:	4630      	mov	r0, r6
 18c:	f7ff fffe 	bl	0 <wc_AesCbcEncrypt>
        if (ret != 0)
 190:	b128      	cbz	r0, 19e <aes_test+0x19e>
            ERROR_OUT(WC_TEST_RET_ENC_EC(ret), out);
 192:	4240      	negs	r0, r0
 194:	4944      	ldr	r1, [pc, #272]	; (2a8 <aes_test+0x2a8>)
 196:	4c56      	ldr	r4, [pc, #344]	; (2f0 <aes_test+0x2f0>)
 198:	f3c0 000a 	ubfx	r0, r0, #0, #11
 19c:	e781      	b.n	a2 <aes_test+0xa2>
        if (XMEMCMP(cipher + AES_BLOCK_SIZE, verify2 + AES_BLOCK_SIZE,
 19e:	4955      	ldr	r1, [pc, #340]	; (2f4 <aes_test+0x2f4>)
 1a0:	2210      	movs	r2, #16
 1a2:	a81e      	add	r0, sp, #120	; 0x78
 1a4:	f7ff fffe 	bl	0 <memcmp>
 1a8:	2701      	movs	r7, #1
 1aa:	2800      	cmp	r0, #0
 1ac:	f040 8217 	bne.w	5de <aes_test+0x5de>
        ret = wc_AesSetKey(dec, key2, sizeof(key2), iv2, AES_DECRYPTION);
 1b0:	4948      	ldr	r1, [pc, #288]	; (2d4 <aes_test+0x2d4>)
 1b2:	4b49      	ldr	r3, [pc, #292]	; (2d8 <aes_test+0x2d8>)
 1b4:	9700      	str	r7, [sp, #0]
 1b6:	2210      	movs	r2, #16
 1b8:	4628      	mov	r0, r5
 1ba:	f7ff fffe 	bl	0 <wc_AesSetKey>
        if (ret != 0)
 1be:	4601      	mov	r1, r0
 1c0:	b128      	cbz	r0, 1ce <aes_test+0x1ce>
            ERROR_OUT(WC_TEST_RET_ENC_EC(ret), out);
 1c2:	4241      	negs	r1, r0
 1c4:	f3c1 000a 	ubfx	r0, r1, #0, #11
 1c8:	4c4b      	ldr	r4, [pc, #300]	; (2f8 <aes_test+0x2f8>)
 1ca:	4937      	ldr	r1, [pc, #220]	; (2a8 <aes_test+0x2a8>)
 1cc:	e748      	b.n	60 <aes_test+0x60>
        XMEMSET(plain, 0, AES_BLOCK_SIZE * 2);
 1ce:	2220      	movs	r2, #32
 1d0:	a82a      	add	r0, sp, #168	; 0xa8
 1d2:	f7ff fffe 	bl	0 <memset>
        ret = wc_AesCbcDecrypt(dec, plain, verify2, AES_BLOCK_SIZE);
 1d6:	4a44      	ldr	r2, [pc, #272]	; (2e8 <aes_test+0x2e8>)
 1d8:	2310      	movs	r3, #16
 1da:	a92a      	add	r1, sp, #168	; 0xa8
 1dc:	4628      	mov	r0, r5
 1de:	f7ff fffe 	bl	0 <wc_AesCbcDecrypt>
        if (ret != 0)
 1e2:	b128      	cbz	r0, 1f0 <aes_test+0x1f0>
            ERROR_OUT(WC_TEST_RET_ENC_EC(ret), out);
 1e4:	4240      	negs	r0, r0
 1e6:	4930      	ldr	r1, [pc, #192]	; (2a8 <aes_test+0x2a8>)
 1e8:	4c44      	ldr	r4, [pc, #272]	; (2fc <aes_test+0x2fc>)
 1ea:	f3c0 000a 	ubfx	r0, r0, #0, #11
 1ee:	e737      	b.n	60 <aes_test+0x60>
        if (XMEMCMP(plain, msg2, AES_BLOCK_SIZE))
 1f0:	493b      	ldr	r1, [pc, #236]	; (2e0 <aes_test+0x2e0>)
 1f2:	2210      	movs	r2, #16
 1f4:	a82a      	add	r0, sp, #168	; 0xa8
 1f6:	f7ff fffe 	bl	0 <memcmp>
 1fa:	2800      	cmp	r0, #0
 1fc:	f040 81f1 	bne.w	5e2 <aes_test+0x5e2>
        ret = wc_AesCbcDecrypt(dec, plain + AES_BLOCK_SIZE,
 200:	4a3c      	ldr	r2, [pc, #240]	; (2f4 <aes_test+0x2f4>)
 202:	2310      	movs	r3, #16
 204:	a92e      	add	r1, sp, #184	; 0xb8
 206:	4628      	mov	r0, r5
 208:	f7ff fffe 	bl	0 <wc_AesCbcDecrypt>
        if (ret != 0)
 20c:	b128      	cbz	r0, 21a <aes_test+0x21a>
            ERROR_OUT(WC_TEST_RET_ENC_EC(ret), out);
 20e:	4240      	negs	r0, r0
 210:	4925      	ldr	r1, [pc, #148]	; (2a8 <aes_test+0x2a8>)
 212:	4c3b      	ldr	r4, [pc, #236]	; (300 <aes_test+0x300>)
 214:	f3c0 000a 	ubfx	r0, r0, #0, #11
 218:	e722      	b.n	60 <aes_test+0x60>
        if (XMEMCMP(plain + AES_BLOCK_SIZE, msg2 + AES_BLOCK_SIZE,
 21a:	4934      	ldr	r1, [pc, #208]	; (2ec <aes_test+0x2ec>)
 21c:	2210      	movs	r2, #16
 21e:	a82e      	add	r0, sp, #184	; 0xb8
 220:	f7ff fffe 	bl	0 <memcmp>
 224:	2800      	cmp	r0, #0
 226:	f040 81de 	bne.w	5e6 <aes_test+0x5e6>
    byte   key16[] = { 0x30, 0x31, 0x32, 0x33, 0x34, 0x35, 0x36, 0x37,
 22a:	4b36      	ldr	r3, [pc, #216]	; (304 <aes_test+0x304>)
 22c:	aa03      	add	r2, sp, #12
 22e:	f103 0710 	add.w	r7, r3, #16
 232:	4690      	mov	r8, r2
 234:	6818      	ldr	r0, [r3, #0]
 236:	6859      	ldr	r1, [r3, #4]
 238:	4614      	mov	r4, r2
 23a:	c403      	stmia	r4!, {r0, r1}
 23c:	3308      	adds	r3, #8
 23e:	42bb      	cmp	r3, r7
 240:	4622      	mov	r2, r4
 242:	d1f7      	bne.n	234 <aes_test+0x234>
    byte   key24[] = { 0x30, 0x31, 0x32, 0x33, 0x34, 0x35, 0x36, 0x37,
 244:	4b30      	ldr	r3, [pc, #192]	; (308 <aes_test+0x308>)
 246:	aa0c      	add	r2, sp, #48	; 0x30
 248:	f103 0718 	add.w	r7, r3, #24
 24c:	4691      	mov	r9, r2
 24e:	6818      	ldr	r0, [r3, #0]
 250:	6859      	ldr	r1, [r3, #4]
 252:	4614      	mov	r4, r2
 254:	c403      	stmia	r4!, {r0, r1}
 256:	3308      	adds	r3, #8
 258:	42bb      	cmp	r3, r7
 25a:	4622      	mov	r2, r4
 25c:	d1f7      	bne.n	24e <aes_test+0x24e>
    byte   key32[] = { 0x30, 0x31, 0x32, 0x33, 0x34, 0x35, 0x36, 0x37,
 25e:	4b2b      	ldr	r3, [pc, #172]	; (30c <aes_test+0x30c>)
 260:	aa12      	add	r2, sp, #72	; 0x48
 262:	f103 0720 	add.w	r7, r3, #32
 266:	4692      	mov	sl, r2
 268:	6818      	ldr	r0, [r3, #0]
 26a:	6859      	ldr	r1, [r3, #4]
 26c:	4614      	mov	r4, r2
 26e:	c403      	stmia	r4!, {r0, r1}
 270:	3308      	adds	r3, #8
 272:	42bb      	cmp	r3, r7
 274:	4622      	mov	r2, r4
 276:	d1f7      	bne.n	268 <aes_test+0x268>
    byte   iv[]    = "1234567890abcdef";
 278:	4b25      	ldr	r3, [pc, #148]	; (310 <aes_test+0x310>)
 27a:	aa07      	add	r2, sp, #28
 27c:	f103 0710 	add.w	r7, r3, #16
 280:	4693      	mov	fp, r2
 282:	6818      	ldr	r0, [r3, #0]
 284:	6859      	ldr	r1, [r3, #4]
 286:	4614      	mov	r4, r2
 288:	c403      	stmia	r4!, {r0, r1}
 28a:	3308      	adds	r3, #8
 28c:	42bb      	cmp	r3, r7
 28e:	4622      	mov	r2, r4
 290:	d1f7      	bne.n	282 <aes_test+0x282>
 292:	781b      	ldrb	r3, [r3, #0]
 294:	7023      	strb	r3, [r4, #0]
    if ((aes = (Aes *)XMALLOC(sizeof *aes, HEAP_HINT, DYNAMIC_TYPE_AES)) == NULL)
 296:	f44f 709c 	mov.w	r0, #312	; 0x138
 29a:	f7ff fffe 	bl	0 <malloc>
 29e:	4607      	mov	r7, r0
 2a0:	bbd0      	cbnz	r0, 318 <aes_test+0x318>
        return WC_TEST_RET_ENC_ERRNO;
 2a2:	4c1c      	ldr	r4, [pc, #112]	; (314 <aes_test+0x314>)
    dec_inited = 1;
 2a4:	2701      	movs	r7, #1
 2a6:	e6dd      	b.n	64 <aes_test+0x64>
 2a8:	fffe7960 	.word	0xfffe7960
 2ac:	dfffd4d1 	.word	0xdfffd4d1
 2b0:	dfffd4cc 	.word	0xdfffd4cc
	...
 2bc:	dfffd4c6 	.word	0xdfffd4c6
 2c0:	dfffd4c2 	.word	0xdfffd4c2
 2c4:	00000000 	.word	0x00000000
 2c8:	dfffd4b9 	.word	0xdfffd4b9
 2cc:	dfffd4b1 	.word	0xdfffd4b1
	...
 2dc:	dfffd405 	.word	0xdfffd405
 2e0:	00000000 	.word	0x00000000
 2e4:	dfffd3fe 	.word	0xdfffd3fe
 2e8:	00000000 	.word	0x00000000
 2ec:	00000010 	.word	0x00000010
 2f0:	dfffd3f3 	.word	0xdfffd3f3
 2f4:	00000010 	.word	0x00000010
 2f8:	dfffd3eb 	.word	0xdfffd3eb
 2fc:	dfffd3e4 	.word	0xdfffd3e4
 300:	dfffd3da 	.word	0xdfffd3da
 304:	00000000 	.word	0x00000000
 308:	00000011 	.word	0x00000011
 30c:	0000002a 	.word	0x0000002a
 310:	0000004b 	.word	0x0000004b
 314:	ffffdc0b 	.word	0xffffdc0b
    ret = wc_AesInit(NULL, HEAP_HINT, devId);
 318:	2100      	movs	r1, #0
 31a:	f06f 0201 	mvn.w	r2, #1
 31e:	4608      	mov	r0, r1
 320:	f7ff fffe 	bl	0 <wc_AesInit>
    if (ret != BAD_FUNC_ARG)
 324:	f110 0fad 	cmn.w	r0, #173	; 0xad
 328:	d048      	beq.n	3bc <aes_test+0x3bc>
        ERROR_OUT(WC_TEST_RET_ENC_EC(ret), out);
 32a:	4240      	negs	r0, r0
 32c:	49af      	ldr	r1, [pc, #700]	; (5ec <aes_test+0x5ec>)
 32e:	4cb0      	ldr	r4, [pc, #704]	; (5f0 <aes_test+0x5f0>)
 330:	f3c0 000a 	ubfx	r0, r0, #0, #11
        ERROR_OUT(WC_TEST_RET_ENC_EC(ret), out);
 334:	fb01 4400 	mla	r4, r1, r0, r4
    wc_AesFree(aes);
 338:	4638      	mov	r0, r7
 33a:	f7ff fffe 	bl	0 <wc_AesFree>
    XFREE(aes, HEAP_HINT, DYNAMIC_TYPE_AES);
 33e:	4638      	mov	r0, r7
 340:	f7ff fffe 	bl	0 <free>
    if (ret != 0)
 344:	2c00      	cmp	r4, #0
 346:	d1ad      	bne.n	2a4 <aes_test+0x2a4>
    byte key[] = "0123456789abcdef   ";  /* align */
 348:	4baa      	ldr	r3, [pc, #680]	; (5f4 <aes_test+0x5f4>)
 34a:	464a      	mov	r2, r9
 34c:	f103 0710 	add.w	r7, r3, #16
 350:	6818      	ldr	r0, [r3, #0]
 352:	6859      	ldr	r1, [r3, #4]
 354:	4614      	mov	r4, r2
 356:	c403      	stmia	r4!, {r0, r1}
 358:	3308      	adds	r3, #8
 35a:	42bb      	cmp	r3, r7
 35c:	4622      	mov	r2, r4
 35e:	d1f7      	bne.n	350 <aes_test+0x350>
 360:	6818      	ldr	r0, [r3, #0]
    byte iv[]  = "1234567890abcdef   ";  /* align */
 362:	4ba5      	ldr	r3, [pc, #660]	; (5f8 <aes_test+0x5f8>)
    byte key[] = "0123456789abcdef   ";  /* align */
 364:	6020      	str	r0, [r4, #0]
    byte iv[]  = "1234567890abcdef   ";  /* align */
 366:	4652      	mov	r2, sl
 368:	f103 0710 	add.w	r7, r3, #16
 36c:	6818      	ldr	r0, [r3, #0]
 36e:	6859      	ldr	r1, [r3, #4]
 370:	4614      	mov	r4, r2
 372:	c403      	stmia	r4!, {r0, r1}
 374:	3308      	adds	r3, #8
 376:	42bb      	cmp	r3, r7
 378:	4622      	mov	r2, r4
 37a:	d1f7      	bne.n	36c <aes_test+0x36c>
 37c:	6818      	ldr	r0, [r3, #0]
 37e:	6020      	str	r0, [r4, #0]
    XMEMSET(cipher, 0, AES_BLOCK_SIZE);
 380:	2210      	movs	r2, #16
 382:	2100      	movs	r1, #0
 384:	4640      	mov	r0, r8
 386:	f7ff fffe 	bl	0 <memset>
    ret = wc_AesCbcEncryptWithKey(cipher, msg, AES_BLOCK_SIZE, key, 17, NULL);
 38a:	2711      	movs	r7, #17
    XMEMSET(plain, 0, AES_BLOCK_SIZE);
 38c:	2210      	movs	r2, #16
 38e:	2100      	movs	r1, #0
 390:	a807      	add	r0, sp, #28
    ret = wc_AesCbcEncryptWithKey(cipher, msg, AES_BLOCK_SIZE, key, 17, NULL);
 392:	2400      	movs	r4, #0
    XMEMSET(plain, 0, AES_BLOCK_SIZE);
 394:	f7ff fffe 	bl	0 <memset>
    ret = wc_AesCbcEncryptWithKey(cipher, msg, AES_BLOCK_SIZE, key, 17, NULL);
 398:	e9cd 7400 	strd	r7, r4, [sp]
 39c:	4997      	ldr	r1, [pc, #604]	; (5fc <aes_test+0x5fc>)
 39e:	464b      	mov	r3, r9
 3a0:	2210      	movs	r2, #16
 3a2:	4640      	mov	r0, r8
 3a4:	f7ff fffe 	bl	0 <wc_AesCbcEncryptWithKey>
    if (ret != BAD_FUNC_ARG)
 3a8:	f110 0fad 	cmn.w	r0, #173	; 0xad
 3ac:	f000 80d1 	beq.w	552 <aes_test+0x552>
        return WC_TEST_RET_ENC_EC(ret);
 3b0:	4240      	negs	r0, r0
 3b2:	498e      	ldr	r1, [pc, #568]	; (5ec <aes_test+0x5ec>)
 3b4:	4c92      	ldr	r4, [pc, #584]	; (600 <aes_test+0x600>)
 3b6:	f3c0 000a 	ubfx	r0, r0, #0, #11
 3ba:	e672      	b.n	a2 <aes_test+0xa2>
    ret = wc_AesInit(aes, HEAP_HINT, devId);
 3bc:	f06f 0201 	mvn.w	r2, #1
 3c0:	2100      	movs	r1, #0
 3c2:	4638      	mov	r0, r7
 3c4:	f7ff fffe 	bl	0 <wc_AesInit>
    if (ret != 0)
 3c8:	4604      	mov	r4, r0
 3ca:	b128      	cbz	r0, 3d8 <aes_test+0x3d8>
        ERROR_OUT(WC_TEST_RET_ENC_EC(ret), out);
 3cc:	4244      	negs	r4, r0
 3ce:	f3c4 000a 	ubfx	r0, r4, #0, #11
 3d2:	4986      	ldr	r1, [pc, #536]	; (5ec <aes_test+0x5ec>)
 3d4:	4c8b      	ldr	r4, [pc, #556]	; (604 <aes_test+0x604>)
 3d6:	e7ad      	b.n	334 <aes_test+0x334>
    ret = wc_AesGetKeySize(NULL, NULL);
 3d8:	4601      	mov	r1, r0
 3da:	f7ff fffe 	bl	0 <wc_AesGetKeySize>
    if (ret != BAD_FUNC_ARG)
 3de:	f110 0fad 	cmn.w	r0, #173	; 0xad
 3e2:	d005      	beq.n	3f0 <aes_test+0x3f0>
        ERROR_OUT(WC_TEST_RET_ENC_EC(ret), out);
 3e4:	4240      	negs	r0, r0
 3e6:	4981      	ldr	r1, [pc, #516]	; (5ec <aes_test+0x5ec>)
 3e8:	4c87      	ldr	r4, [pc, #540]	; (608 <aes_test+0x608>)
 3ea:	f3c0 000a 	ubfx	r0, r0, #0, #11
 3ee:	e7a1      	b.n	334 <aes_test+0x334>
    ret = wc_AesGetKeySize(aes, NULL);
 3f0:	4621      	mov	r1, r4
 3f2:	4638      	mov	r0, r7
 3f4:	f7ff fffe 	bl	0 <wc_AesGetKeySize>
    if (ret != BAD_FUNC_ARG)
 3f8:	f110 0fad 	cmn.w	r0, #173	; 0xad
 3fc:	d005      	beq.n	40a <aes_test+0x40a>
        ERROR_OUT(WC_TEST_RET_ENC_EC(ret), out);
 3fe:	4240      	negs	r0, r0
 400:	497a      	ldr	r1, [pc, #488]	; (5ec <aes_test+0x5ec>)
 402:	4c82      	ldr	r4, [pc, #520]	; (60c <aes_test+0x60c>)
 404:	f3c0 000a 	ubfx	r0, r0, #0, #11
 408:	e794      	b.n	334 <aes_test+0x334>
    ret = wc_AesGetKeySize(NULL, &keySize);
 40a:	a902      	add	r1, sp, #8
 40c:	4620      	mov	r0, r4
 40e:	f7ff fffe 	bl	0 <wc_AesGetKeySize>
    if (ret != BAD_FUNC_ARG)
 412:	f110 0fad 	cmn.w	r0, #173	; 0xad
 416:	d005      	beq.n	424 <aes_test+0x424>
        ERROR_OUT(WC_TEST_RET_ENC_EC(ret), out);
 418:	4240      	negs	r0, r0
 41a:	4974      	ldr	r1, [pc, #464]	; (5ec <aes_test+0x5ec>)
 41c:	4c7c      	ldr	r4, [pc, #496]	; (610 <aes_test+0x610>)
 41e:	f3c0 000a 	ubfx	r0, r0, #0, #11
 422:	e787      	b.n	334 <aes_test+0x334>
    ret = wc_AesSetKey(NULL, key16, sizeof(key16), iv, AES_ENCRYPTION);
 424:	9400      	str	r4, [sp, #0]
 426:	465b      	mov	r3, fp
 428:	2210      	movs	r2, #16
 42a:	4641      	mov	r1, r8
 42c:	4620      	mov	r0, r4
 42e:	f7ff fffe 	bl	0 <wc_AesSetKey>
    if (ret != BAD_FUNC_ARG)
 432:	f110 0fad 	cmn.w	r0, #173	; 0xad
 436:	d005      	beq.n	444 <aes_test+0x444>
        ERROR_OUT(WC_TEST_RET_ENC_EC(ret), out);
 438:	4240      	negs	r0, r0
 43a:	496c      	ldr	r1, [pc, #432]	; (5ec <aes_test+0x5ec>)
 43c:	4c75      	ldr	r4, [pc, #468]	; (614 <aes_test+0x614>)
 43e:	f3c0 000a 	ubfx	r0, r0, #0, #11
 442:	e777      	b.n	334 <aes_test+0x334>
    ret = wc_AesSetKey(aes, key16, sizeof(key16), NULL, AES_ENCRYPTION);
 444:	9400      	str	r4, [sp, #0]
 446:	4623      	mov	r3, r4
 448:	2210      	movs	r2, #16
 44a:	4641      	mov	r1, r8
 44c:	4638      	mov	r0, r7
 44e:	f7ff fffe 	bl	0 <wc_AesSetKey>
    if (ret != 0)
 452:	b128      	cbz	r0, 460 <aes_test+0x460>
        ERROR_OUT(WC_TEST_RET_ENC_EC(ret), out);
 454:	4240      	negs	r0, r0
 456:	4965      	ldr	r1, [pc, #404]	; (5ec <aes_test+0x5ec>)
 458:	4c6f      	ldr	r4, [pc, #444]	; (618 <aes_test+0x618>)
 45a:	f3c0 000a 	ubfx	r0, r0, #0, #11
 45e:	e769      	b.n	334 <aes_test+0x334>
    ret = wc_AesSetKey(aes, key32, sizeof(key32) - 1, iv, AES_ENCRYPTION);
 460:	9000      	str	r0, [sp, #0]
 462:	465b      	mov	r3, fp
 464:	221f      	movs	r2, #31
 466:	4651      	mov	r1, sl
 468:	4638      	mov	r0, r7
 46a:	f7ff fffe 	bl	0 <wc_AesSetKey>
    if (ret != BAD_FUNC_ARG)
 46e:	f110 0fad 	cmn.w	r0, #173	; 0xad
 472:	d005      	beq.n	480 <aes_test+0x480>
        ERROR_OUT(WC_TEST_RET_ENC_EC(ret), out);
 474:	4240      	negs	r0, r0
 476:	495d      	ldr	r1, [pc, #372]	; (5ec <aes_test+0x5ec>)
 478:	4c68      	ldr	r4, [pc, #416]	; (61c <aes_test+0x61c>)
 47a:	f3c0 000a 	ubfx	r0, r0, #0, #11
 47e:	e759      	b.n	334 <aes_test+0x334>
    aes->rounds = 16;
 480:	2410      	movs	r4, #16
 482:	f8c7 40f0 	str.w	r4, [r7, #240]	; 0xf0
    ret = wc_AesGetKeySize(aes, &keySize);
 486:	a902      	add	r1, sp, #8
 488:	4638      	mov	r0, r7
 48a:	f7ff fffe 	bl	0 <wc_AesGetKeySize>
    if (ret != BAD_FUNC_ARG)
 48e:	f110 0fad 	cmn.w	r0, #173	; 0xad
 492:	d005      	beq.n	4a0 <aes_test+0x4a0>
        ERROR_OUT(WC_TEST_RET_ENC_EC(ret), out);
 494:	4240      	negs	r0, r0
 496:	4955      	ldr	r1, [pc, #340]	; (5ec <aes_test+0x5ec>)
 498:	4c61      	ldr	r4, [pc, #388]	; (620 <aes_test+0x620>)
 49a:	f3c0 000a 	ubfx	r0, r0, #0, #11
 49e:	e749      	b.n	334 <aes_test+0x334>
    ret = wc_AesSetKey(aes, key16, sizeof(key16), iv, AES_ENCRYPTION);
 4a0:	2300      	movs	r3, #0
 4a2:	9300      	str	r3, [sp, #0]
 4a4:	4622      	mov	r2, r4
 4a6:	465b      	mov	r3, fp
 4a8:	4641      	mov	r1, r8
 4aa:	4638      	mov	r0, r7
 4ac:	f7ff fffe 	bl	0 <wc_AesSetKey>
    if (ret != 0)
 4b0:	b128      	cbz	r0, 4be <aes_test+0x4be>
        ERROR_OUT(WC_TEST_RET_ENC_EC(ret), out);
 4b2:	4240      	negs	r0, r0
 4b4:	494d      	ldr	r1, [pc, #308]	; (5ec <aes_test+0x5ec>)
 4b6:	4c5b      	ldr	r4, [pc, #364]	; (624 <aes_test+0x624>)
 4b8:	f3c0 000a 	ubfx	r0, r0, #0, #11
 4bc:	e73a      	b.n	334 <aes_test+0x334>
    ret = wc_AesGetKeySize(aes, &keySize);
 4be:	a902      	add	r1, sp, #8
 4c0:	4638      	mov	r0, r7
 4c2:	f7ff fffe 	bl	0 <wc_AesGetKeySize>
    if (ret != 0 || keySize != sizeof(key16))
 4c6:	b910      	cbnz	r0, 4ce <aes_test+0x4ce>
 4c8:	9b02      	ldr	r3, [sp, #8]
 4ca:	2b10      	cmp	r3, #16
 4cc:	d005      	beq.n	4da <aes_test+0x4da>
        ERROR_OUT(WC_TEST_RET_ENC_EC(ret), out);
 4ce:	4240      	negs	r0, r0
 4d0:	4946      	ldr	r1, [pc, #280]	; (5ec <aes_test+0x5ec>)
 4d2:	4c55      	ldr	r4, [pc, #340]	; (628 <aes_test+0x628>)
 4d4:	f3c0 000a 	ubfx	r0, r0, #0, #11
 4d8:	e72c      	b.n	334 <aes_test+0x334>
    ret = wc_AesSetKey(aes, key24, sizeof(key24), iv, AES_ENCRYPTION);
 4da:	9000      	str	r0, [sp, #0]
 4dc:	465b      	mov	r3, fp
 4de:	2218      	movs	r2, #24
 4e0:	4649      	mov	r1, r9
 4e2:	4638      	mov	r0, r7
 4e4:	f7ff fffe 	bl	0 <wc_AesSetKey>
    if (ret != 0)
 4e8:	b128      	cbz	r0, 4f6 <aes_test+0x4f6>
        ERROR_OUT(WC_TEST_RET_ENC_EC(ret), out);
 4ea:	4240      	negs	r0, r0
 4ec:	493f      	ldr	r1, [pc, #252]	; (5ec <aes_test+0x5ec>)
 4ee:	4c4f      	ldr	r4, [pc, #316]	; (62c <aes_test+0x62c>)
 4f0:	f3c0 000a 	ubfx	r0, r0, #0, #11
 4f4:	e71e      	b.n	334 <aes_test+0x334>
    ret = wc_AesGetKeySize(aes, &keySize);
 4f6:	a902      	add	r1, sp, #8
 4f8:	4638      	mov	r0, r7
 4fa:	f7ff fffe 	bl	0 <wc_AesGetKeySize>
    if (ret != 0 || keySize != sizeof(key24))
 4fe:	b910      	cbnz	r0, 506 <aes_test+0x506>
 500:	9b02      	ldr	r3, [sp, #8]
 502:	2b18      	cmp	r3, #24
 504:	d005      	beq.n	512 <aes_test+0x512>
        ERROR_OUT(WC_TEST_RET_ENC_EC(ret), out);
 506:	4240      	negs	r0, r0
 508:	4938      	ldr	r1, [pc, #224]	; (5ec <aes_test+0x5ec>)
 50a:	4c49      	ldr	r4, [pc, #292]	; (630 <aes_test+0x630>)
 50c:	f3c0 000a 	ubfx	r0, r0, #0, #11
 510:	e710      	b.n	334 <aes_test+0x334>
    ret = wc_AesSetKey(aes, key32, sizeof(key32), iv, AES_ENCRYPTION);
 512:	9000      	str	r0, [sp, #0]
 514:	465b      	mov	r3, fp
 516:	2220      	movs	r2, #32
 518:	4651      	mov	r1, sl
 51a:	4638      	mov	r0, r7
 51c:	f7ff fffe 	bl	0 <wc_AesSetKey>
    if (ret != 0)
 520:	b128      	cbz	r0, 52e <aes_test+0x52e>
        ERROR_OUT(WC_TEST_RET_ENC_EC(ret), out);
 522:	4240      	negs	r0, r0
 524:	4931      	ldr	r1, [pc, #196]	; (5ec <aes_test+0x5ec>)
 526:	4c43      	ldr	r4, [pc, #268]	; (634 <aes_test+0x634>)
 528:	f3c0 000a 	ubfx	r0, r0, #0, #11
 52c:	e702      	b.n	334 <aes_test+0x334>
    ret = wc_AesGetKeySize(aes, &keySize);
 52e:	a902      	add	r1, sp, #8
 530:	4638      	mov	r0, r7
 532:	f7ff fffe 	bl	0 <wc_AesGetKeySize>
    if (ret != 0 || keySize != sizeof(key32))
 536:	4604      	mov	r4, r0
 538:	b918      	cbnz	r0, 542 <aes_test+0x542>
 53a:	9b02      	ldr	r3, [sp, #8]
 53c:	2b20      	cmp	r3, #32
 53e:	f43f aefb 	beq.w	338 <aes_test+0x338>
        ERROR_OUT(WC_TEST_RET_ENC_EC(ret), out);
 542:	492a      	ldr	r1, [pc, #168]	; (5ec <aes_test+0x5ec>)
 544:	483c      	ldr	r0, [pc, #240]	; (638 <aes_test+0x638>)
 546:	4264      	negs	r4, r4
 548:	f3c4 040a 	ubfx	r4, r4, #0, #11
 54c:	fb01 0404 	mla	r4, r1, r4, r0
 550:	e6f2      	b.n	338 <aes_test+0x338>
    ret = wc_AesCbcDecryptWithKey(plain, cipher, AES_BLOCK_SIZE, key, 17, NULL);
 552:	e9cd 7400 	strd	r7, r4, [sp]
 556:	464b      	mov	r3, r9
 558:	2210      	movs	r2, #16
 55a:	4641      	mov	r1, r8
 55c:	a807      	add	r0, sp, #28
 55e:	f7ff fffe 	bl	0 <wc_AesCbcDecryptWithKey>
    if (ret != BAD_FUNC_ARG)
 562:	f110 0fad 	cmn.w	r0, #173	; 0xad
 566:	d005      	beq.n	574 <aes_test+0x574>
        return WC_TEST_RET_ENC_EC(ret);
 568:	4240      	negs	r0, r0
 56a:	4920      	ldr	r1, [pc, #128]	; (5ec <aes_test+0x5ec>)
 56c:	4c33      	ldr	r4, [pc, #204]	; (63c <aes_test+0x63c>)
 56e:	f3c0 000a 	ubfx	r0, r0, #0, #11
 572:	e596      	b.n	a2 <aes_test+0xa2>
    ret = wc_AesCbcEncryptWithKey(cipher, msg, AES_BLOCK_SIZE, key,
 574:	2710      	movs	r7, #16
 576:	4921      	ldr	r1, [pc, #132]	; (5fc <aes_test+0x5fc>)
 578:	f8cd a004 	str.w	sl, [sp, #4]
 57c:	9700      	str	r7, [sp, #0]
 57e:	464b      	mov	r3, r9
 580:	463a      	mov	r2, r7
 582:	4640      	mov	r0, r8
 584:	f7ff fffe 	bl	0 <wc_AesCbcEncryptWithKey>
    if (ret != 0)
 588:	b128      	cbz	r0, 596 <aes_test+0x596>
        return WC_TEST_RET_ENC_EC(ret);
 58a:	4240      	negs	r0, r0
 58c:	4917      	ldr	r1, [pc, #92]	; (5ec <aes_test+0x5ec>)
 58e:	4c2c      	ldr	r4, [pc, #176]	; (640 <aes_test+0x640>)
 590:	f3c0 000a 	ubfx	r0, r0, #0, #11
 594:	e585      	b.n	a2 <aes_test+0xa2>
    ret = wc_AesCbcDecryptWithKey(plain, cipher, AES_BLOCK_SIZE, key,
 596:	e9cd 7a00 	strd	r7, sl, [sp]
 59a:	464b      	mov	r3, r9
 59c:	463a      	mov	r2, r7
 59e:	4641      	mov	r1, r8
 5a0:	a807      	add	r0, sp, #28
 5a2:	f7ff fffe 	bl	0 <wc_AesCbcDecryptWithKey>
    if (ret != 0)
 5a6:	b128      	cbz	r0, 5b4 <aes_test+0x5b4>
        return WC_TEST_RET_ENC_EC(ret);
 5a8:	4240      	negs	r0, r0
 5aa:	4910      	ldr	r1, [pc, #64]	; (5ec <aes_test+0x5ec>)
 5ac:	4c25      	ldr	r4, [pc, #148]	; (644 <aes_test+0x644>)
 5ae:	f3c0 000a 	ubfx	r0, r0, #0, #11
 5b2:	e576      	b.n	a2 <aes_test+0xa2>
    if (XMEMCMP(plain, msg, AES_BLOCK_SIZE) != 0)
 5b4:	4911      	ldr	r1, [pc, #68]	; (5fc <aes_test+0x5fc>)
 5b6:	463a      	mov	r2, r7
 5b8:	a807      	add	r0, sp, #28
 5ba:	f7ff fffe 	bl	0 <memcmp>
        return WC_TEST_RET_ENC_NC;
 5be:	4b22      	ldr	r3, [pc, #136]	; (648 <aes_test+0x648>)
 5c0:	1e04      	subs	r4, r0, #0
 5c2:	bf18      	it	ne
 5c4:	461c      	movne	r4, r3
    if (ret != 0)
 5c6:	e66d      	b.n	2a4 <aes_test+0x2a4>
        ERROR_OUT(WC_TEST_RET_ENC_ERRNO, out);
 5c8:	4c20      	ldr	r4, [pc, #128]	; (64c <aes_test+0x64c>)
    if (dec) {
 5ca:	2800      	cmp	r0, #0
 5cc:	f47f ad55 	bne.w	7a <aes_test+0x7a>
 5d0:	e556      	b.n	80 <aes_test+0x80>
        ERROR_OUT(WC_TEST_RET_ENC_NC, out);
 5d2:	4c1f      	ldr	r4, [pc, #124]	; (650 <aes_test+0x650>)
 5d4:	e666      	b.n	2a4 <aes_test+0x2a4>
        ERROR_OUT(WC_TEST_RET_ENC_NC, out);
 5d6:	4c1f      	ldr	r4, [pc, #124]	; (654 <aes_test+0x654>)
 5d8:	e664      	b.n	2a4 <aes_test+0x2a4>
            ERROR_OUT(WC_TEST_RET_ENC_NC, out);
 5da:	4c1f      	ldr	r4, [pc, #124]	; (658 <aes_test+0x658>)
 5dc:	e662      	b.n	2a4 <aes_test+0x2a4>
            ERROR_OUT(WC_TEST_RET_ENC_NC, out);
 5de:	4c1f      	ldr	r4, [pc, #124]	; (65c <aes_test+0x65c>)
 5e0:	e540      	b.n	64 <aes_test+0x64>
            ERROR_OUT(WC_TEST_RET_ENC_NC, out);
 5e2:	4c1f      	ldr	r4, [pc, #124]	; (660 <aes_test+0x660>)
 5e4:	e53e      	b.n	64 <aes_test+0x64>
            ERROR_OUT(WC_TEST_RET_ENC_NC, out);
 5e6:	4c1f      	ldr	r4, [pc, #124]	; (664 <aes_test+0x664>)
 5e8:	e65c      	b.n	2a4 <aes_test+0x2a4>
 5ea:	bf00      	nop
 5ec:	fffe7960 	.word	0xfffe7960
 5f0:	dfffdc02 	.word	0xdfffdc02
 5f4:	0000005c 	.word	0x0000005c
 5f8:	00000070 	.word	0x00000070
 5fc:	00000000 	.word	0x00000000
 600:	dfffd7e9 	.word	0xdfffd7e9
 604:	dfffdbfc 	.word	0xdfffdbfc
 608:	dfffdbf6 	.word	0xdfffdbf6
 60c:	dfffdbf3 	.word	0xdfffdbf3
 610:	dfffdbf0 	.word	0xdfffdbf0
 614:	dfffdbec 	.word	0xdfffdbec
 618:	dfffdbe3 	.word	0xdfffdbe3
 61c:	dfffdbe0 	.word	0xdfffdbe0
 620:	dfffdbd7 	.word	0xdfffdbd7
 624:	dfffdbcd 	.word	0xdfffdbcd
 628:	dfffdbc9 	.word	0xdfffdbc9
 62c:	dfffdbbf 	.word	0xdfffdbbf
 630:	dfffdbbb 	.word	0xdfffdbbb
 634:	dfffdbb2 	.word	0xdfffdbb2
 638:	dfffdbae 	.word	0xdfffdbae
 63c:	dfffd7e5 	.word	0xdfffd7e5
 640:	dfffd7df 	.word	0xdfffd7df
 644:	dfffd7da 	.word	0xdfffd7da
 648:	ffffd7d8 	.word	0xffffd7d8
 64c:	ffffd4db 	.word	0xffffd4db
 650:	ffffd4ae 	.word	0xffffd4ae
 654:	ffffd4a9 	.word	0xffffd4a9
 658:	ffffd3fb 	.word	0xffffd3fb
 65c:	ffffd3f0 	.word	0xffffd3f0
 660:	ffffd3e2 	.word	0xffffd3e2
 664:	ffffd3d7 	.word	0xffffd3d7
        ERROR_OUT(WC_TEST_RET_ENC_ERRNO, out);
 668:	4c00      	ldr	r4, [pc, #0]	; (66c <aes_test+0x66c>)
 66a:	e4eb      	b.n	44 <aes_test+0x44>
 66c:	ffffd4d7 	.word	0xffffd4d7

Disassembly of section .text.aes192_test:

00000000 <aes192_test>:
{
   0:	b570      	push	{r4, r5, r6, lr}
    if ((enc = (Aes *)XMALLOC(sizeof *enc, HEAP_HINT, DYNAMIC_TYPE_AES)) == NULL)
   2:	f44f 709c 	mov.w	r0, #312	; 0x138
{
   6:	b08a      	sub	sp, #40	; 0x28
    if ((enc = (Aes *)XMALLOC(sizeof *enc, HEAP_HINT, DYNAMIC_TYPE_AES)) == NULL)
   8:	f7ff fffe 	bl	0 <malloc>
   c:	4606      	mov	r6, r0
   e:	2800      	cmp	r0, #0
  10:	f000 8081 	beq.w	116 <aes192_test+0x116>
    if ((dec = (Aes *)XMALLOC(sizeof *dec, HEAP_HINT, DYNAMIC_TYPE_AES)) == NULL)
  14:	f44f 709c 	mov.w	r0, #312	; 0x138
  18:	f7ff fffe 	bl	0 <malloc>
  1c:	4605      	mov	r5, r0
  1e:	2800      	cmp	r0, #0
  20:	d07b      	beq.n	11a <aes192_test+0x11a>
    ret = wc_AesInit(enc, HEAP_HINT, devId);
  22:	2100      	movs	r1, #0
  24:	f06f 0201 	mvn.w	r2, #1
  28:	4630      	mov	r0, r6
  2a:	f7ff fffe 	bl	0 <wc_AesInit>
    if (ret != 0)
  2e:	4601      	mov	r1, r0
  30:	b180      	cbz	r0, 54 <aes192_test+0x54>
        ERROR_OUT(WC_TEST_RET_ENC_EC(ret), out);
  32:	4241      	negs	r1, r0
  34:	4c3c      	ldr	r4, [pc, #240]	; (128 <aes192_test+0x128>)
  36:	483d      	ldr	r0, [pc, #244]	; (12c <aes192_test+0x12c>)
  38:	f3c1 010a 	ubfx	r1, r1, #0, #11
        ERROR_OUT(WC_TEST_RET_ENC_EC(ret), out);
  3c:	fb01 4400 	mla	r4, r1, r0, r4
        XFREE(enc, HEAP_HINT, DYNAMIC_TYPE_AES);
  40:	4630      	mov	r0, r6
  42:	f7ff fffe 	bl	0 <free>
    if (dec)
  46:	b115      	cbz	r5, 4e <aes192_test+0x4e>
        XFREE(dec, HEAP_HINT, DYNAMIC_TYPE_AES);
  48:	4628      	mov	r0, r5
  4a:	f7ff fffe 	bl	0 <free>
}
  4e:	4620      	mov	r0, r4
  50:	b00a      	add	sp, #40	; 0x28
  52:	bd70      	pop	{r4, r5, r6, pc}
    ret = wc_AesInit(dec, HEAP_HINT, devId);
  54:	f06f 0201 	mvn.w	r2, #1
  58:	4628      	mov	r0, r5
  5a:	f7ff fffe 	bl	0 <wc_AesInit>
    if (ret != 0)
  5e:	b128      	cbz	r0, 6c <aes192_test+0x6c>
        ERROR_OUT(WC_TEST_RET_ENC_EC(ret), out);
  60:	4240      	negs	r0, r0
  62:	4932      	ldr	r1, [pc, #200]	; (12c <aes192_test+0x12c>)
  64:	4c32      	ldr	r4, [pc, #200]	; (130 <aes192_test+0x130>)
  66:	f3c0 000a 	ubfx	r0, r0, #0, #11
  6a:	e7e7      	b.n	3c <aes192_test+0x3c>
    ret = wc_AesSetKey(enc, key, (int) sizeof(key), iv, AES_ENCRYPTION);
  6c:	9000      	str	r0, [sp, #0]
  6e:	4b31      	ldr	r3, [pc, #196]	; (134 <aes192_test+0x134>)
  70:	4931      	ldr	r1, [pc, #196]	; (138 <aes192_test+0x138>)
  72:	2218      	movs	r2, #24
  74:	4630      	mov	r0, r6
  76:	f7ff fffe 	bl	0 <wc_AesSetKey>
    if (ret != 0)
  7a:	b128      	cbz	r0, 88 <aes192_test+0x88>
        ERROR_OUT(WC_TEST_RET_ENC_EC(ret), out);
  7c:	4240      	negs	r0, r0
  7e:	492b      	ldr	r1, [pc, #172]	; (12c <aes192_test+0x12c>)
  80:	4c2e      	ldr	r4, [pc, #184]	; (13c <aes192_test+0x13c>)
  82:	f3c0 000a 	ubfx	r0, r0, #0, #11
  86:	e7d9      	b.n	3c <aes192_test+0x3c>
    ret = wc_AesSetKey(dec, key, (int) sizeof(key), iv, AES_DECRYPTION);
  88:	2301      	movs	r3, #1
  8a:	492b      	ldr	r1, [pc, #172]	; (138 <aes192_test+0x138>)
  8c:	9300      	str	r3, [sp, #0]
  8e:	2218      	movs	r2, #24
  90:	4b28      	ldr	r3, [pc, #160]	; (134 <aes192_test+0x134>)
  92:	4628      	mov	r0, r5
  94:	f7ff fffe 	bl	0 <wc_AesSetKey>
    if (ret != 0)
  98:	4601      	mov	r1, r0
  9a:	b128      	cbz	r0, a8 <aes192_test+0xa8>
        ERROR_OUT(WC_TEST_RET_ENC_EC(ret), out);
  9c:	4241      	negs	r1, r0
  9e:	4c28      	ldr	r4, [pc, #160]	; (140 <aes192_test+0x140>)
  a0:	4822      	ldr	r0, [pc, #136]	; (12c <aes192_test+0x12c>)
  a2:	f3c1 010a 	ubfx	r1, r1, #0, #11
  a6:	e7c9      	b.n	3c <aes192_test+0x3c>
    XMEMSET(cipher, 0, AES_BLOCK_SIZE);
  a8:	2210      	movs	r2, #16
  aa:	a802      	add	r0, sp, #8
  ac:	f7ff fffe 	bl	0 <memset>
    ret = wc_AesCbcEncrypt(enc, cipher, msg, (int) sizeof(msg));
  b0:	a902      	add	r1, sp, #8
  b2:	4a24      	ldr	r2, [pc, #144]	; (144 <aes192_test+0x144>)
  b4:	2310      	movs	r3, #16
  b6:	4630      	mov	r0, r6
  b8:	f7ff fffe 	bl	0 <wc_AesCbcEncrypt>
    if (ret != 0)
  bc:	4601      	mov	r1, r0
  be:	b128      	cbz	r0, cc <aes192_test+0xcc>
        ERROR_OUT(WC_TEST_RET_ENC_EC(ret), out);
  c0:	4241      	negs	r1, r0
  c2:	4c21      	ldr	r4, [pc, #132]	; (148 <aes192_test+0x148>)
  c4:	4819      	ldr	r0, [pc, #100]	; (12c <aes192_test+0x12c>)
  c6:	f3c1 010a 	ubfx	r1, r1, #0, #11
  ca:	e7b7      	b.n	3c <aes192_test+0x3c>
    XMEMSET(plain, 0, AES_BLOCK_SIZE);
  cc:	2210      	movs	r2, #16
  ce:	a806      	add	r0, sp, #24
  d0:	f7ff fffe 	bl	0 <memset>
    ret = wc_AesCbcDecrypt(dec, plain, cipher, (int) sizeof(cipher));
  d4:	2310      	movs	r3, #16
  d6:	aa02      	add	r2, sp, #8
  d8:	a906      	add	r1, sp, #24
  da:	4628      	mov	r0, r5
  dc:	f7ff fffe 	bl	0 <wc_AesCbcDecrypt>
    if (ret != 0)
  e0:	b128      	cbz	r0, ee <aes192_test+0xee>
        ERROR_OUT(WC_TEST_RET_ENC_EC(ret), out);
  e2:	4240      	negs	r0, r0
  e4:	4911      	ldr	r1, [pc, #68]	; (12c <aes192_test+0x12c>)
  e6:	4c19      	ldr	r4, [pc, #100]	; (14c <aes192_test+0x14c>)
  e8:	f3c0 000a 	ubfx	r0, r0, #0, #11
  ec:	e7a6      	b.n	3c <aes192_test+0x3c>
    if (XMEMCMP(plain, msg, (int) sizeof(plain))) {
  ee:	4915      	ldr	r1, [pc, #84]	; (144 <aes192_test+0x144>)
  f0:	2210      	movs	r2, #16
  f2:	a806      	add	r0, sp, #24
  f4:	f7ff fffe 	bl	0 <memcmp>
  f8:	b988      	cbnz	r0, 11e <aes192_test+0x11e>
    if (XMEMCMP(cipher, verify, (int) sizeof(cipher)))
  fa:	4915      	ldr	r1, [pc, #84]	; (150 <aes192_test+0x150>)
  fc:	2210      	movs	r2, #16
  fe:	a802      	add	r0, sp, #8
 100:	f7ff fffe 	bl	0 <memcmp>
 104:	4604      	mov	r4, r0
 106:	b960      	cbnz	r0, 122 <aes192_test+0x122>
    wc_AesFree(enc);
 108:	4630      	mov	r0, r6
 10a:	f7ff fffe 	bl	0 <wc_AesFree>
    wc_AesFree(dec);
 10e:	4628      	mov	r0, r5
 110:	f7ff fffe 	bl	0 <wc_AesFree>
 114:	e794      	b.n	40 <aes192_test+0x40>
        ERROR_OUT(WC_TEST_RET_ENC_ERRNO, out);
 116:	4c0f      	ldr	r4, [pc, #60]	; (154 <aes192_test+0x154>)
    return ret;
 118:	e799      	b.n	4e <aes192_test+0x4e>
        ERROR_OUT(WC_TEST_RET_ENC_ERRNO, out);
 11a:	4c0f      	ldr	r4, [pc, #60]	; (158 <aes192_test+0x158>)
 11c:	e790      	b.n	40 <aes192_test+0x40>
        ERROR_OUT(WC_TEST_RET_ENC_NC, out);
 11e:	4c0f      	ldr	r4, [pc, #60]	; (15c <aes192_test+0x15c>)
 120:	e78e      	b.n	40 <aes192_test+0x40>
        ERROR_OUT(WC_TEST_RET_ENC_NC, out);
 122:	4c0f      	ldr	r4, [pc, #60]	; (160 <aes192_test+0x160>)
 124:	e78c      	b.n	40 <aes192_test+0x40>
 126:	bf00      	nop
 128:	dfffd2fe 	.word	0xdfffd2fe
 12c:	fffe7960 	.word	0xfffe7960
 130:	dfffd2fa 	.word	0xdfffd2fa
	...
 13c:	dfffd2f5 	.word	0xdfffd2f5
 140:	dfffd2f1 	.word	0xdfffd2f1
 144:	00000000 	.word	0x00000000
 148:	dfffd2e8 	.word	0xdfffd2e8
 14c:	dfffd2e0 	.word	0xdfffd2e0
 150:	00000000 	.word	0x00000000
 154:	ffffd307 	.word	0xffffd307
 158:	ffffd304 	.word	0xffffd304
 15c:	ffffd2de 	.word	0xffffd2de
 160:	ffffd2d9 	.word	0xffffd2d9

Disassembly of section .text.aes256_test:

00000000 <aes256_test>:
{
   0:	b570      	push	{r4, r5, r6, lr}
    if ((enc = (Aes *)XMALLOC(sizeof *enc, HEAP_HINT, DYNAMIC_TYPE_AES)) == NULL)
   2:	f44f 709c 	mov.w	r0, #312	; 0x138
{
   6:	b08a      	sub	sp, #40	; 0x28
    if ((enc = (Aes *)XMALLOC(sizeof *enc, HEAP_HINT, DYNAMIC_TYPE_AES)) == NULL)
   8:	f7ff fffe 	bl	0 <malloc>
   c:	4606      	mov	r6, r0
   e:	2800      	cmp	r0, #0
  10:	f000 8085 	beq.w	11e <aes256_test+0x11e>
    if ((dec = (Aes *)XMALLOC(sizeof *dec, HEAP_HINT, DYNAMIC_TYPE_AES)) == NULL)
  14:	f44f 709c 	mov.w	r0, #312	; 0x138
  18:	f7ff fffe 	bl	0 <malloc>
  1c:	4605      	mov	r5, r0
  1e:	2800      	cmp	r0, #0
  20:	d07f      	beq.n	122 <aes256_test+0x122>
    ret = wc_AesInit(enc, HEAP_HINT, devId);
  22:	2100      	movs	r1, #0
  24:	f06f 0201 	mvn.w	r2, #1
  28:	4630      	mov	r0, r6
  2a:	f7ff fffe 	bl	0 <wc_AesInit>
    if (ret != 0)
  2e:	4601      	mov	r1, r0
  30:	b138      	cbz	r0, 42 <aes256_test+0x42>
        ERROR_OUT(WC_TEST_RET_ENC_EC(ret), out);
  32:	4241      	negs	r1, r0
  34:	4c3e      	ldr	r4, [pc, #248]	; (130 <aes256_test+0x130>)
  36:	483f      	ldr	r0, [pc, #252]	; (134 <aes256_test+0x134>)
  38:	f3c1 010a 	ubfx	r1, r1, #0, #11
        ERROR_OUT(WC_TEST_RET_ENC_EC(ret), out);
  3c:	fb01 4400 	mla	r4, r1, r0, r4
  40:	e00e      	b.n	60 <aes256_test+0x60>
    ret = wc_AesInit(dec, HEAP_HINT, devId);
  42:	f06f 0201 	mvn.w	r2, #1
  46:	4628      	mov	r0, r5
  48:	f7ff fffe 	bl	0 <wc_AesInit>
    if (ret != 0)
  4c:	b190      	cbz	r0, 74 <aes256_test+0x74>
        ERROR_OUT(WC_TEST_RET_ENC_EC(ret), out);
  4e:	4244      	negs	r4, r0
  50:	4838      	ldr	r0, [pc, #224]	; (134 <aes256_test+0x134>)
  52:	f3c4 040a 	ubfx	r4, r4, #0, #11
  56:	4344      	muls	r4, r0
  58:	f104 4460 	add.w	r4, r4, #3758096384	; 0xe0000000
  5c:	f5a4 5436 	sub.w	r4, r4, #11648	; 0x2d80
        XFREE(enc, HEAP_HINT, DYNAMIC_TYPE_AES);
  60:	4630      	mov	r0, r6
  62:	f7ff fffe 	bl	0 <free>
    if (dec)
  66:	b115      	cbz	r5, 6e <aes256_test+0x6e>
        XFREE(dec, HEAP_HINT, DYNAMIC_TYPE_AES);
  68:	4628      	mov	r0, r5
  6a:	f7ff fffe 	bl	0 <free>
}
  6e:	4620      	mov	r0, r4
  70:	b00a      	add	sp, #40	; 0x28
  72:	bd70      	pop	{r4, r5, r6, pc}
    ret = wc_AesSetKey(enc, key, keySz, iv, AES_ENCRYPTION);
  74:	9000      	str	r0, [sp, #0]
  76:	4b30      	ldr	r3, [pc, #192]	; (138 <aes256_test+0x138>)
  78:	4930      	ldr	r1, [pc, #192]	; (13c <aes256_test+0x13c>)
  7a:	2220      	movs	r2, #32
  7c:	4630      	mov	r0, r6
  7e:	f7ff fffe 	bl	0 <wc_AesSetKey>
    if (ret != 0)
  82:	b128      	cbz	r0, 90 <aes256_test+0x90>
        ERROR_OUT(WC_TEST_RET_ENC_EC(ret), out);
  84:	4240      	negs	r0, r0
  86:	492b      	ldr	r1, [pc, #172]	; (134 <aes256_test+0x134>)
  88:	4c2d      	ldr	r4, [pc, #180]	; (140 <aes256_test+0x140>)
  8a:	f3c0 000a 	ubfx	r0, r0, #0, #11
  8e:	e7d5      	b.n	3c <aes256_test+0x3c>
    ret = wc_AesSetKey(dec, key, keySz, iv, AES_DECRYPTION);
  90:	2301      	movs	r3, #1
  92:	492a      	ldr	r1, [pc, #168]	; (13c <aes256_test+0x13c>)
  94:	9300      	str	r3, [sp, #0]
  96:	2220      	movs	r2, #32
  98:	4b27      	ldr	r3, [pc, #156]	; (138 <aes256_test+0x138>)
  9a:	4628      	mov	r0, r5
  9c:	f7ff fffe 	bl	0 <wc_AesSetKey>
    if (ret != 0)
  a0:	4601      	mov	r1, r0
  a2:	b128      	cbz	r0, b0 <aes256_test+0xb0>
        ERROR_OUT(WC_TEST_RET_ENC_EC(ret), out);
  a4:	4241      	negs	r1, r0
  a6:	4c27      	ldr	r4, [pc, #156]	; (144 <aes256_test+0x144>)
  a8:	4822      	ldr	r0, [pc, #136]	; (134 <aes256_test+0x134>)
  aa:	f3c1 010a 	ubfx	r1, r1, #0, #11
  ae:	e7c5      	b.n	3c <aes256_test+0x3c>
    XMEMSET(cipher, 0, AES_BLOCK_SIZE);
  b0:	2210      	movs	r2, #16
  b2:	a802      	add	r0, sp, #8
  b4:	f7ff fffe 	bl	0 <memset>
    ret = wc_AesCbcEncrypt(enc, cipher, msg, (int) sizeof(msg));
  b8:	a902      	add	r1, sp, #8
  ba:	4a23      	ldr	r2, [pc, #140]	; (148 <aes256_test+0x148>)
  bc:	2310      	movs	r3, #16
  be:	4630      	mov	r0, r6
  c0:	f7ff fffe 	bl	0 <wc_AesCbcEncrypt>
    if (ret != 0)
  c4:	4601      	mov	r1, r0
  c6:	b128      	cbz	r0, d4 <aes256_test+0xd4>
        ERROR_OUT(WC_TEST_RET_ENC_EC(ret), out);
  c8:	4241      	negs	r1, r0
  ca:	4c20      	ldr	r4, [pc, #128]	; (14c <aes256_test+0x14c>)
  cc:	4819      	ldr	r0, [pc, #100]	; (134 <aes256_test+0x134>)
  ce:	f3c1 010a 	ubfx	r1, r1, #0, #11
  d2:	e7b3      	b.n	3c <aes256_test+0x3c>
    XMEMSET(plain, 0, AES_BLOCK_SIZE);
  d4:	2210      	movs	r2, #16
  d6:	a806      	add	r0, sp, #24
  d8:	f7ff fffe 	bl	0 <memset>
    ret = wc_AesCbcDecrypt(dec, plain, cipher, (int) sizeof(cipher));
  dc:	2310      	movs	r3, #16
  de:	aa02      	add	r2, sp, #8
  e0:	a906      	add	r1, sp, #24
  e2:	4628      	mov	r0, r5
  e4:	f7ff fffe 	bl	0 <wc_AesCbcDecrypt>
    if (ret != 0)
  e8:	b128      	cbz	r0, f6 <aes256_test+0xf6>
        ERROR_OUT(WC_TEST_RET_ENC_EC(ret), out);
  ea:	4240      	negs	r0, r0
  ec:	4911      	ldr	r1, [pc, #68]	; (134 <aes256_test+0x134>)
  ee:	4c18      	ldr	r4, [pc, #96]	; (150 <aes256_test+0x150>)
  f0:	f3c0 000a 	ubfx	r0, r0, #0, #11
  f4:	e7a2      	b.n	3c <aes256_test+0x3c>
    if (XMEMCMP(plain, msg, (int) sizeof(plain))) {
  f6:	4914      	ldr	r1, [pc, #80]	; (148 <aes256_test+0x148>)
  f8:	2210      	movs	r2, #16
  fa:	a806      	add	r0, sp, #24
  fc:	f7ff fffe 	bl	0 <memcmp>
 100:	b988      	cbnz	r0, 126 <aes256_test+0x126>
    if (XMEMCMP(cipher, verify, (int) sizeof(cipher)))
 102:	4914      	ldr	r1, [pc, #80]	; (154 <aes256_test+0x154>)
 104:	2210      	movs	r2, #16
 106:	a802      	add	r0, sp, #8
 108:	f7ff fffe 	bl	0 <memcmp>
 10c:	4604      	mov	r4, r0
 10e:	b960      	cbnz	r0, 12a <aes256_test+0x12a>
    wc_AesFree(enc);
 110:	4630      	mov	r0, r6
 112:	f7ff fffe 	bl	0 <wc_AesFree>
    wc_AesFree(dec);
 116:	4628      	mov	r0, r5
 118:	f7ff fffe 	bl	0 <wc_AesFree>
 11c:	e7a0      	b.n	60 <aes256_test+0x60>
        ERROR_OUT(WC_TEST_RET_ENC_ERRNO, out);
 11e:	4c0e      	ldr	r4, [pc, #56]	; (158 <aes256_test+0x158>)
    return ret;
 120:	e7a5      	b.n	6e <aes256_test+0x6e>
        ERROR_OUT(WC_TEST_RET_ENC_ERRNO, out);
 122:	4c0e      	ldr	r4, [pc, #56]	; (15c <aes256_test+0x15c>)
 124:	e79c      	b.n	60 <aes256_test+0x60>
        ERROR_OUT(WC_TEST_RET_ENC_NC, out);
 126:	4c0e      	ldr	r4, [pc, #56]	; (160 <aes256_test+0x160>)
 128:	e79a      	b.n	60 <aes256_test+0x60>
        ERROR_OUT(WC_TEST_RET_ENC_NC, out);
 12a:	4c0e      	ldr	r4, [pc, #56]	; (164 <aes256_test+0x164>)
 12c:	e798      	b.n	60 <aes256_test+0x60>
 12e:	bf00      	nop
 130:	dfffd284 	.word	0xdfffd284
 134:	fffe7960 	.word	0xfffe7960
	...
 140:	dfffd27b 	.word	0xdfffd27b
 144:	dfffd277 	.word	0xdfffd277
 148:	00000000 	.word	0x00000000
 14c:	dfffd26e 	.word	0xdfffd26e
 150:	dfffd266 	.word	0xdfffd266
 154:	00000000 	.word	0x00000000
 158:	ffffd28d 	.word	0xffffd28d
 15c:	ffffd28a 	.word	0xffffd28a
 160:	ffffd264 	.word	0xffffd264
 164:	ffffd25f 	.word	0xffffd25f

Disassembly of section .text.aesgcm_default_test:

00000000 <aesgcm_default_test>:
{
   0:	e92d 47f0 	stmdb	sp!, {r4, r5, r6, r7, r8, r9, sl, lr}
    byte key1[] = {
   4:	4b64      	ldr	r3, [pc, #400]	; (198 <aesgcm_default_test+0x198>)
{
   6:	b0c2      	sub	sp, #264	; 0x108
    byte key1[] = {
   8:	aa12      	add	r2, sp, #72	; 0x48
   a:	f103 0510 	add.w	r5, r3, #16
   e:	4617      	mov	r7, r2
  10:	6818      	ldr	r0, [r3, #0]
  12:	6859      	ldr	r1, [r3, #4]
  14:	4614      	mov	r4, r2
  16:	c403      	stmia	r4!, {r0, r1}
  18:	3308      	adds	r3, #8
  1a:	42ab      	cmp	r3, r5
  1c:	4622      	mov	r2, r4
  1e:	d1f7      	bne.n	10 <aesgcm_default_test+0x10>
    byte iv1[] = {
  20:	4a5e      	ldr	r2, [pc, #376]	; (19c <aesgcm_default_test+0x19c>)
  22:	6810      	ldr	r0, [r2, #0]
  24:	6851      	ldr	r1, [r2, #4]
  26:	ab06      	add	r3, sp, #24
  28:	c303      	stmia	r3!, {r0, r1}
  2a:	6890      	ldr	r0, [r2, #8]
  2c:	6018      	str	r0, [r3, #0]
    ALIGN64 byte plain1[] = {
  2e:	4b5c      	ldr	r3, [pc, #368]	; (1a0 <aesgcm_default_test+0x1a0>)
  30:	ac32      	add	r4, sp, #200	; 0xc8
  32:	f103 0620 	add.w	r6, r3, #32
  36:	4622      	mov	r2, r4
  38:	6818      	ldr	r0, [r3, #0]
  3a:	6859      	ldr	r1, [r3, #4]
  3c:	4625      	mov	r5, r4
  3e:	c503      	stmia	r5!, {r0, r1}
  40:	3308      	adds	r3, #8
  42:	42b3      	cmp	r3, r6
  44:	462c      	mov	r4, r5
  46:	d1f7      	bne.n	38 <aesgcm_default_test+0x38>
    byte aad1[] = {
  48:	4b56      	ldr	r3, [pc, #344]	; (1a4 <aesgcm_default_test+0x1a4>)
  4a:	ac16      	add	r4, sp, #88	; 0x58
  4c:	f103 0610 	add.w	r6, r3, #16
  50:	46a6      	mov	lr, r4
  52:	6818      	ldr	r0, [r3, #0]
  54:	6859      	ldr	r1, [r3, #4]
  56:	4625      	mov	r5, r4
  58:	c503      	stmia	r5!, {r0, r1}
  5a:	3308      	adds	r3, #8
  5c:	42b3      	cmp	r3, r6
  5e:	462c      	mov	r4, r5
  60:	d1f7      	bne.n	52 <aesgcm_default_test+0x52>
    ALIGN64 byte cipher1[] = {
  62:	4b51      	ldr	r3, [pc, #324]	; (1a8 <aesgcm_default_test+0x1a8>)
  64:	ac3a      	add	r4, sp, #232	; 0xe8
  66:	f103 0620 	add.w	r6, r3, #32
  6a:	46a4      	mov	ip, r4
  6c:	6818      	ldr	r0, [r3, #0]
  6e:	6859      	ldr	r1, [r3, #4]
  70:	4625      	mov	r5, r4
  72:	c503      	stmia	r5!, {r0, r1}
  74:	3308      	adds	r3, #8
  76:	42b3      	cmp	r3, r6
  78:	462c      	mov	r4, r5
  7a:	d1f7      	bne.n	6c <aesgcm_default_test+0x6c>
    byte tag1[] = {
  7c:	4b4b      	ldr	r3, [pc, #300]	; (1ac <aesgcm_default_test+0x1ac>)
  7e:	ac1a      	add	r4, sp, #104	; 0x68
  80:	f103 0610 	add.w	r6, r3, #16
  84:	46a0      	mov	r8, r4
  86:	6818      	ldr	r0, [r3, #0]
  88:	6859      	ldr	r1, [r3, #4]
  8a:	4625      	mov	r5, r4
  8c:	c503      	stmia	r5!, {r0, r1}
  8e:	3308      	adds	r3, #8
  90:	42b3      	cmp	r3, r6
  92:	462c      	mov	r4, r5
  94:	d1f7      	bne.n	86 <aesgcm_default_test+0x86>
    byte key2[] = {
  96:	4b46      	ldr	r3, [pc, #280]	; (1b0 <aesgcm_default_test+0x1b0>)
  98:	ac1e      	add	r4, sp, #120	; 0x78
  9a:	f103 0910 	add.w	r9, r3, #16
  9e:	4625      	mov	r5, r4
  a0:	6818      	ldr	r0, [r3, #0]
  a2:	6859      	ldr	r1, [r3, #4]
  a4:	4626      	mov	r6, r4
  a6:	c603      	stmia	r6!, {r0, r1}
  a8:	3308      	adds	r3, #8
  aa:	454b      	cmp	r3, r9
  ac:	4634      	mov	r4, r6
  ae:	d1f7      	bne.n	a0 <aesgcm_default_test+0xa0>
    byte iv2[] = {
  b0:	4c40      	ldr	r4, [pc, #256]	; (1b4 <aesgcm_default_test+0x1b4>)
  b2:	6820      	ldr	r0, [r4, #0]
  b4:	6861      	ldr	r1, [r4, #4]
  b6:	ab09      	add	r3, sp, #36	; 0x24
  b8:	c303      	stmia	r3!, {r0, r1}
  ba:	68a0      	ldr	r0, [r4, #8]
  bc:	6018      	str	r0, [r3, #0]
    ALIGN64 byte plain2[] = {
  be:	4b3e      	ldr	r3, [pc, #248]	; (1b8 <aesgcm_default_test+0x1b8>)
  c0:	ae22      	add	r6, sp, #136	; 0x88
  c2:	f103 0910 	add.w	r9, r3, #16
  c6:	6818      	ldr	r0, [r3, #0]
  c8:	6859      	ldr	r1, [r3, #4]
  ca:	4634      	mov	r4, r6
  cc:	c403      	stmia	r4!, {r0, r1}
  ce:	3308      	adds	r3, #8
  d0:	454b      	cmp	r3, r9
  d2:	4626      	mov	r6, r4
  d4:	d1f7      	bne.n	c6 <aesgcm_default_test+0xc6>
    ALIGN64 byte cipher2[] = {
  d6:	4b39      	ldr	r3, [pc, #228]	; (1bc <aesgcm_default_test+0x1bc>)
  d8:	ae26      	add	r6, sp, #152	; 0x98
  da:	f103 0910 	add.w	r9, r3, #16
  de:	6818      	ldr	r0, [r3, #0]
  e0:	6859      	ldr	r1, [r3, #4]
  e2:	4634      	mov	r4, r6
  e4:	c403      	stmia	r4!, {r0, r1}
  e6:	3308      	adds	r3, #8
  e8:	454b      	cmp	r3, r9
  ea:	4626      	mov	r6, r4
  ec:	d1f7      	bne.n	de <aesgcm_default_test+0xde>
    byte tag2[] = {
  ee:	4b34      	ldr	r3, [pc, #208]	; (1c0 <aesgcm_default_test+0x1c0>)
  f0:	ac2a      	add	r4, sp, #168	; 0xa8
  f2:	f103 0a10 	add.w	sl, r3, #16
  f6:	4626      	mov	r6, r4
  f8:	6818      	ldr	r0, [r3, #0]
  fa:	6859      	ldr	r1, [r3, #4]
  fc:	46a1      	mov	r9, r4
  fe:	e8a9 0003 	stmia.w	r9!, {r0, r1}
 102:	3308      	adds	r3, #8
 104:	4553      	cmp	r3, sl
 106:	464c      	mov	r4, r9
 108:	d1f6      	bne.n	f8 <aesgcm_default_test+0xf8>
    byte key3[] = {
 10a:	4b2e      	ldr	r3, [pc, #184]	; (1c4 <aesgcm_default_test+0x1c4>)
 10c:	f10d 09b8 	add.w	r9, sp, #184	; 0xb8
 110:	f103 0a10 	add.w	sl, r3, #16
 114:	6818      	ldr	r0, [r3, #0]
 116:	6859      	ldr	r1, [r3, #4]
 118:	464c      	mov	r4, r9
 11a:	c403      	stmia	r4!, {r0, r1}
 11c:	3308      	adds	r3, #8
 11e:	4553      	cmp	r3, sl
 120:	46a1      	mov	r9, r4
 122:	d1f7      	bne.n	114 <aesgcm_default_test+0x114>
    byte iv3[] = {
 124:	4c28      	ldr	r4, [pc, #160]	; (1c8 <aesgcm_default_test+0x1c8>)
 126:	6820      	ldr	r0, [r4, #0]
 128:	6861      	ldr	r1, [r4, #4]
 12a:	ab0c      	add	r3, sp, #48	; 0x30
 12c:	c303      	stmia	r3!, {r0, r1}
 12e:	68a0      	ldr	r0, [r4, #8]
    byte tag3[] = {
 130:	4c26      	ldr	r4, [pc, #152]	; (1cc <aesgcm_default_test+0x1cc>)
    byte iv3[] = {
 132:	6018      	str	r0, [r3, #0]
    byte tag3[] = {
 134:	6861      	ldr	r1, [r4, #4]
 136:	6820      	ldr	r0, [r4, #0]
 138:	ab0f      	add	r3, sp, #60	; 0x3c
 13a:	c303      	stmia	r3!, {r0, r1}
 13c:	68a0      	ldr	r0, [r4, #8]
 13e:	6018      	str	r0, [r3, #0]
    ret = aesgcm_default_test_helper(key1, sizeof(key1), iv1, sizeof(iv1),
 140:	2410      	movs	r4, #16
 142:	2320      	movs	r3, #32
 144:	e9cd 8404 	strd	r8, r4, [sp, #16]
 148:	e9cd e402 	strd	lr, r4, [sp, #8]
 14c:	e9cd c300 	strd	ip, r3, [sp]
 150:	a906      	add	r1, sp, #24
 152:	4638      	mov	r0, r7
 154:	f7ff fffe 	bl	0 <aesgcm_default_test>
    if (ret != 0) {
 158:	b9d8      	cbnz	r0, 192 <aesgcm_default_test+0x192>
    ret = aesgcm_default_test_helper(key2, sizeof(key2), iv2, sizeof(iv2),
 15a:	ab26      	add	r3, sp, #152	; 0x98
 15c:	e9cd 0002 	strd	r0, r0, [sp, #8]
 160:	9300      	str	r3, [sp, #0]
 162:	e9cd 6404 	strd	r6, r4, [sp, #16]
 166:	9401      	str	r4, [sp, #4]
 168:	4623      	mov	r3, r4
 16a:	aa22      	add	r2, sp, #136	; 0x88
 16c:	a909      	add	r1, sp, #36	; 0x24
 16e:	4628      	mov	r0, r5
 170:	f7ff fffe 	bl	0 <aesgcm_default_test>
    if (ret != 0) {
 174:	b968      	cbnz	r0, 192 <aesgcm_default_test+0x192>
    ret = aesgcm_default_test_helper(key3, sizeof(key3), iv3, sizeof(iv3),
 176:	230c      	movs	r3, #12
 178:	9305      	str	r3, [sp, #20]
 17a:	ab0f      	add	r3, sp, #60	; 0x3c
 17c:	e9cd 0303 	strd	r0, r3, [sp, #12]
 180:	e9cd 0001 	strd	r0, r0, [sp, #4]
 184:	9000      	str	r0, [sp, #0]
 186:	4603      	mov	r3, r0
 188:	4602      	mov	r2, r0
 18a:	a90c      	add	r1, sp, #48	; 0x30
 18c:	a82e      	add	r0, sp, #184	; 0xb8
 18e:	f7ff fffe 	bl	0 <aesgcm_default_test>
}
 192:	b042      	add	sp, #264	; 0x108
 194:	e8bd 87f0 	ldmia.w	sp!, {r4, r5, r6, r7, r8, r9, sl, pc}
 198:	00000000 	.word	0x00000000
 19c:	00000011 	.word	0x00000011
 1a0:	0000001e 	.word	0x0000001e
 1a4:	0000003f 	.word	0x0000003f
 1a8:	00000050 	.word	0x00000050
 1ac:	00000071 	.word	0x00000071
 1b0:	00000082 	.word	0x00000082
 1b4:	00000093 	.word	0x00000093
 1b8:	000000a0 	.word	0x000000a0
 1bc:	000000b1 	.word	0x000000b1
 1c0:	000000c2 	.word	0x000000c2
 1c4:	000000d3 	.word	0x000000d3
 1c8:	000000e4 	.word	0x000000e4
 1cc:	000000f1 	.word	0x000000f1

Disassembly of section .text.aesgcm_test:

00000000 <aesgcm_test>:
{
   0:	e92d 4ff0 	stmdb	sp!, {r4, r5, r6, r7, r8, r9, sl, fp, lr}
    if ((enc = (Aes *)XMALLOC(sizeof *enc, HEAP_HINT, DYNAMIC_TYPE_AES)) == NULL)
   4:	f44f 709c 	mov.w	r0, #312	; 0x138
{
   8:	b0bb      	sub	sp, #236	; 0xec
    if ((enc = (Aes *)XMALLOC(sizeof *enc, HEAP_HINT, DYNAMIC_TYPE_AES)) == NULL)
   a:	f7ff fffe 	bl	0 <malloc>
   e:	4604      	mov	r4, r0
  10:	2800      	cmp	r0, #0
  12:	f000 8327 	beq.w	664 <aesgcm_test+0x664>
    if ((dec = (Aes *)XMALLOC(sizeof *dec, HEAP_HINT, DYNAMIC_TYPE_AES)) == NULL)
  16:	f44f 709c 	mov.w	r0, #312	; 0x138
  1a:	f7ff fffe 	bl	0 <malloc>
  1e:	4605      	mov	r5, r0
  20:	2800      	cmp	r0, #0
  22:	f000 8321 	beq.w	668 <aesgcm_test+0x668>
    XMEMSET(resultT, 0, sizeof(resultT));
  26:	2220      	movs	r2, #32
  28:	2100      	movs	r1, #0
  2a:	a80c      	add	r0, sp, #48	; 0x30
  2c:	f7ff fffe 	bl	0 <memset>
    XMEMSET(resultC, 0, sizeof(resultC));
  30:	224c      	movs	r2, #76	; 0x4c
  32:	2100      	movs	r1, #0
  34:	a827      	add	r0, sp, #156	; 0x9c
  36:	f7ff fffe 	bl	0 <memset>
    XMEMSET(resultP, 0, sizeof(resultP));
  3a:	224c      	movs	r2, #76	; 0x4c
  3c:	2100      	movs	r1, #0
  3e:	a814      	add	r0, sp, #80	; 0x50
  40:	f7ff fffe 	bl	0 <memset>
    ret = wc_AesInit(enc, HEAP_HINT, devId);
  44:	2100      	movs	r1, #0
  46:	f06f 0201 	mvn.w	r2, #1
  4a:	4620      	mov	r0, r4
  4c:	f7ff fffe 	bl	0 <wc_AesInit>
    if (ret != 0)
  50:	4601      	mov	r1, r0
  52:	b138      	cbz	r0, 64 <aesgcm_test+0x64>
        ERROR_OUT(WC_TEST_RET_ENC_EC(ret), out);
  54:	4241      	negs	r1, r0
  56:	4eb5      	ldr	r6, [pc, #724]	; (32c <aesgcm_test+0x32c>)
  58:	48b5      	ldr	r0, [pc, #724]	; (330 <aesgcm_test+0x330>)
  5a:	f3c1 010a 	ubfx	r1, r1, #0, #11
            ERROR_OUT(WC_TEST_RET_ENC_EC(ret), out);
  5e:	fb01 6600 	mla	r6, r1, r0, r6
  62:	e26a      	b.n	53a <aesgcm_test+0x53a>
    ret = wc_AesInit(dec, HEAP_HINT, devId);
  64:	f06f 0201 	mvn.w	r2, #1
  68:	4628      	mov	r0, r5
  6a:	f7ff fffe 	bl	0 <wc_AesInit>
    if (ret != 0)
  6e:	b128      	cbz	r0, 7c <aesgcm_test+0x7c>
        ERROR_OUT(WC_TEST_RET_ENC_EC(ret), out);
  70:	4240      	negs	r0, r0
  72:	49af      	ldr	r1, [pc, #700]	; (330 <aesgcm_test+0x330>)
  74:	4eaf      	ldr	r6, [pc, #700]	; (334 <aesgcm_test+0x334>)
  76:	f3c0 000a 	ubfx	r0, r0, #0, #11
  7a:	e7f0      	b.n	5e <aesgcm_test+0x5e>
    ret = wc_AesGcmSetKey(enc, k1, k1Sz);
  7c:	49ae      	ldr	r1, [pc, #696]	; (338 <aesgcm_test+0x338>)
  7e:	2220      	movs	r2, #32
  80:	4620      	mov	r0, r4
  82:	f7ff fffe 	bl	0 <wc_AesGcmSetKey>
    if (ret != 0)
  86:	b128      	cbz	r0, 94 <aesgcm_test+0x94>
        ERROR_OUT(WC_TEST_RET_ENC_EC(ret), out);
  88:	4240      	negs	r0, r0
  8a:	49a9      	ldr	r1, [pc, #676]	; (330 <aesgcm_test+0x330>)
  8c:	4eab      	ldr	r6, [pc, #684]	; (33c <aesgcm_test+0x33c>)
  8e:	f3c0 000a 	ubfx	r0, r0, #0, #11
  92:	e7e4      	b.n	5e <aesgcm_test+0x5e>
    ret = wc_AesGcmEncrypt(enc, resultC, p, sizeof(p), iv1, sizeof(iv1),
  94:	ab0c      	add	r3, sp, #48	; 0x30
  96:	f8df 92a8 	ldr.w	r9, [pc, #680]	; 340 <aesgcm_test+0x340>
  9a:	4eaa      	ldr	r6, [pc, #680]	; (344 <aesgcm_test+0x344>)
  9c:	9302      	str	r3, [sp, #8]
  9e:	f04f 0a14 	mov.w	sl, #20
  a2:	2710      	movs	r7, #16
  a4:	f04f 080c 	mov.w	r8, #12
  a8:	4aa7      	ldr	r2, [pc, #668]	; (348 <aesgcm_test+0x348>)
  aa:	f8cd a014 	str.w	sl, [sp, #20]
  ae:	f8cd 9010 	str.w	r9, [sp, #16]
  b2:	9703      	str	r7, [sp, #12]
  b4:	f8cd 8004 	str.w	r8, [sp, #4]
  b8:	9600      	str	r6, [sp, #0]
  ba:	233c      	movs	r3, #60	; 0x3c
  bc:	a927      	add	r1, sp, #156	; 0x9c
  be:	4620      	mov	r0, r4
  c0:	f7ff fffe 	bl	0 <wc_AesGcmEncrypt>
    if (ret != 0)
  c4:	b128      	cbz	r0, d2 <aesgcm_test+0xd2>
        ERROR_OUT(WC_TEST_RET_ENC_EC(ret), out);
  c6:	4240      	negs	r0, r0
  c8:	4999      	ldr	r1, [pc, #612]	; (330 <aesgcm_test+0x330>)
  ca:	4ea0      	ldr	r6, [pc, #640]	; (34c <aesgcm_test+0x34c>)
  cc:	f3c0 000a 	ubfx	r0, r0, #0, #11
  d0:	e7c5      	b.n	5e <aesgcm_test+0x5e>
    if (XMEMCMP(c1, resultC, sizeof(c1)))
  d2:	489f      	ldr	r0, [pc, #636]	; (350 <aesgcm_test+0x350>)
  d4:	223c      	movs	r2, #60	; 0x3c
  d6:	a927      	add	r1, sp, #156	; 0x9c
  d8:	f7ff fffe 	bl	0 <memcmp>
  dc:	2800      	cmp	r0, #0
  de:	f040 82c5 	bne.w	66c <aesgcm_test+0x66c>
    if (XMEMCMP(t1, resultT, sizeof(t1)))
  e2:	489c      	ldr	r0, [pc, #624]	; (354 <aesgcm_test+0x354>)
  e4:	463a      	mov	r2, r7
  e6:	a90c      	add	r1, sp, #48	; 0x30
  e8:	f7ff fffe 	bl	0 <memcmp>
  ec:	2800      	cmp	r0, #0
  ee:	f040 82f3 	bne.w	6d8 <aesgcm_test+0x6d8>
    ret = wc_AesGcmSetKey(dec, k1, k1Sz);
  f2:	4991      	ldr	r1, [pc, #580]	; (338 <aesgcm_test+0x338>)
  f4:	2220      	movs	r2, #32
  f6:	4628      	mov	r0, r5
  f8:	f7ff fffe 	bl	0 <wc_AesGcmSetKey>
    if (ret != 0)
  fc:	b128      	cbz	r0, 10a <aesgcm_test+0x10a>
        ERROR_OUT(WC_TEST_RET_ENC_EC(ret), out);
  fe:	4240      	negs	r0, r0
 100:	498b      	ldr	r1, [pc, #556]	; (330 <aesgcm_test+0x330>)
 102:	4e95      	ldr	r6, [pc, #596]	; (358 <aesgcm_test+0x358>)
 104:	f3c0 000a 	ubfx	r0, r0, #0, #11
 108:	e7a9      	b.n	5e <aesgcm_test+0x5e>
    ret = wc_AesGcmDecrypt(dec, resultP, resultC, sizeof(c1),
 10a:	ab0c      	add	r3, sp, #48	; 0x30
 10c:	e9cd 8301 	strd	r8, r3, [sp, #4]
 110:	e9cd 9a04 	strd	r9, sl, [sp, #16]
 114:	9703      	str	r7, [sp, #12]
 116:	9600      	str	r6, [sp, #0]
 118:	233c      	movs	r3, #60	; 0x3c
 11a:	aa27      	add	r2, sp, #156	; 0x9c
 11c:	a914      	add	r1, sp, #80	; 0x50
 11e:	4628      	mov	r0, r5
 120:	f7ff fffe 	bl	0 <wc_AesGcmDecrypt>
    if (ret != 0)
 124:	b128      	cbz	r0, 132 <aesgcm_test+0x132>
        ERROR_OUT(WC_TEST_RET_ENC_EC(ret), out);
 126:	4240      	negs	r0, r0
 128:	4981      	ldr	r1, [pc, #516]	; (330 <aesgcm_test+0x330>)
 12a:	4e8c      	ldr	r6, [pc, #560]	; (35c <aesgcm_test+0x35c>)
 12c:	f3c0 000a 	ubfx	r0, r0, #0, #11
 130:	e795      	b.n	5e <aesgcm_test+0x5e>
    if (XMEMCMP(p, resultP, sizeof(p)))
 132:	4885      	ldr	r0, [pc, #532]	; (348 <aesgcm_test+0x348>)
 134:	223c      	movs	r2, #60	; 0x3c
 136:	a914      	add	r1, sp, #80	; 0x50
 138:	f7ff fffe 	bl	0 <memcmp>
 13c:	2800      	cmp	r0, #0
 13e:	f040 82cd 	bne.w	6dc <aesgcm_test+0x6dc>
         ret = wc_AesGcmEncrypt(enc, resultC, p, sizeof(p), k1,
 142:	f8df 91fc 	ldr.w	r9, [pc, #508]	; 340 <aesgcm_test+0x340>
 146:	f8df a1f0 	ldr.w	sl, [pc, #496]	; 338 <aesgcm_test+0x338>
    for (ivlen=1; ivlen<k1Sz; ivlen++) {
 14a:	2701      	movs	r7, #1
         ret = wc_AesGcmEncrypt(enc, resultC, p, sizeof(p), k1,
 14c:	f04f 0b14 	mov.w	fp, #20
 150:	f04f 0810 	mov.w	r8, #16
 154:	ae0c      	add	r6, sp, #48	; 0x30
 156:	e9cd 9b04 	strd	r9, fp, [sp, #16]
 15a:	e9cd 7601 	strd	r7, r6, [sp, #4]
 15e:	4a7a      	ldr	r2, [pc, #488]	; (348 <aesgcm_test+0x348>)
 160:	f8cd 800c 	str.w	r8, [sp, #12]
 164:	f8cd a000 	str.w	sl, [sp]
 168:	233c      	movs	r3, #60	; 0x3c
 16a:	a927      	add	r1, sp, #156	; 0x9c
 16c:	4620      	mov	r0, r4
 16e:	f7ff fffe 	bl	0 <wc_AesGcmEncrypt>
        if (ret != 0)
 172:	b128      	cbz	r0, 180 <aesgcm_test+0x180>
            ERROR_OUT(WC_TEST_RET_ENC_EC(ret), out);
 174:	4240      	negs	r0, r0
 176:	496e      	ldr	r1, [pc, #440]	; (330 <aesgcm_test+0x330>)
 178:	4e79      	ldr	r6, [pc, #484]	; (360 <aesgcm_test+0x360>)
 17a:	f3c0 000a 	ubfx	r0, r0, #0, #11
 17e:	e76e      	b.n	5e <aesgcm_test+0x5e>
        ret = wc_AesGcmDecrypt(dec, resultP, resultC, sizeof(c1), k1,
 180:	e9cd 6802 	strd	r6, r8, [sp, #8]
 184:	e9cd 9b04 	strd	r9, fp, [sp, #16]
 188:	e9cd a700 	strd	sl, r7, [sp]
 18c:	233c      	movs	r3, #60	; 0x3c
 18e:	aa27      	add	r2, sp, #156	; 0x9c
 190:	a914      	add	r1, sp, #80	; 0x50
 192:	4628      	mov	r0, r5
 194:	f7ff fffe 	bl	0 <wc_AesGcmDecrypt>
        if (ret != 0)
 198:	4606      	mov	r6, r0
 19a:	b128      	cbz	r0, 1a8 <aesgcm_test+0x1a8>
            ERROR_OUT(WC_TEST_RET_ENC_EC(ret), out);
 19c:	4246      	negs	r6, r0
 19e:	f3c6 000a 	ubfx	r0, r6, #0, #11
 1a2:	4963      	ldr	r1, [pc, #396]	; (330 <aesgcm_test+0x330>)
 1a4:	4e6f      	ldr	r6, [pc, #444]	; (364 <aesgcm_test+0x364>)
 1a6:	e75a      	b.n	5e <aesgcm_test+0x5e>
    for (ivlen=1; ivlen<k1Sz; ivlen++) {
 1a8:	3701      	adds	r7, #1
 1aa:	2f20      	cmp	r7, #32
 1ac:	d1ce      	bne.n	14c <aesgcm_test+0x14c>
         ret = wc_AesGcmEncrypt(enc, resultC, p, sizeof(p), iv1,
 1ae:	f8df 9198 	ldr.w	r9, [pc, #408]	; 348 <aesgcm_test+0x348>
 1b2:	f8df a190 	ldr.w	sl, [pc, #400]	; 344 <aesgcm_test+0x344>
 1b6:	4a64      	ldr	r2, [pc, #400]	; (348 <aesgcm_test+0x348>)
 1b8:	f8cd 800c 	str.w	r8, [sp, #12]
 1bc:	af0c      	add	r7, sp, #48	; 0x30
 1be:	f04f 0b0c 	mov.w	fp, #12
 1c2:	e9cd 9604 	strd	r9, r6, [sp, #16]
 1c6:	e9cd ab00 	strd	sl, fp, [sp]
 1ca:	9702      	str	r7, [sp, #8]
 1cc:	233c      	movs	r3, #60	; 0x3c
 1ce:	a927      	add	r1, sp, #156	; 0x9c
 1d0:	4620      	mov	r0, r4
 1d2:	f7ff fffe 	bl	0 <wc_AesGcmEncrypt>
        if (ret != 0)
 1d6:	b128      	cbz	r0, 1e4 <aesgcm_test+0x1e4>
            ERROR_OUT(WC_TEST_RET_ENC_EC(ret), out);
 1d8:	4240      	negs	r0, r0
 1da:	4955      	ldr	r1, [pc, #340]	; (330 <aesgcm_test+0x330>)
 1dc:	4e62      	ldr	r6, [pc, #392]	; (368 <aesgcm_test+0x368>)
 1de:	f3c0 000a 	ubfx	r0, r0, #0, #11
 1e2:	e73c      	b.n	5e <aesgcm_test+0x5e>
        ret = wc_AesGcmDecrypt(dec, resultP, resultC, sizeof(c1), iv1,
 1e4:	e9cd 9604 	strd	r9, r6, [sp, #16]
 1e8:	e9cd 7802 	strd	r7, r8, [sp, #8]
 1ec:	e9cd ab00 	strd	sl, fp, [sp]
 1f0:	233c      	movs	r3, #60	; 0x3c
 1f2:	aa27      	add	r2, sp, #156	; 0x9c
 1f4:	a914      	add	r1, sp, #80	; 0x50
 1f6:	4628      	mov	r0, r5
 1f8:	f7ff fffe 	bl	0 <wc_AesGcmDecrypt>
        if (ret != 0)
 1fc:	b128      	cbz	r0, 20a <aesgcm_test+0x20a>
            ERROR_OUT(WC_TEST_RET_ENC_EC(ret), out);
 1fe:	4240      	negs	r0, r0
 200:	494b      	ldr	r1, [pc, #300]	; (330 <aesgcm_test+0x330>)
 202:	4e5a      	ldr	r6, [pc, #360]	; (36c <aesgcm_test+0x36c>)
 204:	f3c0 000a 	ubfx	r0, r0, #0, #11
 208:	e729      	b.n	5e <aesgcm_test+0x5e>
    for (alen=0; alen<(int)sizeof(p); alen++) {
 20a:	3601      	adds	r6, #1
 20c:	2e3c      	cmp	r6, #60	; 0x3c
 20e:	d1d2      	bne.n	1b6 <aesgcm_test+0x1b6>
         ret = wc_AesGcmEncrypt(enc, resultC, p, (word32)plen, iv1,
 210:	f8df a130 	ldr.w	sl, [pc, #304]	; 344 <aesgcm_test+0x344>
    for (plen=1; plen<(int)sizeof(p); plen++) {
 214:	f04f 0801 	mov.w	r8, #1
         ret = wc_AesGcmEncrypt(enc, resultC, p, (word32)plen, iv1,
 218:	4b49      	ldr	r3, [pc, #292]	; (340 <aesgcm_test+0x340>)
 21a:	9304      	str	r3, [sp, #16]
 21c:	f04f 0914 	mov.w	r9, #20
 220:	2610      	movs	r6, #16
 222:	af0c      	add	r7, sp, #48	; 0x30
 224:	f04f 0b0c 	mov.w	fp, #12
 228:	e9cd ab00 	strd	sl, fp, [sp]
 22c:	4a46      	ldr	r2, [pc, #280]	; (348 <aesgcm_test+0x348>)
 22e:	f8cd 9014 	str.w	r9, [sp, #20]
 232:	9603      	str	r6, [sp, #12]
 234:	9702      	str	r7, [sp, #8]
 236:	4643      	mov	r3, r8
 238:	a927      	add	r1, sp, #156	; 0x9c
 23a:	4620      	mov	r0, r4
 23c:	f7ff fffe 	bl	0 <wc_AesGcmEncrypt>
        if (ret != 0)
 240:	b128      	cbz	r0, 24e <aesgcm_test+0x24e>
            ERROR_OUT(WC_TEST_RET_ENC_EC(ret), out);
 242:	4240      	negs	r0, r0
 244:	493a      	ldr	r1, [pc, #232]	; (330 <aesgcm_test+0x330>)
 246:	4e4a      	ldr	r6, [pc, #296]	; (370 <aesgcm_test+0x370>)
 248:	f3c0 000a 	ubfx	r0, r0, #0, #11
 24c:	e707      	b.n	5e <aesgcm_test+0x5e>
        ret = wc_AesGcmDecrypt(dec, resultP, resultC, (word32)plen, iv1,
 24e:	4b3c      	ldr	r3, [pc, #240]	; (340 <aesgcm_test+0x340>)
 250:	f8cd 9014 	str.w	r9, [sp, #20]
 254:	e9cd 6303 	strd	r6, r3, [sp, #12]
 258:	e9cd b701 	strd	fp, r7, [sp, #4]
 25c:	f8cd a000 	str.w	sl, [sp]
 260:	4643      	mov	r3, r8
 262:	aa27      	add	r2, sp, #156	; 0x9c
 264:	a914      	add	r1, sp, #80	; 0x50
 266:	4628      	mov	r0, r5
 268:	f7ff fffe 	bl	0 <wc_AesGcmDecrypt>
        if (ret != 0)
 26c:	4683      	mov	fp, r0
 26e:	b128      	cbz	r0, 27c <aesgcm_test+0x27c>
            ERROR_OUT(WC_TEST_RET_ENC_EC(ret), out);
 270:	4240      	negs	r0, r0
 272:	492f      	ldr	r1, [pc, #188]	; (330 <aesgcm_test+0x330>)
 274:	4e3f      	ldr	r6, [pc, #252]	; (374 <aesgcm_test+0x374>)
 276:	f3c0 000a 	ubfx	r0, r0, #0, #11
 27a:	e6f0      	b.n	5e <aesgcm_test+0x5e>
    for (plen=1; plen<(int)sizeof(p); plen++) {
 27c:	f108 0801 	add.w	r8, r8, #1
 280:	f1b8 0f3c 	cmp.w	r8, #60	; 0x3c
 284:	d1c8      	bne.n	218 <aesgcm_test+0x218>
    XMEMSET(resultT, 0, sizeof(resultT));
 286:	4601      	mov	r1, r0
 288:	2220      	movs	r2, #32
 28a:	4638      	mov	r0, r7
 28c:	f7ff fffe 	bl	0 <memset>
    XMEMSET(resultC, 0, sizeof(resultC));
 290:	224c      	movs	r2, #76	; 0x4c
 292:	4659      	mov	r1, fp
 294:	a827      	add	r0, sp, #156	; 0x9c
 296:	f7ff fffe 	bl	0 <memset>
    XMEMSET(resultP, 0, sizeof(resultP));
 29a:	224c      	movs	r2, #76	; 0x4c
 29c:	4659      	mov	r1, fp
 29e:	a814      	add	r0, sp, #80	; 0x50
 2a0:	f7ff fffe 	bl	0 <memset>
    wc_AesGcmSetKey(enc, k2, sizeof(k2));
 2a4:	4934      	ldr	r1, [pc, #208]	; (378 <aesgcm_test+0x378>)
    ret = wc_AesGcmEncrypt(enc, resultC, p, sizeof(p), iv2, sizeof(iv2),
 2a6:	f8df a0d4 	ldr.w	sl, [pc, #212]	; 37c <aesgcm_test+0x37c>
    wc_AesGcmSetKey(enc, k2, sizeof(k2));
 2aa:	2218      	movs	r2, #24
 2ac:	4620      	mov	r0, r4
 2ae:	f7ff fffe 	bl	0 <wc_AesGcmSetKey>
    ret = wc_AesGcmEncrypt(enc, resultC, p, sizeof(p), iv2, sizeof(iv2),
 2b2:	4b23      	ldr	r3, [pc, #140]	; (340 <aesgcm_test+0x340>)
 2b4:	4a24      	ldr	r2, [pc, #144]	; (348 <aesgcm_test+0x348>)
 2b6:	f8cd 9014 	str.w	r9, [sp, #20]
 2ba:	e9cd 6303 	strd	r6, r3, [sp, #12]
 2be:	e9cd 8701 	strd	r8, r7, [sp, #4]
 2c2:	f8cd a000 	str.w	sl, [sp]
 2c6:	4643      	mov	r3, r8
 2c8:	a927      	add	r1, sp, #156	; 0x9c
 2ca:	4620      	mov	r0, r4
 2cc:	f7ff fffe 	bl	0 <wc_AesGcmEncrypt>
    if (ret != 0)
 2d0:	b128      	cbz	r0, 2de <aesgcm_test+0x2de>
        ERROR_OUT(WC_TEST_RET_ENC_EC(ret), out);
 2d2:	4240      	negs	r0, r0
 2d4:	4916      	ldr	r1, [pc, #88]	; (330 <aesgcm_test+0x330>)
 2d6:	4e2a      	ldr	r6, [pc, #168]	; (380 <aesgcm_test+0x380>)
 2d8:	f3c0 000a 	ubfx	r0, r0, #0, #11
 2dc:	e6bf      	b.n	5e <aesgcm_test+0x5e>
    if (XMEMCMP(c2, resultC, sizeof(c2)))
 2de:	4829      	ldr	r0, [pc, #164]	; (384 <aesgcm_test+0x384>)
 2e0:	4642      	mov	r2, r8
 2e2:	a927      	add	r1, sp, #156	; 0x9c
 2e4:	f7ff fffe 	bl	0 <memcmp>
 2e8:	2800      	cmp	r0, #0
 2ea:	f040 81f9 	bne.w	6e0 <aesgcm_test+0x6e0>
    if (XMEMCMP(t2, resultT, sizeof(t1)))
 2ee:	4826      	ldr	r0, [pc, #152]	; (388 <aesgcm_test+0x388>)
 2f0:	4632      	mov	r2, r6
 2f2:	4639      	mov	r1, r7
 2f4:	f7ff fffe 	bl	0 <memcmp>
 2f8:	2800      	cmp	r0, #0
 2fa:	f040 81f3 	bne.w	6e4 <aesgcm_test+0x6e4>
    ret = wc_AesGcmDecrypt(enc, resultP, resultC, sizeof(c1),
 2fe:	4b10      	ldr	r3, [pc, #64]	; (340 <aesgcm_test+0x340>)
 300:	f8cd 9014 	str.w	r9, [sp, #20]
 304:	e9cd 6303 	strd	r6, r3, [sp, #12]
 308:	e9cd 8701 	strd	r8, r7, [sp, #4]
 30c:	f8cd a000 	str.w	sl, [sp]
 310:	4643      	mov	r3, r8
 312:	aa27      	add	r2, sp, #156	; 0x9c
 314:	a914      	add	r1, sp, #80	; 0x50
 316:	4620      	mov	r0, r4
 318:	f7ff fffe 	bl	0 <wc_AesGcmDecrypt>
    if (ret != 0)
 31c:	b3c0      	cbz	r0, 390 <aesgcm_test+0x390>
        ERROR_OUT(WC_TEST_RET_ENC_EC(ret), out);
 31e:	4240      	negs	r0, r0
 320:	4903      	ldr	r1, [pc, #12]	; (330 <aesgcm_test+0x330>)
 322:	4e1a      	ldr	r6, [pc, #104]	; (38c <aesgcm_test+0x38c>)
