
Build/WolfCryptTest.elf:     file format elf32-littlearm


Disassembly of section .text:

08000000 <main>:

static func_args args = { 0 } ;
#endif

int main(void)
{
 8000000:	b510      	push	{r4, lr}
    int ret;
#ifndef NO_CRYPT_TEST
	wolfCrypt_Init();

	printf("\nCrypt Test\n");
	wolfcrypt_test(&args);
 8000002:	4c09      	ldr	r4, [pc, #36]	; (8000028 <main+0x28>)
	wolfCrypt_Init();
 8000004:	f01a fbba 	bl	801a77c <wolfCrypt_Init>
	printf("\nCrypt Test\n");
 8000008:	4808      	ldr	r0, [pc, #32]	; (800002c <main+0x2c>)
 800000a:	f01b f8f7 	bl	801b1fc <iprintf>
	wolfcrypt_test(&args);
 800000e:	4620      	mov	r0, r4
 8000010:	f005 fe06 	bl	8005c20 <wolfcrypt_test>
    ret = args.return_code;
 8000014:	68a4      	ldr	r4, [r4, #8]
	printf("Crypt Test: Return code %d\n", ret);
 8000016:	4806      	ldr	r0, [pc, #24]	; (8000030 <main+0x30>)
 8000018:	4621      	mov	r1, r4
 800001a:	f01b f8ef 	bl	801b1fc <iprintf>

	wolfCrypt_Cleanup();
 800001e:	f01a fbb7 	bl	801a790 <wolfCrypt_Cleanup>
#else
    ret = NOT_COMPILED_IN;
#endif
	return ret;
}
 8000022:	4620      	mov	r0, r4
 8000024:	bd10      	pop	{r4, pc}
 8000026:	bf00      	nop
 8000028:	200001ec 	.word	0x200001ec
 800002c:	0801c0a1 	.word	0x0801c0a1
 8000030:	0801c0ae 	.word	0x0801c0ae

08000034 <my_time>:
static int gTimeMs;
static int hw_get_time_sec(void)
{
    #warning Must implement your own time source if validating certificates

	return ++gTimeMs;
 8000034:	4b02      	ldr	r3, [pc, #8]	; (8000040 <my_time+0xc>)
 8000036:	6818      	ldr	r0, [r3, #0]
 8000038:	3001      	adds	r0, #1
 800003a:	6018      	str	r0, [r3, #0]
/* This is used by wolfCrypt asn.c for cert time checking */
unsigned long my_time(unsigned long* timer)
{
    (void)timer;
    return hw_get_time_sec();
}
 800003c:	4770      	bx	lr
 800003e:	bf00      	nop
 8000040:	200001fc 	.word	0x200001fc

08000044 <hw_rand>:
static unsigned int gCounter;
unsigned int hw_rand(void)
{
    #warning Must implement your own random source

    return ++gCounter;
 8000044:	4b02      	ldr	r3, [pc, #8]	; (8000050 <hw_rand+0xc>)
 8000046:	6818      	ldr	r0, [r3, #0]
 8000048:	3001      	adds	r0, #1
 800004a:	6018      	str	r0, [r3, #0]
}
 800004c:	4770      	bx	lr
 800004e:	bf00      	nop
 8000050:	200001f8 	.word	0x200001f8

08000054 <my_rng_gen_block>:
{
    return hw_rand();
}

int my_rng_gen_block(unsigned char* output, unsigned int sz)
{
 8000054:	b570      	push	{r4, r5, r6, lr}
    uint32_t i = 0;
 8000056:	2200      	movs	r2, #0
{
 8000058:	4604      	mov	r4, r0

    while (i < sz)
 800005a:	428a      	cmp	r2, r1
 800005c:	d301      	bcc.n	8000062 <my_rng_gen_block+0xe>
            i += sizeof(CUSTOM_RAND_TYPE);
        }
    }

    return 0;
}
 800005e:	2000      	movs	r0, #0
 8000060:	bd70      	pop	{r4, r5, r6, pc}
        if( (i + sizeof(CUSTOM_RAND_TYPE)) > sz ||
 8000062:	1d15      	adds	r5, r2, #4
 8000064:	428d      	cmp	r5, r1
            ((uint32_t)&output[i] % sizeof(CUSTOM_RAND_TYPE)) != 0
 8000066:	eb04 0602 	add.w	r6, r4, r2
        if( (i + sizeof(CUSTOM_RAND_TYPE)) > sz ||
 800006a:	d801      	bhi.n	8000070 <my_rng_gen_block+0x1c>
 800006c:	07b3      	lsls	r3, r6, #30
 800006e:	d005      	beq.n	800007c <my_rng_gen_block+0x28>
    return hw_rand();
 8000070:	f7ff ffe8 	bl	8000044 <hw_rand>
            output[i++] = (unsigned char)my_rng_seed_gen();
 8000074:	1c55      	adds	r5, r2, #1
 8000076:	7030      	strb	r0, [r6, #0]
{
 8000078:	462a      	mov	r2, r5
 800007a:	e7ee      	b.n	800005a <my_rng_gen_block+0x6>
    return hw_rand();
 800007c:	f7ff ffe2 	bl	8000044 <hw_rand>
            *((CUSTOM_RAND_TYPE*)&output[i]) = my_rng_seed_gen();
 8000080:	6030      	str	r0, [r6, #0]
            i += sizeof(CUSTOM_RAND_TYPE);
 8000082:	e7f9      	b.n	8000078 <my_rng_gen_block+0x24>

08000084 <memcpy32>:
extern uint32_t __heap_end__[];

/* Copy memory: src=Source, dst_beg=Destination Begin, dst_end=Destination End */
void memcpy32(uint32_t* src, uint32_t* dst_beg, uint32_t* dst_end)
{
    while (dst_beg < dst_end) {
 8000084:	428a      	cmp	r2, r1
 8000086:	d800      	bhi.n	800008a <memcpy32+0x6>
        *dst_beg++ = *src++;
    }
}
 8000088:	4770      	bx	lr
        *dst_beg++ = *src++;
 800008a:	f850 3b04 	ldr.w	r3, [r0], #4
 800008e:	f841 3b04 	str.w	r3, [r1], #4
 8000092:	e7f7      	b.n	8000084 <memcpy32>

08000094 <meminit32>:
/* Zero address in range */
void meminit32(uint32_t* start, uint32_t* end)
{
    while (start < end) {
        *start++ = 0;
 8000094:	2300      	movs	r3, #0
    while (start < end) {
 8000096:	4288      	cmp	r0, r1
 8000098:	d300      	bcc.n	800009c <meminit32+0x8>
    }
}
 800009a:	4770      	bx	lr
        *start++ = 0;
 800009c:	f840 3b04 	str.w	r3, [r0], #4
 80000a0:	e7f9      	b.n	8000096 <meminit32+0x2>
	...

080000a4 <reset_handler>:
#endif /* USE_WOLF_ARM_STARTUP */

/* Entry Point */
void reset_handler(void)
{
 80000a4:	b508      	push	{r3, lr}
#ifdef USE_WOLF_ARM_STARTUP
    /* Init sections */
    memcpy32(__data_load_start__, __data_start__, __data_end__);
 80000a6:	4a09      	ldr	r2, [pc, #36]	; (80000cc <reset_handler+0x28>)
 80000a8:	4909      	ldr	r1, [pc, #36]	; (80000d0 <reset_handler+0x2c>)
 80000aa:	480a      	ldr	r0, [pc, #40]	; (80000d4 <reset_handler+0x30>)
 80000ac:	f7ff ffea 	bl	8000084 <memcpy32>
    meminit32(__bss_start__, __bss_end__);
 80000b0:	4909      	ldr	r1, [pc, #36]	; (80000d8 <reset_handler+0x34>)
 80000b2:	480a      	ldr	r0, [pc, #40]	; (80000dc <reset_handler+0x38>)
 80000b4:	f7ff ffee 	bl	8000094 <meminit32>

    /* Init heap */
    __heap_start__[0] = 0;
 80000b8:	4b09      	ldr	r3, [pc, #36]	; (80000e0 <reset_handler+0x3c>)
 80000ba:	2200      	movs	r2, #0
 80000bc:	601a      	str	r2, [r3, #0]
    __heap_start__[1] = ((uintptr_t)__heap_end__ - (uintptr_t)__heap_start__);
 80000be:	4a09      	ldr	r2, [pc, #36]	; (80000e4 <reset_handler+0x40>)
 80000c0:	1ad2      	subs	r2, r2, r3
 80000c2:	605a      	str	r2, [r3, #4]
#endif /* USE_WOLF_ARM_STARTUP */

    /* Start main */
    extern int main(void);
    main();
 80000c4:	f7ff ff9c 	bl	8000000 <main>

    /* Application has ended, so busy wait */
    while(1);
 80000c8:	e7fe      	b.n	80000c8 <reset_handler+0x24>
 80000ca:	bf00      	nop
 80000cc:	0801c28d 	.word	0x0801c28d
 80000d0:	0801c0a1 	.word	0x0801c0a1
 80000d4:	0801c0a1 	.word	0x0801c0a1
 80000d8:	2000021c 	.word	0x2000021c
 80000dc:	200001ec 	.word	0x200001ec
 80000e0:	2000021c 	.word	0x2000021c
 80000e4:	2000021c 	.word	0x2000021c

080000e8 <time_cb>:
#endif /* WOLFSSL_CERT_PIV */

#if !defined(NO_ASN) && !defined(NO_ASN_TIME)
static time_t time_cb(time_t* t)
{
    if (t != NULL) {
 80000e8:	b118      	cbz	r0, 80000f2 <time_cb+0xa>
        *t = 99;
 80000ea:	2263      	movs	r2, #99	; 0x63
 80000ec:	2300      	movs	r3, #0
 80000ee:	e9c0 2300 	strd	r2, r3, [r0]
    }

    return 99;
}
 80000f2:	2063      	movs	r0, #99	; 0x63
 80000f4:	2100      	movs	r1, #0
 80000f6:	4770      	bx	lr

080000f8 <print_fiducials>:
static const int fiducial4 = WC_TEST_RET_LN;

/* print the fiducial line numbers assigned above, allowing confirmation of
 * source code version match when in doubt.
 */
static void print_fiducials(void) {
 80000f8:	b507      	push	{r0, r1, r2, lr}
    printf(" [fiducial line numbers: %d %d %d %d]\n",
 80000fa:	f64b 6368 	movw	r3, #48744	; 0xbe68
 80000fe:	9300      	str	r3, [sp, #0]
 8000100:	f645 72a8 	movw	r2, #24488	; 0x5fa8
 8000104:	f648 63d5 	movw	r3, #36565	; 0x8ed5
 8000108:	f641 61f1 	movw	r1, #7921	; 0x1ef1
 800010c:	4805      	ldr	r0, [pc, #20]	; (8000124 <print_fiducials+0x2c>)
 800010e:	f01b f875 	bl	801b1fc <iprintf>
 8000112:	4b05      	ldr	r3, [pc, #20]	; (8000128 <print_fiducials+0x30>)
 8000114:	681b      	ldr	r3, [r3, #0]
 8000116:	6898      	ldr	r0, [r3, #8]
           fiducial1, fiducial2, fiducial3, fiducial4);
}
 8000118:	b003      	add	sp, #12
 800011a:	f85d eb04 	ldr.w	lr, [sp], #4
    printf(" [fiducial line numbers: %d %d %d %d]\n",
 800011e:	f01a be35 	b.w	801ad8c <fflush>
 8000122:	bf00      	nop
 8000124:	0801db5d 	.word	0x0801db5d
 8000128:	20000188 	.word	0x20000188

0800012c <render_error_message>:
{
 800012c:	b573      	push	{r0, r1, r4, r5, r6, lr}
    switch (WC_TEST_RET_DEC_TAG(es)) {
 800012e:	424c      	negs	r4, r1
 8000130:	1762      	asrs	r2, r4, #29
{
 8000132:	4605      	mov	r5, r0
    switch (WC_TEST_RET_DEC_TAG(es)) {
 8000134:	2a03      	cmp	r2, #3
 8000136:	d83e      	bhi.n	80001b6 <render_error_message+0x8a>
 8000138:	e8df f002 	tbb	[pc, r2]
 800013c:	33271302 	.word	0x33271302
        err_sys_printf("%s error L=%d\n", msg, WC_TEST_RET_DEC_LN(es));
 8000140:	4a1e      	ldr	r2, [pc, #120]	; (80001bc <render_error_message+0x90>)
 8000142:	fb94 f1f2 	sdiv	r1, r4, r2
 8000146:	fb02 4211 	mls	r2, r2, r1, r4
 800014a:	4601      	mov	r1, r0
 800014c:	481c      	ldr	r0, [pc, #112]	; (80001c0 <render_error_message+0x94>)
 800014e:	f01b f855 	bl	801b1fc <iprintf>
        err_sys_printf("%s error L=%d i=%d\n", msg,
 8000152:	4b1c      	ldr	r3, [pc, #112]	; (80001c4 <render_error_message+0x98>)
 8000154:	681b      	ldr	r3, [r3, #0]
 8000156:	6898      	ldr	r0, [r3, #8]
}
 8000158:	b002      	add	sp, #8
 800015a:	e8bd 4070 	ldmia.w	sp!, {r4, r5, r6, lr}
        err_sys_printf("%s error L=%d i=%d\n", msg,
 800015e:	f01a be15 	b.w	801ad8c <fflush>
        err_sys_printf("%s error L=%d code=%d (%s)\n", msg,
 8000162:	f024 44c0 	bic.w	r4, r4, #1610612736	; 0x60000000
 8000166:	4e18      	ldr	r6, [pc, #96]	; (80001c8 <render_error_message+0x9c>)
 8000168:	fb94 f6f6 	sdiv	r6, r4, r6
 800016c:	4630      	mov	r0, r6
 800016e:	f012 ffcd 	bl	801310c <wc_GetErrorString>
 8000172:	4a12      	ldr	r2, [pc, #72]	; (80001bc <render_error_message+0x90>)
 8000174:	9000      	str	r0, [sp, #0]
 8000176:	fbb4 f1f2 	udiv	r1, r4, r2
 800017a:	4633      	mov	r3, r6
 800017c:	fb02 4211 	mls	r2, r2, r1, r4
 8000180:	4812      	ldr	r0, [pc, #72]	; (80001cc <render_error_message+0xa0>)
 8000182:	4629      	mov	r1, r5
 8000184:	f01b f83a 	bl	801b1fc <iprintf>
 8000188:	e7e3      	b.n	8000152 <render_error_message+0x26>
        err_sys_printf("%s error L=%d errno=%d\n", msg,
 800018a:	490c      	ldr	r1, [pc, #48]	; (80001bc <render_error_message+0x90>)
 800018c:	f024 42c0 	bic.w	r2, r4, #1610612736	; 0x60000000
 8000190:	fbb2 f3f1 	udiv	r3, r2, r1
 8000194:	fb01 2213 	mls	r2, r1, r3, r2
 8000198:	4601      	mov	r1, r0
 800019a:	480d      	ldr	r0, [pc, #52]	; (80001d0 <render_error_message+0xa4>)
        err_sys_printf("%s error L=%d i=%d\n", msg,
 800019c:	f01b f82e 	bl	801b1fc <iprintf>
 80001a0:	e7d7      	b.n	8000152 <render_error_message+0x26>
 80001a2:	4906      	ldr	r1, [pc, #24]	; (80001bc <render_error_message+0x90>)
 80001a4:	f024 42c0 	bic.w	r2, r4, #1610612736	; 0x60000000
 80001a8:	fbb2 f3f1 	udiv	r3, r2, r1
 80001ac:	fb01 2213 	mls	r2, r1, r3, r2
 80001b0:	4601      	mov	r1, r0
 80001b2:	4808      	ldr	r0, [pc, #32]	; (80001d4 <render_error_message+0xa8>)
 80001b4:	e7f2      	b.n	800019c <render_error_message+0x70>
}
 80001b6:	b002      	add	sp, #8
 80001b8:	bd70      	pop	{r4, r5, r6, pc}
 80001ba:	bf00      	nop
 80001bc:	000186a0 	.word	0x000186a0
 80001c0:	0801db84 	.word	0x0801db84
 80001c4:	20000188 	.word	0x20000188
 80001c8:	fffe7960 	.word	0xfffe7960
 80001cc:	0801db93 	.word	0x0801db93
 80001d0:	0801dbaf 	.word	0x0801dbaf
 80001d4:	0801dbc7 	.word	0x0801dbc7

080001d8 <_rng_test>:
{
 80001d8:	b5f0      	push	{r4, r5, r6, r7, lr}
 80001da:	b089      	sub	sp, #36	; 0x24
 80001dc:	4605      	mov	r5, r0
    XMEMSET(block, 0, sizeof(block));
 80001de:	2220      	movs	r2, #32
{
 80001e0:	460f      	mov	r7, r1
    XMEMSET(block, 0, sizeof(block));
 80001e2:	4668      	mov	r0, sp
 80001e4:	2100      	movs	r1, #0
 80001e6:	f01a ff23 	bl	801b030 <memset>
    ret = wc_RNG_GenerateBlock(rng, block, sizeof(block));
 80001ea:	2220      	movs	r2, #32
 80001ec:	4669      	mov	r1, sp
 80001ee:	4628      	mov	r0, r5
 80001f0:	f00c fa54 	bl	800c69c <wc_RNG_GenerateBlock>
    if (ret != 0) {
 80001f4:	bb80      	cbnz	r0, 8000258 <_rng_test+0x80>
 80001f6:	466b      	mov	r3, sp
    for (i=0; i<(int)sizeof(block); i++) {
 80001f8:	4606      	mov	r6, r0
        if (block[i] == 0) {
 80001fa:	f813 2b01 	ldrb.w	r2, [r3], #1
 80001fe:	b902      	cbnz	r2, 8000202 <_rng_test+0x2a>
            ret++;
 8000200:	3001      	adds	r0, #1
    for (i=0; i<(int)sizeof(block); i++) {
 8000202:	3601      	adds	r6, #1
 8000204:	2e20      	cmp	r6, #32
 8000206:	d1f8      	bne.n	80001fa <_rng_test+0x22>
    if (ret >= (int)sizeof(block)) {
 8000208:	281f      	cmp	r0, #31
 800020a:	dc27      	bgt.n	800025c <_rng_test+0x84>
    ret = wc_RNG_GenerateByte(rng, block);
 800020c:	4669      	mov	r1, sp
 800020e:	4628      	mov	r0, r5
 8000210:	f00c fa59 	bl	800c6c6 <wc_RNG_GenerateByte>
    if (ret != 0) {
 8000214:	4604      	mov	r4, r0
 8000216:	bb18      	cbnz	r0, 8000260 <_rng_test+0x88>
    ret = wc_RNG_GenerateBlock(NULL, block, sizeof(block));
 8000218:	4632      	mov	r2, r6
 800021a:	4669      	mov	r1, sp
 800021c:	f00c fa3e 	bl	800c69c <wc_RNG_GenerateBlock>
    if (ret != BAD_FUNC_ARG) {
 8000220:	30ad      	adds	r0, #173	; 0xad
 8000222:	d11f      	bne.n	8000264 <_rng_test+0x8c>
    ret = wc_RNG_GenerateBlock(rng, NULL, sizeof(block));
 8000224:	4632      	mov	r2, r6
 8000226:	4621      	mov	r1, r4
 8000228:	4628      	mov	r0, r5
 800022a:	f00c fa37 	bl	800c69c <wc_RNG_GenerateBlock>
    if (ret != BAD_FUNC_ARG) {
 800022e:	30ad      	adds	r0, #173	; 0xad
 8000230:	d11a      	bne.n	8000268 <_rng_test+0x90>
    ret = wc_RNG_GenerateByte(NULL, block);
 8000232:	4669      	mov	r1, sp
 8000234:	4620      	mov	r0, r4
 8000236:	f00c fa46 	bl	800c6c6 <wc_RNG_GenerateByte>
    if (ret != BAD_FUNC_ARG) {
 800023a:	30ad      	adds	r0, #173	; 0xad
 800023c:	d116      	bne.n	800026c <_rng_test+0x94>
    ret = wc_RNG_GenerateByte(rng, NULL);
 800023e:	4621      	mov	r1, r4
 8000240:	4628      	mov	r0, r5
 8000242:	f00c fa40 	bl	800c6c6 <wc_RNG_GenerateByte>
    if (ret != BAD_FUNC_ARG) {
 8000246:	30ad      	adds	r0, #173	; 0xad
 8000248:	d003      	beq.n	8000252 <_rng_test+0x7a>
        ret = 7;
 800024a:	2007      	movs	r0, #7
        ret = errorOffset - (ret * 1000000);
 800024c:	4c08      	ldr	r4, [pc, #32]	; (8000270 <_rng_test+0x98>)
 800024e:	fb04 7400 	mla	r4, r4, r0, r7
}
 8000252:	4620      	mov	r0, r4
 8000254:	b009      	add	sp, #36	; 0x24
 8000256:	bdf0      	pop	{r4, r5, r6, r7, pc}
        ret = 1;
 8000258:	2001      	movs	r0, #1
 800025a:	e7f7      	b.n	800024c <_rng_test+0x74>
        ret = 2;
 800025c:	2002      	movs	r0, #2
 800025e:	e7f5      	b.n	800024c <_rng_test+0x74>
        ret = 3;
 8000260:	2003      	movs	r0, #3
 8000262:	e7f3      	b.n	800024c <_rng_test+0x74>
        ret = 4;
 8000264:	2004      	movs	r0, #4
 8000266:	e7f1      	b.n	800024c <_rng_test+0x74>
        ret = 5;
 8000268:	2005      	movs	r0, #5
 800026a:	e7ef      	b.n	800024c <_rng_test+0x74>
        ret = 6;
 800026c:	2006      	movs	r0, #6
 800026e:	e7ed      	b.n	800024c <_rng_test+0x74>
 8000270:	fff0bdc0 	.word	0xfff0bdc0

08000274 <random_rng_test>:
{
 8000274:	b530      	push	{r4, r5, lr}
 8000276:	b085      	sub	sp, #20
    ret = wc_InitRng_ex(rng, HEAP_HINT, devId);
 8000278:	f06f 0201 	mvn.w	r2, #1
 800027c:	2100      	movs	r1, #0
 800027e:	4668      	mov	r0, sp
 8000280:	f00c fa05 	bl	800c68e <wc_InitRng_ex>
    if (ret != 0)
 8000284:	b148      	cbz	r0, 800029a <random_rng_test+0x26>
        return WC_TEST_RET_ENC_EC(ret);
 8000286:	4a14      	ldr	r2, [pc, #80]	; (80002d8 <random_rng_test+0x64>)
 8000288:	4c14      	ldr	r4, [pc, #80]	; (80002dc <random_rng_test+0x68>)
 800028a:	4240      	negs	r0, r0
 800028c:	f3c0 000a 	ubfx	r0, r0, #0, #11
 8000290:	fb02 4400 	mla	r4, r2, r0, r4
}
 8000294:	4620      	mov	r0, r4
 8000296:	b005      	add	sp, #20
 8000298:	bd30      	pop	{r4, r5, pc}
    ret = _rng_test(rng, WC_TEST_RET_ENC_NC);
 800029a:	f46f 5165 	mvn.w	r1, #14656	; 0x3940
 800029e:	4668      	mov	r0, sp
 80002a0:	f7ff ff9a 	bl	80001d8 <_rng_test>
 80002a4:	4604      	mov	r4, r0
    wc_FreeRng(rng);
 80002a6:	4668      	mov	r0, sp
 80002a8:	f00c fa10 	bl	800c6cc <wc_FreeRng>
    if (ret != 0)
 80002ac:	2c00      	cmp	r4, #0
 80002ae:	d1f1      	bne.n	8000294 <random_rng_test+0x20>
        rng = wc_rng_new(nonce, (word32)sizeof(nonce), HEAP_HINT);
 80002b0:	2108      	movs	r1, #8
 80002b2:	4622      	mov	r2, r4
 80002b4:	eb0d 0001 	add.w	r0, sp, r1
        byte nonce[8] = { 0 };
 80002b8:	e9cd 4402 	strd	r4, r4, [sp, #8]
        rng = wc_rng_new(nonce, (word32)sizeof(nonce), HEAP_HINT);
 80002bc:	f00c f9c8 	bl	800c650 <wc_rng_new>
        if (rng == NULL)
 80002c0:	4605      	mov	r5, r0
 80002c2:	b908      	cbnz	r0, 80002c8 <random_rng_test+0x54>
            return WC_TEST_RET_ENC_ERRNO;
 80002c4:	4c06      	ldr	r4, [pc, #24]	; (80002e0 <random_rng_test+0x6c>)
 80002c6:	e7e5      	b.n	8000294 <random_rng_test+0x20>
        ret = _rng_test(rng, WC_TEST_RET_ENC_NC);
 80002c8:	4906      	ldr	r1, [pc, #24]	; (80002e4 <random_rng_test+0x70>)
 80002ca:	f7ff ff85 	bl	80001d8 <_rng_test>
 80002ce:	4604      	mov	r4, r0
        wc_rng_free(rng);
 80002d0:	4628      	mov	r0, r5
 80002d2:	f00c f9cf 	bl	800c674 <wc_rng_free>
    return ret;
 80002d6:	e7dd      	b.n	8000294 <random_rng_test+0x20>
 80002d8:	fffe7960 	.word	0xfffe7960
 80002dc:	dfffc6c1 	.word	0xdfffc6c1
 80002e0:	ffffc6b1 	.word	0xffffc6b1
 80002e4:	ffffc6af 	.word	0xffffc6af

080002e8 <ecc_exp_imp_test>:
{
 80002e8:	e92d 47f0 	stmdb	sp!, {r4, r5, r6, r7, r8, r9, sl, lr}
 80002ec:	4606      	mov	r6, r0
 80002ee:	b0e4      	sub	sp, #400	; 0x190
    ecc_key    *keyImp = (ecc_key *)XMALLOC(sizeof *keyImp, HEAP_HINT, DYNAMIC_TYPE_TMP_BUFFER);
 80002f0:	f44f 70de 	mov.w	r0, #444	; 0x1bc
 80002f4:	f01a fe54 	bl	801afa0 <malloc>
    const char qx[] = "7a4e287890a1a47ad3457e52f2f76a83"
 80002f8:	497b      	ldr	r1, [pc, #492]	; (80004e8 <ecc_exp_imp_test+0x200>)
    ecc_key    *keyImp = (ecc_key *)XMALLOC(sizeof *keyImp, HEAP_HINT, DYNAMIC_TYPE_TMP_BUFFER);
 80002fa:	4605      	mov	r5, r0
    const char qx[] = "7a4e287890a1a47ad3457e52f2f76a83"
 80002fc:	2241      	movs	r2, #65	; 0x41
 80002fe:	a810      	add	r0, sp, #64	; 0x40
 8000300:	f01a fe6e 	bl	801afe0 <memcpy>
    const char qy[] = "eec4084f5b29ebf29c44cce3b3059610"
 8000304:	4979      	ldr	r1, [pc, #484]	; (80004ec <ecc_exp_imp_test+0x204>)
 8000306:	2241      	movs	r2, #65	; 0x41
 8000308:	a821      	add	r0, sp, #132	; 0x84
 800030a:	f01a fe69 	bl	801afe0 <memcpy>
    const char d[]  = "8c14b793cb19137e323a6d2e2a870bca"
 800030e:	4978      	ldr	r1, [pc, #480]	; (80004f0 <ecc_exp_imp_test+0x208>)
 8000310:	2241      	movs	r2, #65	; 0x41
 8000312:	a832      	add	r0, sp, #200	; 0xc8
 8000314:	f01a fe64 	bl	801afe0 <memcpy>
    if (keyImp == NULL)
 8000318:	2d00      	cmp	r5, #0
 800031a:	f000 80df 	beq.w	80004dc <ecc_exp_imp_test+0x1f4>
    privLen = sizeof(priv);
 800031e:	f04f 0820 	mov.w	r8, #32
    wc_ecc_init_ex(keyImp, HEAP_HINT, devId);
 8000322:	f06f 0201 	mvn.w	r2, #1
 8000326:	2100      	movs	r1, #0
    privLen = sizeof(priv);
 8000328:	af04      	add	r7, sp, #16
    wc_ecc_init_ex(keyImp, HEAP_HINT, devId);
 800032a:	4628      	mov	r0, r5
    ret = wc_ecc_export_private_only(key, priv, &privLen);
 800032c:	eb0d 0908 	add.w	r9, sp, r8
    wc_ecc_init_ex(keyImp, HEAP_HINT, devId);
 8000330:	f009 ff2c 	bl	800a18c <wc_ecc_init_ex>
    ret = wc_ecc_export_private_only(key, priv, &privLen);
 8000334:	463a      	mov	r2, r7
 8000336:	4649      	mov	r1, r9
 8000338:	4630      	mov	r0, r6
    privLen = sizeof(priv);
 800033a:	f8c7 8000 	str.w	r8, [r7]
    ret = wc_ecc_export_private_only(key, priv, &privLen);
 800033e:	f00b fe39 	bl	800bfb4 <wc_ecc_export_private_only>
    if (ret != 0) {
 8000342:	b138      	cbz	r0, 8000354 <ecc_exp_imp_test+0x6c>
        ret = WC_TEST_RET_ENC_EC(ret);
 8000344:	4240      	negs	r0, r0
 8000346:	496b      	ldr	r1, [pc, #428]	; (80004f4 <ecc_exp_imp_test+0x20c>)
 8000348:	4c6b      	ldr	r4, [pc, #428]	; (80004f8 <ecc_exp_imp_test+0x210>)
 800034a:	f3c0 000a 	ubfx	r0, r0, #0, #11
        ret = WC_TEST_RET_ENC_EC(ret);
 800034e:	fb01 4400 	mla	r4, r1, r0, r4
        goto done;
 8000352:	e07b      	b.n	800044c <ecc_exp_imp_test+0x164>
    pubLen = sizeof(pub);
 8000354:	2382      	movs	r3, #130	; 0x82
 8000356:	9305      	str	r3, [sp, #20]
    ret = wc_ecc_export_point_der(key->idx, &key->pubkey, pub, &pubLen);
 8000358:	6870      	ldr	r0, [r6, #4]
 800035a:	ab05      	add	r3, sp, #20
 800035c:	aa43      	add	r2, sp, #268	; 0x10c
 800035e:	f106 0118 	add.w	r1, r6, #24
 8000362:	f00b fb7d 	bl	800ba60 <wc_ecc_export_point_der>
    if (ret != 0) {
 8000366:	b128      	cbz	r0, 8000374 <ecc_exp_imp_test+0x8c>
        ret = WC_TEST_RET_ENC_EC(ret);
 8000368:	4240      	negs	r0, r0
 800036a:	4962      	ldr	r1, [pc, #392]	; (80004f4 <ecc_exp_imp_test+0x20c>)
 800036c:	4c63      	ldr	r4, [pc, #396]	; (80004fc <ecc_exp_imp_test+0x214>)
 800036e:	f3c0 000a 	ubfx	r0, r0, #0, #11
 8000372:	e7ec      	b.n	800034e <ecc_exp_imp_test+0x66>
    ret = wc_ecc_import_private_key(priv, privLen, pub, pubLen, keyImp);
 8000374:	9500      	str	r5, [sp, #0]
 8000376:	9b05      	ldr	r3, [sp, #20]
 8000378:	6839      	ldr	r1, [r7, #0]
 800037a:	aa43      	add	r2, sp, #268	; 0x10c
 800037c:	4648      	mov	r0, r9
 800037e:	f00b fe7e 	bl	800c07e <wc_ecc_import_private_key>
    if (ret != 0) {
 8000382:	4604      	mov	r4, r0
 8000384:	b128      	cbz	r0, 8000392 <ecc_exp_imp_test+0xaa>
        ret = WC_TEST_RET_ENC_EC(ret);
 8000386:	4244      	negs	r4, r0
 8000388:	f3c4 000a 	ubfx	r0, r4, #0, #11
 800038c:	4959      	ldr	r1, [pc, #356]	; (80004f4 <ecc_exp_imp_test+0x20c>)
 800038e:	4c5c      	ldr	r4, [pc, #368]	; (8000500 <ecc_exp_imp_test+0x218>)
 8000390:	e7dd      	b.n	800034e <ecc_exp_imp_test+0x66>
    wc_ecc_free(keyImp);
 8000392:	4628      	mov	r0, r5
 8000394:	f009 ff3d 	bl	800a212 <wc_ecc_free>
    ret = wc_ecc_import_raw_ex(keyImp, qx, qy, d, ECC_SECP256R1);
 8000398:	f04f 0a07 	mov.w	sl, #7
    wc_ecc_init_ex(keyImp, HEAP_HINT, devId);
 800039c:	4621      	mov	r1, r4
 800039e:	f06f 0201 	mvn.w	r2, #1
 80003a2:	4628      	mov	r0, r5
 80003a4:	f009 fef2 	bl	800a18c <wc_ecc_init_ex>
    ret = wc_ecc_import_raw_ex(keyImp, qx, qy, d, ECC_SECP256R1);
 80003a8:	f8cd a000 	str.w	sl, [sp]
 80003ac:	ab32      	add	r3, sp, #200	; 0xc8
 80003ae:	aa21      	add	r2, sp, #132	; 0x84
 80003b0:	a910      	add	r1, sp, #64	; 0x40
 80003b2:	4628      	mov	r0, r5
 80003b4:	f00b fef5 	bl	800c1a2 <wc_ecc_import_raw_ex>
    if (ret != 0) {
 80003b8:	4604      	mov	r4, r0
 80003ba:	b128      	cbz	r0, 80003c8 <ecc_exp_imp_test+0xe0>
        ret = WC_TEST_RET_ENC_EC(ret);
 80003bc:	4244      	negs	r4, r0
 80003be:	f3c4 000a 	ubfx	r0, r4, #0, #11
 80003c2:	494c      	ldr	r1, [pc, #304]	; (80004f4 <ecc_exp_imp_test+0x20c>)
 80003c4:	4c4f      	ldr	r4, [pc, #316]	; (8000504 <ecc_exp_imp_test+0x21c>)
 80003c6:	e7c2      	b.n	800034e <ecc_exp_imp_test+0x66>
    wc_ecc_free(keyImp);
 80003c8:	4628      	mov	r0, r5
 80003ca:	f009 ff22 	bl	800a212 <wc_ecc_free>
    wc_ecc_init_ex(keyImp, HEAP_HINT, devId);
 80003ce:	f06f 0201 	mvn.w	r2, #1
 80003d2:	4621      	mov	r1, r4
 80003d4:	4628      	mov	r0, r5
 80003d6:	f009 fed9 	bl	800a18c <wc_ecc_init_ex>
    curve_id = wc_ecc_get_curve_id(key->idx);
 80003da:	6870      	ldr	r0, [r6, #4]
 80003dc:	f009 fe08 	bl	8009ff0 <wc_ecc_get_curve_id>
    if (curve_id < 0) {
 80003e0:	2800      	cmp	r0, #0
 80003e2:	da05      	bge.n	80003f0 <ecc_exp_imp_test+0x108>
        ret = WC_TEST_RET_ENC_EC(curve_id);
 80003e4:	4240      	negs	r0, r0
 80003e6:	4943      	ldr	r1, [pc, #268]	; (80004f4 <ecc_exp_imp_test+0x20c>)
 80003e8:	4c47      	ldr	r4, [pc, #284]	; (8000508 <ecc_exp_imp_test+0x220>)
 80003ea:	f3c0 000a 	ubfx	r0, r0, #0, #11
 80003ee:	e7ae      	b.n	800034e <ecc_exp_imp_test+0x66>
    ret = wc_ecc_import_private_key_ex(priv, privLen, NULL, 0, keyImp,
 80003f0:	e9cd 5000 	strd	r5, r0, [sp]
 80003f4:	4623      	mov	r3, r4
 80003f6:	4622      	mov	r2, r4
 80003f8:	6839      	ldr	r1, [r7, #0]
 80003fa:	4648      	mov	r0, r9
 80003fc:	f00b fe0d 	bl	800c01a <wc_ecc_import_private_key_ex>
    if (ret != 0) {
 8000400:	4604      	mov	r4, r0
 8000402:	b128      	cbz	r0, 8000410 <ecc_exp_imp_test+0x128>
        ret = WC_TEST_RET_ENC_EC(ret);
 8000404:	4244      	negs	r4, r0
 8000406:	f3c4 000a 	ubfx	r0, r4, #0, #11
 800040a:	493a      	ldr	r1, [pc, #232]	; (80004f4 <ecc_exp_imp_test+0x20c>)
 800040c:	4c3f      	ldr	r4, [pc, #252]	; (800050c <ecc_exp_imp_test+0x224>)
 800040e:	e79e      	b.n	800034e <ecc_exp_imp_test+0x66>
    wc_ecc_free(keyImp);
 8000410:	4628      	mov	r0, r5
 8000412:	f009 fefe 	bl	800a212 <wc_ecc_free>
    wc_ecc_init_ex(keyImp, HEAP_HINT, devId);
 8000416:	4621      	mov	r1, r4
    pubLenX = pubLenY = 32;
 8000418:	ac07      	add	r4, sp, #28
    wc_ecc_init_ex(keyImp, HEAP_HINT, devId);
 800041a:	f06f 0201 	mvn.w	r2, #1
 800041e:	4628      	mov	r0, r5
 8000420:	f009 feb4 	bl	800a18c <wc_ecc_init_ex>
    pubLenX = pubLenY = 32;
 8000424:	f8c4 8000 	str.w	r8, [r4]
    ret = wc_ecc_export_public_raw(key, pub, &pubLenX, &pub[32], &pubLenY);
 8000428:	ab4b      	add	r3, sp, #300	; 0x12c
 800042a:	9400      	str	r4, [sp, #0]
 800042c:	aa06      	add	r2, sp, #24
 800042e:	a943      	add	r1, sp, #268	; 0x10c
 8000430:	4630      	mov	r0, r6
    pubLenX = pubLenY = 32;
 8000432:	f8cd 8018 	str.w	r8, [sp, #24]
    ret = wc_ecc_export_public_raw(key, pub, &pubLenX, &pub[32], &pubLenY);
 8000436:	f00b fdd0 	bl	800bfda <wc_ecc_export_public_raw>
    if (ret != 0) {
 800043a:	4603      	mov	r3, r0
 800043c:	b168      	cbz	r0, 800045a <ecc_exp_imp_test+0x172>
        ret = WC_TEST_RET_ENC_EC(ret);
 800043e:	4243      	negs	r3, r0
 8000440:	4c33      	ldr	r4, [pc, #204]	; (8000510 <ecc_exp_imp_test+0x228>)
 8000442:	482c      	ldr	r0, [pc, #176]	; (80004f4 <ecc_exp_imp_test+0x20c>)
 8000444:	f3c3 030a 	ubfx	r3, r3, #0, #11
 8000448:	fb00 4403 	mla	r4, r0, r3, r4
        wc_ecc_free(keyImp);
 800044c:	4628      	mov	r0, r5
 800044e:	f009 fee0 	bl	800a212 <wc_ecc_free>
        XFREE(keyImp, HEAP_HINT, DYNAMIC_TYPE_TMP_BUFFER);
 8000452:	4628      	mov	r0, r5
 8000454:	f01a fdac 	bl	801afb0 <free>
 8000458:	e041      	b.n	80004de <ecc_exp_imp_test+0x1f6>
    ret = wc_ecc_import_unsigned(keyImp, pub, &pub[32], NULL, ECC_SECP256R1);
 800045a:	f8cd a000 	str.w	sl, [sp]
 800045e:	aa4b      	add	r2, sp, #300	; 0x12c
 8000460:	a943      	add	r1, sp, #268	; 0x10c
 8000462:	4628      	mov	r0, r5
 8000464:	f00b fea6 	bl	800c1b4 <wc_ecc_import_unsigned>
    if (ret != 0) {
 8000468:	4682      	mov	sl, r0
 800046a:	b128      	cbz	r0, 8000478 <ecc_exp_imp_test+0x190>
        ret = WC_TEST_RET_ENC_EC(ret);
 800046c:	4240      	negs	r0, r0
 800046e:	4921      	ldr	r1, [pc, #132]	; (80004f4 <ecc_exp_imp_test+0x20c>)
 8000470:	4c28      	ldr	r4, [pc, #160]	; (8000514 <ecc_exp_imp_test+0x22c>)
 8000472:	f3c0 000a 	ubfx	r0, r0, #0, #11
 8000476:	e76a      	b.n	800034e <ecc_exp_imp_test+0x66>
    wc_ecc_free(keyImp);
 8000478:	4628      	mov	r0, r5
 800047a:	f009 feca 	bl	800a212 <wc_ecc_free>
    wc_ecc_init_ex(keyImp, HEAP_HINT, devId);
 800047e:	f06f 0201 	mvn.w	r2, #1
 8000482:	4651      	mov	r1, sl
 8000484:	4628      	mov	r0, r5
 8000486:	f009 fe81 	bl	800a18c <wc_ecc_init_ex>
    pubLenX = pubLenY = privLen = 32;
 800048a:	f8c7 8000 	str.w	r8, [r7]
 800048e:	f8c4 8000 	str.w	r8, [r4]
    ret = wc_ecc_export_private_raw(key, pub, &pubLenX, &pub[32], &pubLenY,
 8000492:	ab4b      	add	r3, sp, #300	; 0x12c
 8000494:	e9cd 9701 	strd	r9, r7, [sp, #4]
 8000498:	9400      	str	r4, [sp, #0]
 800049a:	aa06      	add	r2, sp, #24
 800049c:	a943      	add	r1, sp, #268	; 0x10c
 800049e:	4630      	mov	r0, r6
    pubLenX = pubLenY = privLen = 32;
 80004a0:	f8cd 8018 	str.w	r8, [sp, #24]
    ret = wc_ecc_export_private_raw(key, pub, &pubLenX, &pub[32], &pubLenY,
 80004a4:	f00b fdac 	bl	800c000 <wc_ecc_export_private_raw>
    if (ret != 0) {
 80004a8:	b128      	cbz	r0, 80004b6 <ecc_exp_imp_test+0x1ce>
        ret = WC_TEST_RET_ENC_EC(ret);
 80004aa:	4240      	negs	r0, r0
 80004ac:	4911      	ldr	r1, [pc, #68]	; (80004f4 <ecc_exp_imp_test+0x20c>)
 80004ae:	4c1a      	ldr	r4, [pc, #104]	; (8000518 <ecc_exp_imp_test+0x230>)
 80004b0:	f3c0 000a 	ubfx	r0, r0, #0, #11
 80004b4:	e74b      	b.n	800034e <ecc_exp_imp_test+0x66>
    ret = wc_ecc_import_unsigned(keyImp, pub, &pub[32], priv, ECC_SECP256R1);
 80004b6:	2307      	movs	r3, #7
 80004b8:	9300      	str	r3, [sp, #0]
 80004ba:	aa4b      	add	r2, sp, #300	; 0x12c
 80004bc:	ab08      	add	r3, sp, #32
 80004be:	a943      	add	r1, sp, #268	; 0x10c
 80004c0:	4628      	mov	r0, r5
 80004c2:	f00b fe77 	bl	800c1b4 <wc_ecc_import_unsigned>
    if (ret != 0) {
 80004c6:	4604      	mov	r4, r0
 80004c8:	2800      	cmp	r0, #0
 80004ca:	d0bf      	beq.n	800044c <ecc_exp_imp_test+0x164>
        ret = WC_TEST_RET_ENC_EC(ret);
 80004cc:	4244      	negs	r4, r0
 80004ce:	4909      	ldr	r1, [pc, #36]	; (80004f4 <ecc_exp_imp_test+0x20c>)
 80004d0:	4812      	ldr	r0, [pc, #72]	; (800051c <ecc_exp_imp_test+0x234>)
 80004d2:	f3c4 040a 	ubfx	r4, r4, #0, #11
 80004d6:	fb01 0404 	mla	r4, r1, r4, r0
        goto done;
 80004da:	e7b7      	b.n	800044c <ecc_exp_imp_test+0x164>
        ERROR_OUT(WC_TEST_RET_ENC_ERRNO, done);
 80004dc:	4c10      	ldr	r4, [pc, #64]	; (8000520 <ecc_exp_imp_test+0x238>)
}
 80004de:	4620      	mov	r0, r4
 80004e0:	b064      	add	sp, #400	; 0x190
 80004e2:	e8bd 87f0 	ldmia.w	sp!, {r4, r5, r6, r7, r8, r9, sl, pc}
 80004e6:	bf00      	nop
 80004e8:	0801dbdb 	.word	0x0801dbdb
 80004ec:	0801dc1c 	.word	0x0801dc1c
 80004f0:	0801dc5d 	.word	0x0801dc5d
 80004f4:	fffe7960 	.word	0xfffe7960
 80004f8:	dfff9644 	.word	0xdfff9644
 80004fc:	dfff963e 	.word	0xdfff963e
 8000500:	dfff9638 	.word	0xdfff9638
 8000504:	dfff962f 	.word	0xdfff962f
 8000508:	dfff9626 	.word	0xdfff9626
 800050c:	dfff961e 	.word	0xdfff961e
 8000510:	dfff9613 	.word	0xdfff9613
 8000514:	dfff960b 	.word	0xdfff960b
 8000518:	dfff95fe 	.word	0xdfff95fe
 800051c:	dfff95f6 	.word	0xdfff95f6
 8000520:	ffff964c 	.word	0xffff964c

08000524 <aesgcm_default_test_helper.constprop.0>:
static wc_test_ret_t aesgcm_default_test_helper(byte* key, int keySz, byte* iv, int ivSz,
 8000524:	e92d 4ff0 	stmdb	sp!, {r4, r5, r6, r7, r8, r9, sl, fp, lr}
 8000528:	4681      	mov	r9, r0
 800052a:	b0a3      	sub	sp, #140	; 0x8c
    if ((enc = (Aes *)XMALLOC(sizeof *enc, HEAP_HINT, DYNAMIC_TYPE_AES)) == NULL)
 800052c:	f44f 709c 	mov.w	r0, #312	; 0x138
static wc_test_ret_t aesgcm_default_test_helper(byte* key, int keySz, byte* iv, int ivSz,
 8000530:	4688      	mov	r8, r1
 8000532:	4616      	mov	r6, r2
 8000534:	461f      	mov	r7, r3
    if ((enc = (Aes *)XMALLOC(sizeof *enc, HEAP_HINT, DYNAMIC_TYPE_AES)) == NULL)
 8000536:	f01a fd33 	bl	801afa0 <malloc>
 800053a:	4605      	mov	r5, r0
 800053c:	2800      	cmp	r0, #0
 800053e:	f000 80c7 	beq.w	80006d0 <aesgcm_default_test_helper.constprop.0+0x1ac>
    if ((dec = (Aes *)XMALLOC(sizeof *dec, HEAP_HINT, DYNAMIC_TYPE_AES)) == NULL)
 8000542:	f44f 709c 	mov.w	r0, #312	; 0x138
 8000546:	f01a fd2b 	bl	801afa0 <malloc>
 800054a:	4604      	mov	r4, r0
 800054c:	2800      	cmp	r0, #0
 800054e:	f000 80c2 	beq.w	80006d6 <aesgcm_default_test_helper.constprop.0+0x1b2>
    XMEMSET(resultT, 0, sizeof(resultT));
 8000552:	f10d 0b18 	add.w	fp, sp, #24
 8000556:	2210      	movs	r2, #16
 8000558:	2100      	movs	r1, #0
 800055a:	4658      	mov	r0, fp
 800055c:	f01a fd68 	bl	801b030 <memset>
    XMEMSET(resultC, 0, sizeof(resultC));
 8000560:	2230      	movs	r2, #48	; 0x30
 8000562:	2100      	movs	r1, #0
 8000564:	a816      	add	r0, sp, #88	; 0x58
 8000566:	f01a fd63 	bl	801b030 <memset>
    XMEMSET(resultP, 0, sizeof(resultP));
 800056a:	2230      	movs	r2, #48	; 0x30
 800056c:	2100      	movs	r1, #0
 800056e:	a80a      	add	r0, sp, #40	; 0x28
 8000570:	f01a fd5e 	bl	801b030 <memset>
    ret = wc_AesInit(enc, HEAP_HINT, devId);
 8000574:	f06f 0201 	mvn.w	r2, #1
 8000578:	2100      	movs	r1, #0
 800057a:	4628      	mov	r0, r5
 800057c:	f008 fa61 	bl	8008a42 <wc_AesInit>
    if (ret != 0)
 8000580:	4682      	mov	sl, r0
 8000582:	b150      	cbz	r0, 800059a <aesgcm_default_test_helper.constprop.0+0x76>
        ERROR_OUT(WC_TEST_RET_ENC_EC(ret), out);
 8000584:	f1c0 0800 	rsb	r8, r0, #0
 8000588:	4b54      	ldr	r3, [pc, #336]	; (80006dc <aesgcm_default_test_helper.constprop.0+0x1b8>)
 800058a:	4855      	ldr	r0, [pc, #340]	; (80006e0 <aesgcm_default_test_helper.constprop.0+0x1bc>)
 800058c:	f3c8 080a 	ubfx	r8, r8, #0, #11
 8000590:	fb03 0808 	mla	r8, r3, r8, r0
static wc_test_ret_t aesgcm_default_test_helper(byte* key, int keySz, byte* iv, int ivSz,
 8000594:	f04f 0a00 	mov.w	sl, #0
 8000598:	e011      	b.n	80005be <aesgcm_default_test_helper.constprop.0+0x9a>
    ret = wc_AesInit(dec, HEAP_HINT, devId);
 800059a:	4601      	mov	r1, r0
 800059c:	f06f 0201 	mvn.w	r2, #1
 80005a0:	4620      	mov	r0, r4
 80005a2:	f008 fa4e 	bl	8008a42 <wc_AesInit>
    if (ret != 0)
 80005a6:	b1d8      	cbz	r0, 80005e0 <aesgcm_default_test_helper.constprop.0+0xbc>
        ERROR_OUT(WC_TEST_RET_ENC_EC(ret), out);
 80005a8:	f1c0 0800 	rsb	r8, r0, #0
 80005ac:	4b4b      	ldr	r3, [pc, #300]	; (80006dc <aesgcm_default_test_helper.constprop.0+0x1b8>)
 80005ae:	484d      	ldr	r0, [pc, #308]	; (80006e4 <aesgcm_default_test_helper.constprop.0+0x1c0>)
 80005b0:	f3c8 080a 	ubfx	r8, r8, #0, #11
 80005b4:	fb03 0808 	mla	r8, r3, r8, r0
            wc_AesFree(enc);
 80005b8:	4628      	mov	r0, r5
 80005ba:	f008 fa4a 	bl	8008a52 <wc_AesFree>
        XFREE(enc, HEAP_HINT, DYNAMIC_TYPE_AES);
 80005be:	4628      	mov	r0, r5
 80005c0:	f01a fcf6 	bl	801afb0 <free>
    if (dec) {
 80005c4:	b144      	cbz	r4, 80005d8 <aesgcm_default_test_helper.constprop.0+0xb4>
        if (dec_inited)
 80005c6:	f1ba 0f00 	cmp.w	sl, #0
 80005ca:	d002      	beq.n	80005d2 <aesgcm_default_test_helper.constprop.0+0xae>
            wc_AesFree(dec);
 80005cc:	4620      	mov	r0, r4
 80005ce:	f008 fa40 	bl	8008a52 <wc_AesFree>
        XFREE(dec, HEAP_HINT, DYNAMIC_TYPE_AES);
 80005d2:	4620      	mov	r0, r4
 80005d4:	f01a fcec 	bl	801afb0 <free>
}
 80005d8:	4640      	mov	r0, r8
 80005da:	b023      	add	sp, #140	; 0x8c
 80005dc:	e8bd 8ff0 	ldmia.w	sp!, {r4, r5, r6, r7, r8, r9, sl, fp, pc}
    ret = wc_AesGcmSetKey(enc, key, keySz);
 80005e0:	2210      	movs	r2, #16
 80005e2:	4649      	mov	r1, r9
 80005e4:	4628      	mov	r0, r5
 80005e6:	f007 fee9 	bl	80083bc <wc_AesGcmSetKey>
    if (ret != 0)
 80005ea:	b150      	cbz	r0, 8000602 <aesgcm_default_test_helper.constprop.0+0xde>
        ERROR_OUT(WC_TEST_RET_ENC_EC(ret), out);
 80005ec:	f1c0 0800 	rsb	r8, r0, #0
 80005f0:	4b3a      	ldr	r3, [pc, #232]	; (80006dc <aesgcm_default_test_helper.constprop.0+0x1b8>)
 80005f2:	483d      	ldr	r0, [pc, #244]	; (80006e8 <aesgcm_default_test_helper.constprop.0+0x1c4>)
 80005f4:	f3c8 080a 	ubfx	r8, r8, #0, #11
        ERROR_OUT(WC_TEST_RET_ENC_EC(ret), out);
 80005f8:	fb03 0808 	mla	r8, r3, r8, r0
        dec_inited = 1;
 80005fc:	f04f 0a01 	mov.w	sl, #1
 8000600:	e7da      	b.n	80005b8 <aesgcm_default_test_helper.constprop.0+0x94>
    ret = wc_AesGcmEncrypt(enc, resultC, plain, plainSz, iv, ivSz,
 8000602:	9b2f      	ldr	r3, [sp, #188]	; 0xbc
 8000604:	9305      	str	r3, [sp, #20]
 8000606:	9b2e      	ldr	r3, [sp, #184]	; 0xb8
 8000608:	9304      	str	r3, [sp, #16]
 800060a:	9b31      	ldr	r3, [sp, #196]	; 0xc4
 800060c:	e9cd b302 	strd	fp, r3, [sp, #8]
 8000610:	230c      	movs	r3, #12
 8000612:	e9cd 8300 	strd	r8, r3, [sp]
 8000616:	4632      	mov	r2, r6
 8000618:	463b      	mov	r3, r7
 800061a:	a916      	add	r1, sp, #88	; 0x58
 800061c:	4628      	mov	r0, r5
 800061e:	f007 ff9d 	bl	800855c <wc_AesGcmEncrypt>
    if (ret != 0)
 8000622:	b130      	cbz	r0, 8000632 <aesgcm_default_test_helper.constprop.0+0x10e>
        ERROR_OUT(WC_TEST_RET_ENC_EC(ret), out);
 8000624:	f1c0 0800 	rsb	r8, r0, #0
 8000628:	4b2c      	ldr	r3, [pc, #176]	; (80006dc <aesgcm_default_test_helper.constprop.0+0x1b8>)
 800062a:	4830      	ldr	r0, [pc, #192]	; (80006ec <aesgcm_default_test_helper.constprop.0+0x1c8>)
 800062c:	f3c8 080a 	ubfx	r8, r8, #0, #11
 8000630:	e7e2      	b.n	80005f8 <aesgcm_default_test_helper.constprop.0+0xd4>
    if (cipher != NULL) {
 8000632:	9b2c      	ldr	r3, [sp, #176]	; 0xb0
 8000634:	b963      	cbnz	r3, 8000650 <aesgcm_default_test_helper.constprop.0+0x12c>
    if (XMEMCMP(tag, resultT, tagSz))
 8000636:	f10d 0b18 	add.w	fp, sp, #24
 800063a:	9a31      	ldr	r2, [sp, #196]	; 0xc4
 800063c:	9830      	ldr	r0, [sp, #192]	; 0xc0
 800063e:	4659      	mov	r1, fp
 8000640:	f01a fcbe 	bl	801afc0 <memcmp>
 8000644:	b180      	cbz	r0, 8000668 <aesgcm_default_test_helper.constprop.0+0x144>
        ERROR_OUT(WC_TEST_RET_ENC_NC, out);
 8000646:	f8df 80a8 	ldr.w	r8, [pc, #168]	; 80006f0 <aesgcm_default_test_helper.constprop.0+0x1cc>
        dec_inited = 1;
 800064a:	f04f 0a01 	mov.w	sl, #1
 800064e:	e7b3      	b.n	80005b8 <aesgcm_default_test_helper.constprop.0+0x94>
        if (XMEMCMP(cipher, resultC, cipherSz))
 8000650:	9a2d      	ldr	r2, [sp, #180]	; 0xb4
 8000652:	982c      	ldr	r0, [sp, #176]	; 0xb0
 8000654:	a916      	add	r1, sp, #88	; 0x58
 8000656:	f01a fcb3 	bl	801afc0 <memcmp>
 800065a:	2800      	cmp	r0, #0
 800065c:	d0eb      	beq.n	8000636 <aesgcm_default_test_helper.constprop.0+0x112>
            ERROR_OUT(WC_TEST_RET_ENC_NC, out);
 800065e:	f8df 8094 	ldr.w	r8, [pc, #148]	; 80006f4 <aesgcm_default_test_helper.constprop.0+0x1d0>
        dec_inited = 1;
 8000662:	f04f 0a01 	mov.w	sl, #1
 8000666:	e7a7      	b.n	80005b8 <aesgcm_default_test_helper.constprop.0+0x94>
    ret = wc_AesGcmSetKey(dec, key, keySz);
 8000668:	2210      	movs	r2, #16
 800066a:	4649      	mov	r1, r9
 800066c:	4620      	mov	r0, r4
 800066e:	f007 fea5 	bl	80083bc <wc_AesGcmSetKey>
    if (ret != 0)
 8000672:	b130      	cbz	r0, 8000682 <aesgcm_default_test_helper.constprop.0+0x15e>
        ERROR_OUT(WC_TEST_RET_ENC_EC(ret), out);
 8000674:	f1c0 0800 	rsb	r8, r0, #0
 8000678:	4b18      	ldr	r3, [pc, #96]	; (80006dc <aesgcm_default_test_helper.constprop.0+0x1b8>)
 800067a:	481f      	ldr	r0, [pc, #124]	; (80006f8 <aesgcm_default_test_helper.constprop.0+0x1d4>)
 800067c:	f3c8 080a 	ubfx	r8, r8, #0, #11
 8000680:	e7ba      	b.n	80005f8 <aesgcm_default_test_helper.constprop.0+0xd4>
    ret = wc_AesGcmDecrypt(dec, resultP, resultC, cipherSz,
 8000682:	9b2f      	ldr	r3, [sp, #188]	; 0xbc
 8000684:	9305      	str	r3, [sp, #20]
 8000686:	9b2e      	ldr	r3, [sp, #184]	; 0xb8
 8000688:	9304      	str	r3, [sp, #16]
 800068a:	9b31      	ldr	r3, [sp, #196]	; 0xc4
 800068c:	e9cd b302 	strd	fp, r3, [sp, #8]
 8000690:	230c      	movs	r3, #12
 8000692:	e9cd 8300 	strd	r8, r3, [sp]
 8000696:	aa16      	add	r2, sp, #88	; 0x58
 8000698:	9b2d      	ldr	r3, [sp, #180]	; 0xb4
 800069a:	a90a      	add	r1, sp, #40	; 0x28
 800069c:	4620      	mov	r0, r4
 800069e:	f007 ffe5 	bl	800866c <wc_AesGcmDecrypt>
    if (ret != 0)
 80006a2:	4680      	mov	r8, r0
 80006a4:	b130      	cbz	r0, 80006b4 <aesgcm_default_test_helper.constprop.0+0x190>
        ERROR_OUT(WC_TEST_RET_ENC_EC(ret), out);
 80006a6:	f1c0 0800 	rsb	r8, r0, #0
 80006aa:	4b0c      	ldr	r3, [pc, #48]	; (80006dc <aesgcm_default_test_helper.constprop.0+0x1b8>)
 80006ac:	4813      	ldr	r0, [pc, #76]	; (80006fc <aesgcm_default_test_helper.constprop.0+0x1d8>)
 80006ae:	f3c8 080a 	ubfx	r8, r8, #0, #11
 80006b2:	e7a1      	b.n	80005f8 <aesgcm_default_test_helper.constprop.0+0xd4>
    if (plain != NULL) {
 80006b4:	2e00      	cmp	r6, #0
 80006b6:	d0a1      	beq.n	80005fc <aesgcm_default_test_helper.constprop.0+0xd8>
        if (XMEMCMP(plain, resultP, plainSz))
 80006b8:	463a      	mov	r2, r7
 80006ba:	a90a      	add	r1, sp, #40	; 0x28
 80006bc:	4630      	mov	r0, r6
 80006be:	f01a fc7f 	bl	801afc0 <memcmp>
 80006c2:	2800      	cmp	r0, #0
 80006c4:	d09a      	beq.n	80005fc <aesgcm_default_test_helper.constprop.0+0xd8>
            ERROR_OUT(WC_TEST_RET_ENC_NC, out);
 80006c6:	f8df 8038 	ldr.w	r8, [pc, #56]	; 8000700 <aesgcm_default_test_helper.constprop.0+0x1dc>
        dec_inited = 1;
 80006ca:	f04f 0a01 	mov.w	sl, #1
 80006ce:	e773      	b.n	80005b8 <aesgcm_default_test_helper.constprop.0+0x94>
        ERROR_OUT(WC_TEST_RET_ENC_ERRNO, out);
 80006d0:	f8df 8030 	ldr.w	r8, [pc, #48]	; 8000704 <aesgcm_default_test_helper.constprop.0+0x1e0>
    return ret;
 80006d4:	e780      	b.n	80005d8 <aesgcm_default_test_helper.constprop.0+0xb4>
        ERROR_OUT(WC_TEST_RET_ENC_ERRNO, out);
 80006d6:	f8df 8030 	ldr.w	r8, [pc, #48]	; 8000708 <aesgcm_default_test_helper.constprop.0+0x1e4>
 80006da:	e75b      	b.n	8000594 <aesgcm_default_test_helper.constprop.0+0x70>
 80006dc:	fffe7960 	.word	0xfffe7960
 80006e0:	dfffd226 	.word	0xdfffd226
 80006e4:	dfffd221 	.word	0xdfffd221
 80006e8:	dfffd21b 	.word	0xdfffd21b
 80006ec:	dfffd211 	.word	0xdfffd211
 80006f0:	ffffd20b 	.word	0xffffd20b
 80006f4:	ffffd20e 	.word	0xffffd20e
 80006f8:	dfffd205 	.word	0xdfffd205
 80006fc:	dfffd1fd 	.word	0xdfffd1fd
 8000700:	ffffd1fa 	.word	0xffffd1fa
 8000704:	ffffd231 	.word	0xffffd231
 8000708:	ffffd22f 	.word	0xffffd22f

0800070c <error_test>:
{
 800070c:	b5f0      	push	{r4, r5, r6, r7, lr}
    const char* unknownStr = wc_GetErrorString(0);
 800070e:	2000      	movs	r0, #0
{
 8000710:	b0a3      	sub	sp, #140	; 0x8c
    const char* unknownStr = wc_GetErrorString(0);
 8000712:	f012 fcfb 	bl	801310c <wc_GetErrorString>
    int missing[] = { -123, -124, -128, -129, -159, -163, -164,
 8000716:	4d33      	ldr	r5, [pc, #204]	; (80007e4 <error_test+0xd8>)
    const char* unknownStr = wc_GetErrorString(0);
 8000718:	4606      	mov	r6, r0
    int missing[] = { -123, -124, -128, -129, -159, -163, -164,
 800071a:	cd0f      	ldmia	r5!, {r0, r1, r2, r3}
 800071c:	466c      	mov	r4, sp
 800071e:	c40f      	stmia	r4!, {r0, r1, r2, r3}
 8000720:	cd0f      	ldmia	r5!, {r0, r1, r2, r3}
 8000722:	c40f      	stmia	r4!, {r0, r1, r2, r3}
 8000724:	cd0f      	ldmia	r5!, {r0, r1, r2, r3}
 8000726:	c40f      	stmia	r4!, {r0, r1, r2, r3}
 8000728:	e895 0003 	ldmia.w	r5, {r0, r1}
    int j = 0;
 800072c:	2700      	movs	r7, #0
    int missing[] = { -123, -124, -128, -129, -159, -163, -164,
 800072e:	e884 0003 	stmia.w	r4, {r0, r1}
    for (i = MAX_CODE_E-1; i >= WC_LAST_E; i--) {
 8000732:	f06f 0464 	mvn.w	r4, #100	; 0x64
        errStr = wc_GetErrorString(i);
 8000736:	4620      	mov	r0, r4
 8000738:	f012 fce8 	bl	801310c <wc_GetErrorString>
        wc_ErrorString(i, out);
 800073c:	a90e      	add	r1, sp, #56	; 0x38
        errStr = wc_GetErrorString(i);
 800073e:	4605      	mov	r5, r0
        wc_ErrorString(i, out);
 8000740:	4620      	mov	r0, r4
 8000742:	f012 fcf1 	bl	8013128 <wc_ErrorString>
        if (i != missing[j]) {
 8000746:	ab22      	add	r3, sp, #136	; 0x88
 8000748:	eb03 0387 	add.w	r3, r3, r7, lsl #2
 800074c:	f853 3c88 	ldr.w	r3, [r3, #-136]
 8000750:	42a3      	cmp	r3, r4
 8000752:	d015      	beq.n	8000780 <error_test+0x74>
            if (XSTRCMP(errStr, unknownStr) == 0)
 8000754:	4631      	mov	r1, r6
 8000756:	4628      	mov	r0, r5
 8000758:	f01a fdbb 	bl	801b2d2 <strcmp>
 800075c:	b3b0      	cbz	r0, 80007cc <error_test+0xc0>
            if (XSTRCMP(out, unknownStr) == 0)
 800075e:	4631      	mov	r1, r6
 8000760:	a80e      	add	r0, sp, #56	; 0x38
 8000762:	f01a fdb6 	bl	801b2d2 <strcmp>
 8000766:	b398      	cbz	r0, 80007d0 <error_test+0xc4>
            if (XSTRCMP(errStr, out) != 0)
 8000768:	a90e      	add	r1, sp, #56	; 0x38
 800076a:	4628      	mov	r0, r5
 800076c:	f01a fdb1 	bl	801b2d2 <strcmp>
 8000770:	bb80      	cbnz	r0, 80007d4 <error_test+0xc8>
            if (XSTRLEN(errStr) >= WOLFSSL_MAX_ERROR_SZ)
 8000772:	4628      	mov	r0, r5
 8000774:	f01a fdb7 	bl	801b2e6 <strlen>
 8000778:	284f      	cmp	r0, #79	; 0x4f
 800077a:	d90c      	bls.n	8000796 <error_test+0x8a>
                return WC_TEST_RET_ENC_NC;
 800077c:	481a      	ldr	r0, [pc, #104]	; (80007e8 <error_test+0xdc>)
 800077e:	e023      	b.n	80007c8 <error_test+0xbc>
            if (XSTRCMP(errStr, unknownStr) != 0)
 8000780:	4631      	mov	r1, r6
 8000782:	4628      	mov	r0, r5
            j++;
 8000784:	3701      	adds	r7, #1
            if (XSTRCMP(errStr, unknownStr) != 0)
 8000786:	f01a fda4 	bl	801b2d2 <strcmp>
 800078a:	bb28      	cbnz	r0, 80007d8 <error_test+0xcc>
            if (XSTRCMP(out, unknownStr) != 0)
 800078c:	4631      	mov	r1, r6
 800078e:	a80e      	add	r0, sp, #56	; 0x38
 8000790:	f01a fd9f 	bl	801b2d2 <strcmp>
 8000794:	bb10      	cbnz	r0, 80007dc <error_test+0xd0>
    for (i = MAX_CODE_E-1; i >= WC_LAST_E; i--) {
 8000796:	3c01      	subs	r4, #1
 8000798:	f514 7f96 	cmn.w	r4, #300	; 0x12c
 800079c:	d1cb      	bne.n	8000736 <error_test+0x2a>
    errStr = wc_GetErrorString(i);
 800079e:	4620      	mov	r0, r4
 80007a0:	f012 fcb4 	bl	801310c <wc_GetErrorString>
    wc_ErrorString(i, out);
 80007a4:	a90e      	add	r1, sp, #56	; 0x38
    errStr = wc_GetErrorString(i);
 80007a6:	4605      	mov	r5, r0
    wc_ErrorString(i, out);
 80007a8:	4620      	mov	r0, r4
 80007aa:	f012 fcbd 	bl	8013128 <wc_ErrorString>
    if (XSTRCMP(errStr, unknownStr) != 0)
 80007ae:	4631      	mov	r1, r6
 80007b0:	4628      	mov	r0, r5
 80007b2:	f01a fd8e 	bl	801b2d2 <strcmp>
 80007b6:	b998      	cbnz	r0, 80007e0 <error_test+0xd4>
    if (XSTRCMP(out, unknownStr) != 0)
 80007b8:	4631      	mov	r1, r6
 80007ba:	a80e      	add	r0, sp, #56	; 0x38
 80007bc:	f01a fd89 	bl	801b2d2 <strcmp>
        return WC_TEST_RET_ENC_NC;
 80007c0:	4b0a      	ldr	r3, [pc, #40]	; (80007ec <error_test+0xe0>)
 80007c2:	2800      	cmp	r0, #0
 80007c4:	bf18      	it	ne
 80007c6:	4618      	movne	r0, r3
}
 80007c8:	b023      	add	sp, #140	; 0x8c
 80007ca:	bdf0      	pop	{r4, r5, r6, r7, pc}
                return WC_TEST_RET_ENC_NC;
 80007cc:	4808      	ldr	r0, [pc, #32]	; (80007f0 <error_test+0xe4>)
 80007ce:	e7fb      	b.n	80007c8 <error_test+0xbc>
                return WC_TEST_RET_ENC_NC;
 80007d0:	4808      	ldr	r0, [pc, #32]	; (80007f4 <error_test+0xe8>)
 80007d2:	e7f9      	b.n	80007c8 <error_test+0xbc>
                return WC_TEST_RET_ENC_NC;
 80007d4:	4808      	ldr	r0, [pc, #32]	; (80007f8 <error_test+0xec>)
 80007d6:	e7f7      	b.n	80007c8 <error_test+0xbc>
                return WC_TEST_RET_ENC_NC;
 80007d8:	4808      	ldr	r0, [pc, #32]	; (80007fc <error_test+0xf0>)
 80007da:	e7f5      	b.n	80007c8 <error_test+0xbc>
                return WC_TEST_RET_ENC_NC;
 80007dc:	4808      	ldr	r0, [pc, #32]	; (8000800 <error_test+0xf4>)
 80007de:	e7f3      	b.n	80007c8 <error_test+0xbc>
        return WC_TEST_RET_ENC_NC;
 80007e0:	4808      	ldr	r0, [pc, #32]	; (8000804 <error_test+0xf8>)
 80007e2:	e7f1      	b.n	80007c8 <error_test+0xbc>
 80007e4:	0801bd78 	.word	0x0801bd78
 80007e8:	fffff7aa 	.word	0xfffff7aa
 80007ec:	fffff799 	.word	0xfffff799
 80007f0:	fffff7b0 	.word	0xfffff7b0
 80007f4:	fffff7ae 	.word	0xfffff7ae
 80007f8:	fffff7ac 	.word	0xfffff7ac
 80007fc:	fffff7a5 	.word	0xfffff7a5
 8000800:	fffff7a3 	.word	0xfffff7a3
 8000804:	fffff79b 	.word	0xfffff79b

08000808 <base64_test>:
{
 8000808:	e92d 41f0 	stmdb	sp!, {r4, r5, r6, r7, r8, lr}
 800080c:	b0ca      	sub	sp, #296	; 0x128
    byte       longData[79] = { 0 };
 800080e:	2100      	movs	r1, #0
 8000810:	224b      	movs	r2, #75	; 0x4b
 8000812:	a817      	add	r0, sp, #92	; 0x5c
    byte goodChar[] =
 8000814:	2542      	movs	r5, #66	; 0x42
    byte       longData[79] = { 0 };
 8000816:	9116      	str	r1, [sp, #88]	; 0x58
 8000818:	f01a fc0a 	bl	801b030 <memset>
    byte goodChar[] =
 800081c:	49ab      	ldr	r1, [pc, #684]	; (8000acc <base64_test+0x2c4>)
 800081e:	462a      	mov	r2, r5
 8000820:	a805      	add	r0, sp, #20
 8000822:	f01a fbdd 	bl	801afe0 <memcpy>
    byte charTest[] = "A+Gd\0\0\0";
 8000826:	4aaa      	ldr	r2, [pc, #680]	; (8000ad0 <base64_test+0x2c8>)
 8000828:	6b90      	ldr	r0, [r2, #56]	; 0x38
 800082a:	6bd1      	ldr	r1, [r2, #60]	; 0x3c
 800082c:	ab03      	add	r3, sp, #12
 800082e:	c303      	stmia	r3!, {r0, r1}
    outLen = sizeof(out);
 8000830:	2480      	movs	r4, #128	; 0x80
    ret = Base64_Decode(good, sizeof(good), out, &outLen);
 8000832:	48a8      	ldr	r0, [pc, #672]	; (8000ad4 <base64_test+0x2cc>)
    outLen = sizeof(out);
 8000834:	9401      	str	r4, [sp, #4]
    ret = Base64_Decode(good, sizeof(good), out, &outLen);
 8000836:	ab01      	add	r3, sp, #4
 8000838:	aa2a      	add	r2, sp, #168	; 0xa8
 800083a:	2108      	movs	r1, #8
 800083c:	f011 fd37 	bl	80122ae <Base64_Decode>
    if (ret != 0)
 8000840:	b158      	cbz	r0, 800085a <base64_test+0x52>
        return WC_TEST_RET_ENC_EC(ret);
 8000842:	4ba5      	ldr	r3, [pc, #660]	; (8000ad8 <base64_test+0x2d0>)
 8000844:	4240      	negs	r0, r0
 8000846:	f3c0 000a 	ubfx	r0, r0, #0, #11
 800084a:	4358      	muls	r0, r3
 800084c:	f100 4060 	add.w	r0, r0, #3758096384	; 0xe0000000
 8000850:	f6a0 008d 	subw	r0, r0, #2189	; 0x88d
}
 8000854:	b04a      	add	sp, #296	; 0x128
 8000856:	e8bd 81f0 	ldmia.w	sp!, {r4, r5, r6, r7, r8, pc}
    ret = Base64_Decode(goodEnd, sizeof(goodEnd), out, &outLen);
 800085a:	48a0      	ldr	r0, [pc, #640]	; (8000adc <base64_test+0x2d4>)
    outLen = sizeof(out);
 800085c:	9401      	str	r4, [sp, #4]
    ret = Base64_Decode(goodEnd, sizeof(goodEnd), out, &outLen);
 800085e:	ab01      	add	r3, sp, #4
 8000860:	aa2a      	add	r2, sp, #168	; 0xa8
 8000862:	2108      	movs	r1, #8
 8000864:	f011 fd23 	bl	80122ae <Base64_Decode>
    if (ret != 0)
 8000868:	b150      	cbz	r0, 8000880 <base64_test+0x78>
        return WC_TEST_RET_ENC_EC(ret);
 800086a:	4b9b      	ldr	r3, [pc, #620]	; (8000ad8 <base64_test+0x2d0>)
 800086c:	4240      	negs	r0, r0
 800086e:	f3c0 000a 	ubfx	r0, r0, #0, #11
 8000872:	4358      	muls	r0, r3
 8000874:	f100 4060 	add.w	r0, r0, #3758096384	; 0xe0000000
 8000878:	f46f 6209 	mvn.w	r2, #2192	; 0x890
 800087c:	4410      	add	r0, r2
 800087e:	e7e9      	b.n	8000854 <base64_test+0x4c>
    ret = Base64_Decode(goodChar, sizeof(goodChar), goodChar, &outLen);
 8000880:	aa05      	add	r2, sp, #20
 8000882:	ab01      	add	r3, sp, #4
 8000884:	4629      	mov	r1, r5
 8000886:	4610      	mov	r0, r2
    outLen = sizeof(goodChar);
 8000888:	9501      	str	r5, [sp, #4]
    ret = Base64_Decode(goodChar, sizeof(goodChar), goodChar, &outLen);
 800088a:	f011 fd10 	bl	80122ae <Base64_Decode>
    if (ret != 0)
 800088e:	b148      	cbz	r0, 80008a4 <base64_test+0x9c>
        return WC_TEST_RET_ENC_EC(ret);
 8000890:	4b91      	ldr	r3, [pc, #580]	; (8000ad8 <base64_test+0x2d0>)
 8000892:	4240      	negs	r0, r0
 8000894:	f3c0 000a 	ubfx	r0, r0, #0, #11
 8000898:	4358      	muls	r0, r3
 800089a:	f100 4060 	add.w	r0, r0, #3758096384	; 0xe0000000
 800089e:	f6a0 0095 	subw	r0, r0, #2197	; 0x895
 80008a2:	e7d7      	b.n	8000854 <base64_test+0x4c>
    if (outLen != 64 / 4 * 3)
 80008a4:	9b01      	ldr	r3, [sp, #4]
 80008a6:	2b30      	cmp	r3, #48	; 0x30
 80008a8:	f040 819a 	bne.w	8000be0 <base64_test+0x3d8>
    ret = Base64_Decode(good_spaces, sizeof(good_spaces), out, &outLen);
 80008ac:	488c      	ldr	r0, [pc, #560]	; (8000ae0 <base64_test+0x2d8>)
    outLen = sizeof(out);
 80008ae:	9401      	str	r4, [sp, #4]
    ret = Base64_Decode(good_spaces, sizeof(good_spaces), out, &outLen);
 80008b0:	ab01      	add	r3, sp, #4
 80008b2:	aa2a      	add	r2, sp, #168	; 0xa8
 80008b4:	210b      	movs	r1, #11
 80008b6:	f011 fcfa 	bl	80122ae <Base64_Decode>
    if (ret != 0)
 80008ba:	4605      	mov	r5, r0
 80008bc:	b148      	cbz	r0, 80008d2 <base64_test+0xca>
        return WC_TEST_RET_ENC_EC(ret);
 80008be:	4d86      	ldr	r5, [pc, #536]	; (8000ad8 <base64_test+0x2d0>)
 80008c0:	4240      	negs	r0, r0
 80008c2:	f3c0 000a 	ubfx	r0, r0, #0, #11
 80008c6:	4368      	muls	r0, r5
 80008c8:	f100 4060 	add.w	r0, r0, #3758096384	; 0xe0000000
 80008cc:	f6a0 009b 	subw	r0, r0, #2203	; 0x89b
 80008d0:	e7c0      	b.n	8000854 <base64_test+0x4c>
    outLen = 1;
 80008d2:	2301      	movs	r3, #1
 80008d4:	9301      	str	r3, [sp, #4]
    ret = Base64_Decode(good, sizeof(good), out, &outLen);
 80008d6:	487f      	ldr	r0, [pc, #508]	; (8000ad4 <base64_test+0x2cc>)
 80008d8:	ab01      	add	r3, sp, #4
 80008da:	aa2a      	add	r2, sp, #168	; 0xa8
 80008dc:	2108      	movs	r1, #8
 80008de:	f011 fce6 	bl	80122ae <Base64_Decode>
    if (ret != BAD_FUNC_ARG)
 80008e2:	f110 0fad 	cmn.w	r0, #173	; 0xad
 80008e6:	d00a      	beq.n	80008fe <base64_test+0xf6>
        return WC_TEST_RET_ENC_EC(ret);
 80008e8:	4b7b      	ldr	r3, [pc, #492]	; (8000ad8 <base64_test+0x2d0>)
 80008ea:	4240      	negs	r0, r0
 80008ec:	f3c0 000a 	ubfx	r0, r0, #0, #11
 80008f0:	4358      	muls	r0, r3
 80008f2:	f100 4060 	add.w	r0, r0, #3758096384	; 0xe0000000
 80008f6:	f46f 630a 	mvn.w	r3, #2208	; 0x8a0
 80008fa:	4418      	add	r0, r3
 80008fc:	e7aa      	b.n	8000854 <base64_test+0x4c>
    ret = Base64_Decode(badEOL, sizeof(badEOL), out, &outLen);
 80008fe:	4879      	ldr	r0, [pc, #484]	; (8000ae4 <base64_test+0x2dc>)
    outLen = sizeof(out);
 8000900:	9401      	str	r4, [sp, #4]
    ret = Base64_Decode(badEOL, sizeof(badEOL), out, &outLen);
 8000902:	ab01      	add	r3, sp, #4
 8000904:	aa2a      	add	r2, sp, #168	; 0xa8
 8000906:	2108      	movs	r1, #8
 8000908:	f011 fcd1 	bl	80122ae <Base64_Decode>
    if (ret != ASN_INPUT_E)
 800090c:	f110 0f9a 	cmn.w	r0, #154	; 0x9a
 8000910:	d009      	beq.n	8000926 <base64_test+0x11e>
        return WC_TEST_RET_ENC_EC(ret);
 8000912:	4b71      	ldr	r3, [pc, #452]	; (8000ad8 <base64_test+0x2d0>)
 8000914:	4240      	negs	r0, r0
 8000916:	f3c0 000a 	ubfx	r0, r0, #0, #11
 800091a:	4358      	muls	r0, r3
 800091c:	f100 4060 	add.w	r0, r0, #3758096384	; 0xe0000000
 8000920:	f6a0 00a6 	subw	r0, r0, #2214	; 0x8a6
 8000924:	e796      	b.n	8000854 <base64_test+0x4c>
    ret = Base64_Decode(badPadding, sizeof(badPadding), out, &outLen);
 8000926:	4870      	ldr	r0, [pc, #448]	; (8000ae8 <base64_test+0x2e0>)
    outLen = sizeof(out);
 8000928:	9401      	str	r4, [sp, #4]
    ret = Base64_Decode(badPadding, sizeof(badPadding), out, &outLen);
 800092a:	ab01      	add	r3, sp, #4
 800092c:	aa2a      	add	r2, sp, #168	; 0xa8
 800092e:	2105      	movs	r1, #5
 8000930:	f011 fcbd 	bl	80122ae <Base64_Decode>
    if (ret != ASN_INPUT_E)
 8000934:	f110 0f9a 	cmn.w	r0, #154	; 0x9a
 8000938:	d009      	beq.n	800094e <base64_test+0x146>
        return WC_TEST_RET_ENC_EC(ret);
 800093a:	4b67      	ldr	r3, [pc, #412]	; (8000ad8 <base64_test+0x2d0>)
 800093c:	4240      	negs	r0, r0
 800093e:	f3c0 000a 	ubfx	r0, r0, #0, #11
 8000942:	4358      	muls	r0, r3
 8000944:	f100 4060 	add.w	r0, r0, #3758096384	; 0xe0000000
 8000948:	f6a0 00aa 	subw	r0, r0, #2218	; 0x8aa
 800094c:	e782      	b.n	8000854 <base64_test+0x4c>
        ret = Base64_Decode(badSmall + i, 4, out, &outLen);
 800094e:	4f67      	ldr	r7, [pc, #412]	; (8000aec <base64_test+0x2e4>)
        ret = Base64_Decode(badLarge + i, 4, out, &outLen);
 8000950:	f8df 819c 	ldr.w	r8, [pc, #412]	; 8000af0 <base64_test+0x2e8>
    for (i = 0; i < 4; i++) {
 8000954:	462e      	mov	r6, r5
        ret = Base64_Decode(badSmall + i, 4, out, &outLen);
 8000956:	ab01      	add	r3, sp, #4
 8000958:	aa2a      	add	r2, sp, #168	; 0xa8
 800095a:	2104      	movs	r1, #4
 800095c:	19b8      	adds	r0, r7, r6
        outLen = sizeof(out);
 800095e:	9401      	str	r4, [sp, #4]
        ret = Base64_Decode(badSmall + i, 4, out, &outLen);
 8000960:	f011 fca5 	bl	80122ae <Base64_Decode>
        if (ret != ASN_INPUT_E)
 8000964:	309a      	adds	r0, #154	; 0x9a
 8000966:	d006      	beq.n	8000976 <base64_test+0x16e>
            return WC_TEST_RET_ENC_I(i);
 8000968:	485b      	ldr	r0, [pc, #364]	; (8000ad8 <base64_test+0x2d0>)
 800096a:	4370      	muls	r0, r6
 800096c:	f100 4020 	add.w	r0, r0, #2684354560	; 0xa0000000
 8000970:	f5a0 600b 	sub.w	r0, r0, #2224	; 0x8b0
 8000974:	e76e      	b.n	8000854 <base64_test+0x4c>
        ret = Base64_Decode(badLarge + i, 4, out, &outLen);
 8000976:	ab01      	add	r3, sp, #4
 8000978:	aa2a      	add	r2, sp, #168	; 0xa8
 800097a:	2104      	movs	r1, #4
 800097c:	eb08 0006 	add.w	r0, r8, r6
 8000980:	f011 fc95 	bl	80122ae <Base64_Decode>
        if (ret != ASN_INPUT_E)
 8000984:	309a      	adds	r0, #154	; 0x9a
 8000986:	d006      	beq.n	8000996 <base64_test+0x18e>
            return WC_TEST_RET_ENC_I(i);
 8000988:	4853      	ldr	r0, [pc, #332]	; (8000ad8 <base64_test+0x2d0>)
 800098a:	4370      	muls	r0, r6
 800098c:	f100 4020 	add.w	r0, r0, #2684354560	; 0xa0000000
 8000990:	f6a0 00b3 	subw	r0, r0, #2227	; 0x8b3
 8000994:	e75e      	b.n	8000854 <base64_test+0x4c>
    for (i = 0; i < 4; i++) {
 8000996:	3601      	adds	r6, #1
 8000998:	2e04      	cmp	r6, #4
 800099a:	d1dc      	bne.n	8000956 <base64_test+0x14e>
    for (i = 1; i < 0x2b; i++) {
 800099c:	2401      	movs	r4, #1
        outLen = sizeof(out);
 800099e:	2680      	movs	r6, #128	; 0x80
        ret = Base64_Decode(charTest, sizeof(charTest), out, &outLen);
 80009a0:	ab01      	add	r3, sp, #4
 80009a2:	aa2a      	add	r2, sp, #168	; 0xa8
 80009a4:	2108      	movs	r1, #8
 80009a6:	a803      	add	r0, sp, #12
        outLen = sizeof(out);
 80009a8:	9601      	str	r6, [sp, #4]
        charTest[0] = (byte)i;
 80009aa:	f88d 400c 	strb.w	r4, [sp, #12]
        ret = Base64_Decode(charTest, sizeof(charTest), out, &outLen);
 80009ae:	f011 fc7e 	bl	80122ae <Base64_Decode>
        if (ret != ASN_INPUT_E)
 80009b2:	309a      	adds	r0, #154	; 0x9a
 80009b4:	d006      	beq.n	80009c4 <base64_test+0x1bc>
            return WC_TEST_RET_ENC_I(i);
 80009b6:	4848      	ldr	r0, [pc, #288]	; (8000ad8 <base64_test+0x2d0>)
 80009b8:	4360      	muls	r0, r4
 80009ba:	f100 4020 	add.w	r0, r0, #2684354560	; 0xa0000000
 80009be:	f6a0 00bb 	subw	r0, r0, #2235	; 0x8bb
 80009c2:	e747      	b.n	8000854 <base64_test+0x4c>
    for (i = 1; i < 0x2b; i++) {
 80009c4:	3401      	adds	r4, #1
 80009c6:	2c2b      	cmp	r4, #43	; 0x2b
 80009c8:	d1ea      	bne.n	80009a0 <base64_test+0x198>
 80009ca:	4c4a      	ldr	r4, [pc, #296]	; (8000af4 <base64_test+0x2ec>)
        outLen = sizeof(out);
 80009cc:	2680      	movs	r6, #128	; 0x80
        charTest[0] = badChar[i];
 80009ce:	f814 3b01 	ldrb.w	r3, [r4], #1
 80009d2:	f88d 300c 	strb.w	r3, [sp, #12]
        ret = Base64_Decode(charTest, sizeof(charTest), out, &outLen);
 80009d6:	aa2a      	add	r2, sp, #168	; 0xa8
 80009d8:	ab01      	add	r3, sp, #4
 80009da:	2108      	movs	r1, #8
 80009dc:	a803      	add	r0, sp, #12
        outLen = sizeof(out);
 80009de:	9601      	str	r6, [sp, #4]
        ret = Base64_Decode(charTest, sizeof(charTest), out, &outLen);
 80009e0:	f011 fc65 	bl	80122ae <Base64_Decode>
        if (ret != ASN_INPUT_E)
 80009e4:	309a      	adds	r0, #154	; 0x9a
 80009e6:	d006      	beq.n	80009f6 <base64_test+0x1ee>
            return WC_TEST_RET_ENC_I(i);
 80009e8:	483b      	ldr	r0, [pc, #236]	; (8000ad8 <base64_test+0x2d0>)
 80009ea:	4368      	muls	r0, r5
 80009ec:	f100 4020 	add.w	r0, r0, #2684354560	; 0xa0000000
 80009f0:	f6a0 00c3 	subw	r0, r0, #2243	; 0x8c3
 80009f4:	e72e      	b.n	8000854 <base64_test+0x4c>
    for (i = 0; i < (int)sizeof(badChar) - 1; i++) {
 80009f6:	3501      	adds	r5, #1
 80009f8:	2d10      	cmp	r5, #16
 80009fa:	d1e8      	bne.n	80009ce <base64_test+0x1c6>
    for (i = 0x7b; i < 0x100; i++) {
 80009fc:	247b      	movs	r4, #123	; 0x7b
        outLen = sizeof(out);
 80009fe:	2580      	movs	r5, #128	; 0x80
        ret = Base64_Decode(charTest, sizeof(charTest), out, &outLen);
 8000a00:	ab01      	add	r3, sp, #4
 8000a02:	aa2a      	add	r2, sp, #168	; 0xa8
 8000a04:	2108      	movs	r1, #8
 8000a06:	a803      	add	r0, sp, #12
        outLen = sizeof(out);
 8000a08:	9501      	str	r5, [sp, #4]
        charTest[0] = (byte)i;
 8000a0a:	f88d 400c 	strb.w	r4, [sp, #12]
        ret = Base64_Decode(charTest, sizeof(charTest), out, &outLen);
 8000a0e:	f011 fc4e 	bl	80122ae <Base64_Decode>
        if (ret != ASN_INPUT_E)
 8000a12:	309a      	adds	r0, #154	; 0x9a
 8000a14:	d006      	beq.n	8000a24 <base64_test+0x21c>
            return WC_TEST_RET_ENC_I(i);
 8000a16:	4830      	ldr	r0, [pc, #192]	; (8000ad8 <base64_test+0x2d0>)
 8000a18:	4360      	muls	r0, r4
 8000a1a:	f100 4020 	add.w	r0, r0, #2684354560	; 0xa0000000
 8000a1e:	f6a0 00cb 	subw	r0, r0, #2251	; 0x8cb
 8000a22:	e717      	b.n	8000854 <base64_test+0x4c>
    for (i = 0x7b; i < 0x100; i++) {
 8000a24:	3401      	adds	r4, #1
 8000a26:	f5b4 7f80 	cmp.w	r4, #256	; 0x100
 8000a2a:	d1e9      	bne.n	8000a00 <base64_test+0x1f8>
    dataLen = sizeof(data);
 8000a2c:	2303      	movs	r3, #3
 8000a2e:	9302      	str	r3, [sp, #8]
    ret = Base64_Decode(symbols, sizeof(symbols), data, &dataLen);
 8000a30:	466a      	mov	r2, sp
 8000a32:	4831      	ldr	r0, [pc, #196]	; (8000af8 <base64_test+0x2f0>)
 8000a34:	ab02      	add	r3, sp, #8
 8000a36:	2105      	movs	r1, #5
 8000a38:	f011 fc39 	bl	80122ae <Base64_Decode>
    if (ret != 0)
 8000a3c:	4602      	mov	r2, r0
 8000a3e:	b148      	cbz	r0, 8000a54 <base64_test+0x24c>
        return WC_TEST_RET_ENC_EC(ret);
 8000a40:	4a25      	ldr	r2, [pc, #148]	; (8000ad8 <base64_test+0x2d0>)
 8000a42:	4240      	negs	r0, r0
 8000a44:	f3c0 000a 	ubfx	r0, r0, #0, #11
 8000a48:	4350      	muls	r0, r2
 8000a4a:	f100 4060 	add.w	r0, r0, #3758096384	; 0xe0000000
 8000a4e:	f6a0 00d4 	subw	r0, r0, #2260	; 0x8d4
 8000a52:	e6ff      	b.n	8000854 <base64_test+0x4c>
    ret = Base64_Encode(data, dataLen, NULL, &outLen);
 8000a54:	9902      	ldr	r1, [sp, #8]
    outLen = sizeof(out);
 8000a56:	9501      	str	r5, [sp, #4]
    ret = Base64_Encode(data, dataLen, NULL, &outLen);
 8000a58:	ab01      	add	r3, sp, #4
 8000a5a:	4668      	mov	r0, sp
 8000a5c:	f011 fcff 	bl	801245e <Base64_Encode>
    if (ret != LENGTH_ONLY_E)
 8000a60:	f110 0fca 	cmn.w	r0, #202	; 0xca
 8000a64:	d009      	beq.n	8000a7a <base64_test+0x272>
        return WC_TEST_RET_ENC_EC(ret);
 8000a66:	4b1c      	ldr	r3, [pc, #112]	; (8000ad8 <base64_test+0x2d0>)
 8000a68:	4240      	negs	r0, r0
 8000a6a:	f3c0 000a 	ubfx	r0, r0, #0, #11
 8000a6e:	4358      	muls	r0, r3
 8000a70:	f100 4060 	add.w	r0, r0, #3758096384	; 0xe0000000
 8000a74:	f6a0 00d8 	subw	r0, r0, #2264	; 0x8d8
 8000a78:	e6ec      	b.n	8000854 <base64_test+0x4c>
    ret = Base64_Encode(data, dataLen, out, &outLen);
 8000a7a:	9902      	ldr	r1, [sp, #8]
    outLen = sizeof(out);
 8000a7c:	9501      	str	r5, [sp, #4]
    ret = Base64_Encode(data, dataLen, out, &outLen);
 8000a7e:	ab01      	add	r3, sp, #4
 8000a80:	aa2a      	add	r2, sp, #168	; 0xa8
 8000a82:	4668      	mov	r0, sp
 8000a84:	f011 fceb 	bl	801245e <Base64_Encode>
    if (ret != 0)
 8000a88:	4604      	mov	r4, r0
 8000a8a:	b148      	cbz	r0, 8000aa0 <base64_test+0x298>
        return WC_TEST_RET_ENC_EC(ret);
 8000a8c:	4c12      	ldr	r4, [pc, #72]	; (8000ad8 <base64_test+0x2d0>)
 8000a8e:	4240      	negs	r0, r0
 8000a90:	f3c0 000a 	ubfx	r0, r0, #0, #11
 8000a94:	4360      	muls	r0, r4
 8000a96:	f100 4060 	add.w	r0, r0, #3758096384	; 0xe0000000
 8000a9a:	f6a0 00dc 	subw	r0, r0, #2268	; 0x8dc
 8000a9e:	e6d9      	b.n	8000854 <base64_test+0x4c>
    outLen = 7;
 8000aa0:	2307      	movs	r3, #7
 8000aa2:	9301      	str	r3, [sp, #4]
    ret = Base64_EncodeEsc(data, dataLen, out, &outLen);
 8000aa4:	9902      	ldr	r1, [sp, #8]
 8000aa6:	ab01      	add	r3, sp, #4
 8000aa8:	aa2a      	add	r2, sp, #168	; 0xa8
 8000aaa:	4668      	mov	r0, sp
 8000aac:	f011 fcde 	bl	801246c <Base64_EncodeEsc>
    if (ret != BUFFER_E)
 8000ab0:	f110 0f84 	cmn.w	r0, #132	; 0x84
 8000ab4:	d022      	beq.n	8000afc <base64_test+0x2f4>
        return WC_TEST_RET_ENC_EC(ret);
 8000ab6:	4b08      	ldr	r3, [pc, #32]	; (8000ad8 <base64_test+0x2d0>)
 8000ab8:	4240      	negs	r0, r0
 8000aba:	f3c0 000a 	ubfx	r0, r0, #0, #11
 8000abe:	4358      	muls	r0, r3
 8000ac0:	f100 4060 	add.w	r0, r0, #3758096384	; 0xe0000000
 8000ac4:	f5a0 600e 	sub.w	r0, r0, #2272	; 0x8e0
 8000ac8:	e6c4      	b.n	8000854 <base64_test+0x4c>
 8000aca:	bf00      	nop
 8000acc:	0801dc9e 	.word	0x0801dc9e
 8000ad0:	0801bd78 	.word	0x0801bd78
 8000ad4:	0801f03f 	.word	0x0801f03f
 8000ad8:	fffe7960 	.word	0xfffe7960
 8000adc:	0801f047 	.word	0x0801f047
 8000ae0:	0801f04f 	.word	0x0801f04f
 8000ae4:	0801ee79 	.word	0x0801ee79
 8000ae8:	0801ee8a 	.word	0x0801ee8a
 8000aec:	0801ee8f 	.word	0x0801ee8f
 8000af0:	0801ee81 	.word	0x0801ee81
 8000af4:	0801ee68 	.word	0x0801ee68
 8000af8:	0801fbf4 	.word	0x0801fbf4
    ret = Base64_EncodeEsc(data, dataLen, NULL, &outLen);
 8000afc:	9902      	ldr	r1, [sp, #8]
    outLen = sizeof(out);
 8000afe:	9501      	str	r5, [sp, #4]
    ret = Base64_EncodeEsc(data, dataLen, NULL, &outLen);
 8000b00:	ab01      	add	r3, sp, #4
 8000b02:	4622      	mov	r2, r4
 8000b04:	4668      	mov	r0, sp
 8000b06:	f011 fcb1 	bl	801246c <Base64_EncodeEsc>
    if (ret != LENGTH_ONLY_E)
 8000b0a:	f110 0fca 	cmn.w	r0, #202	; 0xca
 8000b0e:	d009      	beq.n	8000b24 <base64_test+0x31c>
        return WC_TEST_RET_ENC_EC(ret);
 8000b10:	4b34      	ldr	r3, [pc, #208]	; (8000be4 <base64_test+0x3dc>)
 8000b12:	4240      	negs	r0, r0
 8000b14:	f3c0 000a 	ubfx	r0, r0, #0, #11
 8000b18:	4358      	muls	r0, r3
 8000b1a:	f100 4060 	add.w	r0, r0, #3758096384	; 0xe0000000
 8000b1e:	f6a0 00e4 	subw	r0, r0, #2276	; 0x8e4
 8000b22:	e697      	b.n	8000854 <base64_test+0x4c>
    ret = Base64_EncodeEsc(data, dataLen, out, &outLen);
 8000b24:	9902      	ldr	r1, [sp, #8]
    outLen = sizeof(out);
 8000b26:	9501      	str	r5, [sp, #4]
    ret = Base64_EncodeEsc(data, dataLen, out, &outLen);
 8000b28:	ab01      	add	r3, sp, #4
 8000b2a:	aa2a      	add	r2, sp, #168	; 0xa8
 8000b2c:	4668      	mov	r0, sp
 8000b2e:	f011 fc9d 	bl	801246c <Base64_EncodeEsc>
    if (ret != 0)
 8000b32:	b148      	cbz	r0, 8000b48 <base64_test+0x340>
        return WC_TEST_RET_ENC_EC(ret);
 8000b34:	4b2b      	ldr	r3, [pc, #172]	; (8000be4 <base64_test+0x3dc>)
 8000b36:	4240      	negs	r0, r0
 8000b38:	f3c0 000a 	ubfx	r0, r0, #0, #11
 8000b3c:	4358      	muls	r0, r3
 8000b3e:	f100 4060 	add.w	r0, r0, #3758096384	; 0xe0000000
 8000b42:	f6a0 00e8 	subw	r0, r0, #2280	; 0x8e8
 8000b46:	e685      	b.n	8000854 <base64_test+0x4c>
    ret = Base64_Encode_NoNl(data, dataLen, out, &outLen);
 8000b48:	9902      	ldr	r1, [sp, #8]
    outLen = sizeof(out);
 8000b4a:	9501      	str	r5, [sp, #4]
    ret = Base64_Encode_NoNl(data, dataLen, out, &outLen);
 8000b4c:	ab01      	add	r3, sp, #4
 8000b4e:	aa2a      	add	r2, sp, #168	; 0xa8
 8000b50:	4668      	mov	r0, sp
 8000b52:	f011 fc92 	bl	801247a <Base64_Encode_NoNl>
    if (ret != 0)
 8000b56:	b148      	cbz	r0, 8000b6c <base64_test+0x364>
        return WC_TEST_RET_ENC_EC(ret);
 8000b58:	4b22      	ldr	r3, [pc, #136]	; (8000be4 <base64_test+0x3dc>)
 8000b5a:	4240      	negs	r0, r0
 8000b5c:	f3c0 000a 	ubfx	r0, r0, #0, #11
 8000b60:	4358      	muls	r0, r3
 8000b62:	f100 4060 	add.w	r0, r0, #3758096384	; 0xe0000000
 8000b66:	f6a0 00ec 	subw	r0, r0, #2284	; 0x8ec
 8000b6a:	e673      	b.n	8000854 <base64_test+0x4c>
    dataLen = sizeof(longData);
 8000b6c:	214f      	movs	r1, #79	; 0x4f
    ret = Base64_Encode(longData, dataLen, out, &outLen);
 8000b6e:	ab01      	add	r3, sp, #4
 8000b70:	aa2a      	add	r2, sp, #168	; 0xa8
 8000b72:	a816      	add	r0, sp, #88	; 0x58
    outLen = sizeof(out);
 8000b74:	9501      	str	r5, [sp, #4]
    dataLen = sizeof(longData);
 8000b76:	9102      	str	r1, [sp, #8]
    ret = Base64_Encode(longData, dataLen, out, &outLen);
 8000b78:	f011 fc71 	bl	801245e <Base64_Encode>
    if (ret != 0)
 8000b7c:	b148      	cbz	r0, 8000b92 <base64_test+0x38a>
        return WC_TEST_RET_ENC_EC(ret);
 8000b7e:	4b19      	ldr	r3, [pc, #100]	; (8000be4 <base64_test+0x3dc>)
 8000b80:	4240      	negs	r0, r0
 8000b82:	f3c0 000a 	ubfx	r0, r0, #0, #11
 8000b86:	4358      	muls	r0, r3
 8000b88:	f100 4060 	add.w	r0, r0, #3758096384	; 0xe0000000
 8000b8c:	f6a0 00f3 	subw	r0, r0, #2291	; 0x8f3
 8000b90:	e660      	b.n	8000854 <base64_test+0x4c>
    outLen = sizeof(out);
 8000b92:	2480      	movs	r4, #128	; 0x80
    ret = Base64_EncodeEsc(longData, dataLen, out, &outLen);
 8000b94:	9902      	ldr	r1, [sp, #8]
    outLen = sizeof(out);
 8000b96:	9401      	str	r4, [sp, #4]
    ret = Base64_EncodeEsc(longData, dataLen, out, &outLen);
 8000b98:	ab01      	add	r3, sp, #4
 8000b9a:	aa2a      	add	r2, sp, #168	; 0xa8
 8000b9c:	a816      	add	r0, sp, #88	; 0x58
 8000b9e:	f011 fc65 	bl	801246c <Base64_EncodeEsc>
    if (ret != 0)
 8000ba2:	b148      	cbz	r0, 8000bb8 <base64_test+0x3b0>
        return WC_TEST_RET_ENC_EC(ret);
 8000ba4:	4b0f      	ldr	r3, [pc, #60]	; (8000be4 <base64_test+0x3dc>)
 8000ba6:	4240      	negs	r0, r0
 8000ba8:	f3c0 000a 	ubfx	r0, r0, #0, #11
 8000bac:	4358      	muls	r0, r3
 8000bae:	f100 4060 	add.w	r0, r0, #3758096384	; 0xe0000000
 8000bb2:	f6a0 00f7 	subw	r0, r0, #2295	; 0x8f7
 8000bb6:	e64d      	b.n	8000854 <base64_test+0x4c>
    ret = Base64_Encode_NoNl(longData, dataLen, out, &outLen);
 8000bb8:	9902      	ldr	r1, [sp, #8]
    outLen = sizeof(out);
 8000bba:	9401      	str	r4, [sp, #4]
    ret = Base64_Encode_NoNl(longData, dataLen, out, &outLen);
 8000bbc:	ab01      	add	r3, sp, #4
 8000bbe:	aa2a      	add	r2, sp, #168	; 0xa8
 8000bc0:	a816      	add	r0, sp, #88	; 0x58
 8000bc2:	f011 fc5a 	bl	801247a <Base64_Encode_NoNl>
    if (ret != 0)
 8000bc6:	2800      	cmp	r0, #0
 8000bc8:	f43f ae44 	beq.w	8000854 <base64_test+0x4c>
        return WC_TEST_RET_ENC_EC(ret);
 8000bcc:	4b05      	ldr	r3, [pc, #20]	; (8000be4 <base64_test+0x3dc>)
 8000bce:	4240      	negs	r0, r0
 8000bd0:	f3c0 000a 	ubfx	r0, r0, #0, #11
 8000bd4:	4358      	muls	r0, r3
 8000bd6:	f100 4060 	add.w	r0, r0, #3758096384	; 0xe0000000
 8000bda:	f6a0 00fb 	subw	r0, r0, #2299	; 0x8fb
 8000bde:	e639      	b.n	8000854 <base64_test+0x4c>
        return WC_TEST_RET_ENC_NC;
 8000be0:	4801      	ldr	r0, [pc, #4]	; (8000be8 <base64_test+0x3e0>)
 8000be2:	e637      	b.n	8000854 <base64_test+0x4c>
 8000be4:	fffe7960 	.word	0xfffe7960
 8000be8:	fffff769 	.word	0xfffff769

08000bec <asn_test>:
{
 8000bec:	b510      	push	{r4, lr}
 8000bee:	b092      	sub	sp, #72	; 0x48
    ret = wc_GetDateInfo(dateBuf, (int)sizeof(dateBuf), &datePart, &format,
 8000bf0:	ab04      	add	r3, sp, #16
 8000bf2:	9300      	str	r3, [sp, #0]
 8000bf4:	4834      	ldr	r0, [pc, #208]	; (8000cc8 <asn_test+0xdc>)
 8000bf6:	f10d 030f 	add.w	r3, sp, #15
 8000bfa:	aa05      	add	r2, sp, #20
 8000bfc:	210f      	movs	r1, #15
 8000bfe:	f010 f863 	bl	8010cc8 <wc_GetDateInfo>
    if (ret != 0)
 8000c02:	4604      	mov	r4, r0
 8000c04:	b150      	cbz	r0, 8000c1c <asn_test+0x30>
        return WC_TEST_RET_ENC_EC(ret);
 8000c06:	4c31      	ldr	r4, [pc, #196]	; (8000ccc <asn_test+0xe0>)
 8000c08:	4240      	negs	r0, r0
 8000c0a:	f3c0 000a 	ubfx	r0, r0, #0, #11
 8000c0e:	4360      	muls	r0, r4
 8000c10:	f100 4060 	add.w	r0, r0, #3758096384	; 0xe0000000
 8000c14:	f6a0 103a 	subw	r0, r0, #2362	; 0x93a
}
 8000c18:	b012      	add	sp, #72	; 0x48
 8000c1a:	bd10      	pop	{r4, pc}
    if ((ret = wc_GetTime(NULL, sizeof(now))) != BAD_FUNC_ARG)
 8000c1c:	2108      	movs	r1, #8
 8000c1e:	f010 f841 	bl	8010ca4 <wc_GetTime>
 8000c22:	f110 0fad 	cmn.w	r0, #173	; 0xad
 8000c26:	d009      	beq.n	8000c3c <asn_test+0x50>
        return WC_TEST_RET_ENC_EC(ret);
 8000c28:	4b28      	ldr	r3, [pc, #160]	; (8000ccc <asn_test+0xe0>)
 8000c2a:	4240      	negs	r0, r0
 8000c2c:	f3c0 000a 	ubfx	r0, r0, #0, #11
 8000c30:	4358      	muls	r0, r3
 8000c32:	f100 4060 	add.w	r0, r0, #3758096384	; 0xe0000000
 8000c36:	f6a0 103f 	subw	r0, r0, #2367	; 0x93f
 8000c3a:	e7ed      	b.n	8000c18 <asn_test+0x2c>
    if ((ret = wc_GetTime(&now, 0)) != BUFFER_E)
 8000c3c:	4621      	mov	r1, r4
 8000c3e:	a806      	add	r0, sp, #24
 8000c40:	f010 f830 	bl	8010ca4 <wc_GetTime>
 8000c44:	f110 0f84 	cmn.w	r0, #132	; 0x84
 8000c48:	d00a      	beq.n	8000c60 <asn_test+0x74>
        return WC_TEST_RET_ENC_EC(ret);
 8000c4a:	4b20      	ldr	r3, [pc, #128]	; (8000ccc <asn_test+0xe0>)
 8000c4c:	4240      	negs	r0, r0
 8000c4e:	f3c0 000a 	ubfx	r0, r0, #0, #11
 8000c52:	4358      	muls	r0, r3
 8000c54:	f100 4060 	add.w	r0, r0, #3758096384	; 0xe0000000
 8000c58:	f46f 6314 	mvn.w	r3, #2368	; 0x940
 8000c5c:	4418      	add	r0, r3
 8000c5e:	e7db      	b.n	8000c18 <asn_test+0x2c>
    now = 0;
 8000c60:	2200      	movs	r2, #0
 8000c62:	2300      	movs	r3, #0
    if ((ret = wc_GetTime(&now, sizeof(now))) != 0) {
 8000c64:	2108      	movs	r1, #8
 8000c66:	a806      	add	r0, sp, #24
    now = 0;
 8000c68:	e9cd 2306 	strd	r2, r3, [sp, #24]
    if ((ret = wc_GetTime(&now, sizeof(now))) != 0) {
 8000c6c:	f010 f81a 	bl	8010ca4 <wc_GetTime>
 8000c70:	b148      	cbz	r0, 8000c86 <asn_test+0x9a>
        return WC_TEST_RET_ENC_EC(ret);
 8000c72:	4b16      	ldr	r3, [pc, #88]	; (8000ccc <asn_test+0xe0>)
 8000c74:	4240      	negs	r0, r0
 8000c76:	f3c0 000a 	ubfx	r0, r0, #0, #11
 8000c7a:	4358      	muls	r0, r3
 8000c7c:	f100 4060 	add.w	r0, r0, #3758096384	; 0xe0000000
 8000c80:	f6a0 1045 	subw	r0, r0, #2373	; 0x945
 8000c84:	e7c8      	b.n	8000c18 <asn_test+0x2c>
    if (now == 0) {
 8000c86:	e9dd 2306 	ldrd	r2, r3, [sp, #24]
 8000c8a:	4313      	orrs	r3, r2
 8000c8c:	d109      	bne.n	8000ca2 <asn_test+0xb6>
        printf("RTC/Time not set!\n");
 8000c8e:	4810      	ldr	r0, [pc, #64]	; (8000cd0 <asn_test+0xe4>)
 8000c90:	f01a fab4 	bl	801b1fc <iprintf>
 8000c94:	4b0f      	ldr	r3, [pc, #60]	; (8000cd4 <asn_test+0xe8>)
 8000c96:	681b      	ldr	r3, [r3, #0]
 8000c98:	6898      	ldr	r0, [r3, #8]
 8000c9a:	f01a f877 	bl	801ad8c <fflush>
        return WC_TEST_RET_ENC_NC;
 8000c9e:	480e      	ldr	r0, [pc, #56]	; (8000cd8 <asn_test+0xec>)
 8000ca0:	e7ba      	b.n	8000c18 <asn_test+0x2c>
    ret = wc_GetDateAsCalendarTime(datePart, length, format, &timearg);
 8000ca2:	e9dd 1004 	ldrd	r1, r0, [sp, #16]
 8000ca6:	f89d 200f 	ldrb.w	r2, [sp, #15]
 8000caa:	ab09      	add	r3, sp, #36	; 0x24
 8000cac:	f010 f817 	bl	8010cde <wc_GetDateAsCalendarTime>
    if (ret != 0)
 8000cb0:	2800      	cmp	r0, #0
 8000cb2:	d0b1      	beq.n	8000c18 <asn_test+0x2c>
        return WC_TEST_RET_ENC_EC(ret);
 8000cb4:	4b05      	ldr	r3, [pc, #20]	; (8000ccc <asn_test+0xe0>)
 8000cb6:	4240      	negs	r0, r0
 8000cb8:	f3c0 000a 	ubfx	r0, r0, #0, #11
 8000cbc:	4358      	muls	r0, r3
 8000cbe:	f100 4060 	add.w	r0, r0, #3758096384	; 0xe0000000
 8000cc2:	f6a0 104e 	subw	r0, r0, #2382	; 0x94e
 8000cc6:	e7a7      	b.n	8000c18 <asn_test+0x2c>
 8000cc8:	0801ef3e 	.word	0x0801ef3e
 8000ccc:	fffe7960 	.word	0xfffe7960
 8000cd0:	0801dce0 	.word	0x0801dce0
 8000cd4:	20000188 	.word	0x20000188
 8000cd8:	fffff6b7 	.word	0xfffff6b7

08000cdc <sha_test>:
{
 8000cdc:	e92d 4ff0 	stmdb	sp!, {r4, r5, r6, r7, r8, r9, sl, fp, lr}
    a.inLen  = XSTRLEN(a.input);
 8000ce0:	4b78      	ldr	r3, [pc, #480]	; (8000ec4 <sha_test+0x1e8>)
    b.inLen  = XSTRLEN(b.input);
 8000ce2:	f8df b1e4 	ldr.w	fp, [pc, #484]	; 8000ec8 <sha_test+0x1ec>
    c.inLen  = XSTRLEN(c.input);
 8000ce6:	f8df a1e4 	ldr.w	sl, [pc, #484]	; 8000ecc <sha_test+0x1f0>
    d.inLen  = XSTRLEN(d.input);
 8000cea:	f8df 91e4 	ldr.w	r9, [pc, #484]	; 8000ed0 <sha_test+0x1f4>
    e.inLen  = XSTRLEN(e.input);
 8000cee:	f8df 81e4 	ldr.w	r8, [pc, #484]	; 8000ed4 <sha_test+0x1f8>
{
 8000cf2:	f2ad 5d44 	subw	sp, sp, #1348	; 0x544
    a.inLen  = XSTRLEN(a.input);
 8000cf6:	4618      	mov	r0, r3
 8000cf8:	f01a faf5 	bl	801b2e6 <strlen>
 8000cfc:	4607      	mov	r7, r0
    b.inLen  = XSTRLEN(b.input);
 8000cfe:	4658      	mov	r0, fp
 8000d00:	f01a faf1 	bl	801b2e6 <strlen>
 8000d04:	4606      	mov	r6, r0
    c.inLen  = XSTRLEN(c.input);
 8000d06:	4650      	mov	r0, sl
 8000d08:	f01a faed 	bl	801b2e6 <strlen>
 8000d0c:	4605      	mov	r5, r0
    d.inLen  = XSTRLEN(d.input);
 8000d0e:	4648      	mov	r0, r9
 8000d10:	f01a fae9 	bl	801b2e6 <strlen>
 8000d14:	4604      	mov	r4, r0
    e.inLen  = XSTRLEN(e.input);
 8000d16:	4640      	mov	r0, r8
 8000d18:	f01a fae5 	bl	801b2e6 <strlen>
    test_sha[0] = a;
 8000d1c:	4b69      	ldr	r3, [pc, #420]	; (8000ec4 <sha_test+0x1e8>)
 8000d1e:	930a      	str	r3, [sp, #40]	; 0x28
 8000d20:	4b6d      	ldr	r3, [pc, #436]	; (8000ed8 <sha_test+0x1fc>)
    test_sha[1] = b;
 8000d22:	f8cd b038 	str.w	fp, [sp, #56]	; 0x38
    test_sha[0] = a;
 8000d26:	e9cd 370b 	strd	r3, r7, [sp, #44]	; 0x2c
    test_sha[1] = b;
 8000d2a:	4b6c      	ldr	r3, [pc, #432]	; (8000edc <sha_test+0x200>)
    test_sha[2] = c;
 8000d2c:	f8cd a048 	str.w	sl, [sp, #72]	; 0x48
    test_sha[1] = b;
 8000d30:	e9cd 360f 	strd	r3, r6, [sp, #60]	; 0x3c
    test_sha[2] = c;
 8000d34:	4b6a      	ldr	r3, [pc, #424]	; (8000ee0 <sha_test+0x204>)
    test_sha[3] = d;
 8000d36:	f8cd 9058 	str.w	r9, [sp, #88]	; 0x58
    test_sha[2] = c;
 8000d3a:	e9cd 3513 	strd	r3, r5, [sp, #76]	; 0x4c
    test_sha[3] = d;
 8000d3e:	4b69      	ldr	r3, [pc, #420]	; (8000ee4 <sha_test+0x208>)
    test_sha[4] = e;
 8000d40:	f8cd 8068 	str.w	r8, [sp, #104]	; 0x68
    test_sha[3] = d;
 8000d44:	e9cd 3417 	strd	r3, r4, [sp, #92]	; 0x5c
    test_sha[4] = e;
 8000d48:	4b67      	ldr	r3, [pc, #412]	; (8000ee8 <sha_test+0x20c>)
    ret = wc_InitSha_ex(&sha, HEAP_HINT, devId);
 8000d4a:	2100      	movs	r1, #0
    test_sha[4] = e;
 8000d4c:	e9cd 301b 	strd	r3, r0, [sp, #108]	; 0x6c
    ret = wc_InitSha_ex(&sha, HEAP_HINT, devId);
 8000d50:	f06f 0201 	mvn.w	r2, #1
 8000d54:	a81e      	add	r0, sp, #120	; 0x78
 8000d56:	f00c fbb9 	bl	800d4cc <wc_InitSha_ex>
    if (ret != 0)
 8000d5a:	4601      	mov	r1, r0
 8000d5c:	b170      	cbz	r0, 8000d7c <sha_test+0xa0>
        return WC_TEST_RET_ENC_EC(ret);
 8000d5e:	4963      	ldr	r1, [pc, #396]	; (8000eec <sha_test+0x210>)
 8000d60:	4244      	negs	r4, r0
 8000d62:	f3c4 040a 	ubfx	r4, r4, #0, #11
 8000d66:	434c      	muls	r4, r1
 8000d68:	f104 4460 	add.w	r4, r4, #3758096384	; 0xe0000000
 8000d6c:	f46f 632b 	mvn.w	r3, #2736	; 0xab0
 8000d70:	441c      	add	r4, r3
}
 8000d72:	4620      	mov	r0, r4
 8000d74:	f20d 5d44 	addw	sp, sp, #1348	; 0x544
 8000d78:	e8bd 8ff0 	ldmia.w	sp!, {r4, r5, r6, r7, r8, r9, sl, fp, pc}
    ret = wc_InitSha_ex(&shaCopy, HEAP_HINT, devId);
 8000d7c:	f06f 0201 	mvn.w	r2, #1
 8000d80:	a837      	add	r0, sp, #220	; 0xdc
 8000d82:	f00c fba3 	bl	800d4cc <wc_InitSha_ex>
    if (ret != 0) {
 8000d86:	4606      	mov	r6, r0
 8000d88:	b160      	cbz	r0, 8000da4 <sha_test+0xc8>
        wc_ShaFree(&sha);
 8000d8a:	a81e      	add	r0, sp, #120	; 0x78
 8000d8c:	f00c fc9e 	bl	800d6cc <wc_ShaFree>
        return WC_TEST_RET_ENC_EC(ret);
 8000d90:	4274      	negs	r4, r6
 8000d92:	4856      	ldr	r0, [pc, #344]	; (8000eec <sha_test+0x210>)
 8000d94:	f3c4 040a 	ubfx	r4, r4, #0, #11
 8000d98:	4344      	muls	r4, r0
 8000d9a:	f104 4460 	add.w	r4, r4, #3758096384	; 0xe0000000
 8000d9e:	f6a4 24b5 	subw	r4, r4, #2741	; 0xab5
 8000da2:	e7e6      	b.n	8000d72 <sha_test+0x96>
 8000da4:	ad0a      	add	r5, sp, #40	; 0x28
        ret = wc_ShaUpdate(&sha, (byte*)test_sha[i].input,
 8000da6:	68aa      	ldr	r2, [r5, #8]
 8000da8:	6829      	ldr	r1, [r5, #0]
 8000daa:	a81e      	add	r0, sp, #120	; 0x78
 8000dac:	f00c fbae 	bl	800d50c <wc_ShaUpdate>
        if (ret != 0)
 8000db0:	b160      	cbz	r0, 8000dcc <sha_test+0xf0>
            ERROR_OUT(WC_TEST_RET_ENC_I(i), exit);
 8000db2:	4c4e      	ldr	r4, [pc, #312]	; (8000eec <sha_test+0x210>)
 8000db4:	4374      	muls	r4, r6
 8000db6:	f104 4420 	add.w	r4, r4, #2684354560	; 0xa0000000
 8000dba:	f6a4 24bc 	subw	r4, r4, #2748	; 0xabc
    wc_ShaFree(&sha);
 8000dbe:	a81e      	add	r0, sp, #120	; 0x78
 8000dc0:	f00c fc84 	bl	800d6cc <wc_ShaFree>
    wc_ShaFree(&shaCopy);
 8000dc4:	a837      	add	r0, sp, #220	; 0xdc
 8000dc6:	f00c fc81 	bl	800d6cc <wc_ShaFree>
    return ret;
 8000dca:	e7d2      	b.n	8000d72 <sha_test+0x96>
        ret = wc_ShaGetHash(&sha, hashcopy);
 8000dcc:	a905      	add	r1, sp, #20
 8000dce:	a81e      	add	r0, sp, #120	; 0x78
 8000dd0:	f00c fc8b 	bl	800d6ea <wc_ShaGetHash>
        if (ret != 0)
 8000dd4:	b130      	cbz	r0, 8000de4 <sha_test+0x108>
            ERROR_OUT(WC_TEST_RET_ENC_I(i), exit);
 8000dd6:	4c45      	ldr	r4, [pc, #276]	; (8000eec <sha_test+0x210>)
 8000dd8:	4374      	muls	r4, r6
 8000dda:	f104 4420 	add.w	r4, r4, #2684354560	; 0xa0000000
 8000dde:	f6a4 24bf 	subw	r4, r4, #2751	; 0xabf
 8000de2:	e7ec      	b.n	8000dbe <sha_test+0xe2>
        ret = wc_ShaCopy(&sha, &shaCopy);
 8000de4:	a937      	add	r1, sp, #220	; 0xdc
 8000de6:	a81e      	add	r0, sp, #120	; 0x78
 8000de8:	f00c fc71 	bl	800d6ce <wc_ShaCopy>
        if (ret != 0)
 8000dec:	b130      	cbz	r0, 8000dfc <sha_test+0x120>
            ERROR_OUT(WC_TEST_RET_ENC_I(i), exit);
 8000dee:	4c3f      	ldr	r4, [pc, #252]	; (8000eec <sha_test+0x210>)
 8000df0:	4374      	muls	r4, r6
 8000df2:	f104 4420 	add.w	r4, r4, #2684354560	; 0xa0000000
 8000df6:	f6a4 24c2 	subw	r4, r4, #2754	; 0xac2
 8000dfa:	e7e0      	b.n	8000dbe <sha_test+0xe2>
        ret = wc_ShaFinal(&sha, hash);
 8000dfc:	4669      	mov	r1, sp
 8000dfe:	a81e      	add	r0, sp, #120	; 0x78
 8000e00:	f00c fbec 	bl	800d5dc <wc_ShaFinal>
        if (ret != 0)
 8000e04:	b130      	cbz	r0, 8000e14 <sha_test+0x138>
            ERROR_OUT(WC_TEST_RET_ENC_I(i), exit);
 8000e06:	4c39      	ldr	r4, [pc, #228]	; (8000eec <sha_test+0x210>)
 8000e08:	4374      	muls	r4, r6
 8000e0a:	f104 4420 	add.w	r4, r4, #2684354560	; 0xa0000000
 8000e0e:	f6a4 24c5 	subw	r4, r4, #2757	; 0xac5
 8000e12:	e7d4      	b.n	8000dbe <sha_test+0xe2>
        wc_ShaFree(&shaCopy);
 8000e14:	a837      	add	r0, sp, #220	; 0xdc
 8000e16:	f00c fc59 	bl	800d6cc <wc_ShaFree>
        if (XMEMCMP(hash, test_sha[i].output, WC_SHA_DIGEST_SIZE) != 0)
 8000e1a:	6869      	ldr	r1, [r5, #4]
 8000e1c:	2214      	movs	r2, #20
 8000e1e:	4668      	mov	r0, sp
 8000e20:	f01a f8ce 	bl	801afc0 <memcmp>
 8000e24:	b130      	cbz	r0, 8000e34 <sha_test+0x158>
            ERROR_OUT(WC_TEST_RET_ENC_I(i), exit);
 8000e26:	4c31      	ldr	r4, [pc, #196]	; (8000eec <sha_test+0x210>)
 8000e28:	4374      	muls	r4, r6
 8000e2a:	f104 4420 	add.w	r4, r4, #2684354560	; 0xa0000000
 8000e2e:	f6a4 24c9 	subw	r4, r4, #2761	; 0xac9
 8000e32:	e7c4      	b.n	8000dbe <sha_test+0xe2>
        if (XMEMCMP(hash, hashcopy, WC_SHA_DIGEST_SIZE) != 0)
 8000e34:	2214      	movs	r2, #20
 8000e36:	eb0d 0102 	add.w	r1, sp, r2
 8000e3a:	4668      	mov	r0, sp
 8000e3c:	f01a f8c0 	bl	801afc0 <memcmp>
 8000e40:	b130      	cbz	r0, 8000e50 <sha_test+0x174>
            ERROR_OUT(WC_TEST_RET_ENC_I(i), exit);
 8000e42:	4c2a      	ldr	r4, [pc, #168]	; (8000eec <sha_test+0x210>)
 8000e44:	4374      	muls	r4, r6
 8000e46:	f104 4420 	add.w	r4, r4, #2684354560	; 0xa0000000
 8000e4a:	f6a4 24cb 	subw	r4, r4, #2763	; 0xacb
 8000e4e:	e7b6      	b.n	8000dbe <sha_test+0xe2>
    for (i = 0; i < times; ++i) {
 8000e50:	3601      	adds	r6, #1
 8000e52:	2e05      	cmp	r6, #5
 8000e54:	f105 0510 	add.w	r5, r5, #16
 8000e58:	d1a5      	bne.n	8000da6 <sha_test+0xca>
 8000e5a:	ab50      	add	r3, sp, #320	; 0x140
 8000e5c:	461d      	mov	r5, r3
        large_input[i] = (byte)(i & 0xFF);
 8000e5e:	f803 0b01 	strb.w	r0, [r3], #1
    for (i = 0; i < (int)sizeof(large_input); i++) {
 8000e62:	3001      	adds	r0, #1
 8000e64:	f5b0 6f80 	cmp.w	r0, #1024	; 0x400
 8000e68:	d1f9      	bne.n	8000e5e <sha_test+0x182>
 8000e6a:	2464      	movs	r4, #100	; 0x64
        ret = wc_ShaUpdate(&sha, (byte*)large_input,
 8000e6c:	f44f 6280 	mov.w	r2, #1024	; 0x400
 8000e70:	4629      	mov	r1, r5
 8000e72:	a81e      	add	r0, sp, #120	; 0x78
 8000e74:	f00c fb4a 	bl	800d50c <wc_ShaUpdate>
        if (ret != 0)
 8000e78:	b148      	cbz	r0, 8000e8e <sha_test+0x1b2>
            ERROR_OUT(WC_TEST_RET_ENC_EC(ret), exit);
 8000e7a:	4244      	negs	r4, r0
 8000e7c:	481b      	ldr	r0, [pc, #108]	; (8000eec <sha_test+0x210>)
 8000e7e:	f3c4 040a 	ubfx	r4, r4, #0, #11
 8000e82:	4344      	muls	r4, r0
 8000e84:	f104 4460 	add.w	r4, r4, #3758096384	; 0xe0000000
 8000e88:	f6a4 24eb 	subw	r4, r4, #2795	; 0xaeb
 8000e8c:	e797      	b.n	8000dbe <sha_test+0xe2>
    for (i = 0; i < times; ++i) {
 8000e8e:	3c01      	subs	r4, #1
 8000e90:	d1ec      	bne.n	8000e6c <sha_test+0x190>
    ret = wc_ShaFinal(&sha, hash);
 8000e92:	4669      	mov	r1, sp
 8000e94:	a81e      	add	r0, sp, #120	; 0x78
 8000e96:	f00c fba1 	bl	800d5dc <wc_ShaFinal>
    if (ret != 0)
 8000e9a:	b148      	cbz	r0, 8000eb0 <sha_test+0x1d4>
        ERROR_OUT(WC_TEST_RET_ENC_EC(ret), exit);
 8000e9c:	4244      	negs	r4, r0
 8000e9e:	4813      	ldr	r0, [pc, #76]	; (8000eec <sha_test+0x210>)
 8000ea0:	f3c4 040a 	ubfx	r4, r4, #0, #11
 8000ea4:	4344      	muls	r4, r0
 8000ea6:	f104 4460 	add.w	r4, r4, #3758096384	; 0xe0000000
 8000eaa:	f6a4 24ef 	subw	r4, r4, #2799	; 0xaef
 8000eae:	e786      	b.n	8000dbe <sha_test+0xe2>
    if (XMEMCMP(hash, large_digest, WC_SHA_DIGEST_SIZE) != 0)
 8000eb0:	490f      	ldr	r1, [pc, #60]	; (8000ef0 <sha_test+0x214>)
 8000eb2:	2214      	movs	r2, #20
 8000eb4:	4668      	mov	r0, sp
 8000eb6:	f01a f883 	bl	801afc0 <memcmp>
        ERROR_OUT(WC_TEST_RET_ENC_NC, exit);
 8000eba:	1e04      	subs	r4, r0, #0
 8000ebc:	bf18      	it	ne
 8000ebe:	f46f 642f 	mvnne.w	r4, #2800	; 0xaf0
 8000ec2:	e77c      	b.n	8000dbe <sha_test+0xe2>
 8000ec4:	0801ddc5 	.word	0x0801ddc5
 8000ec8:	0801dcf3 	.word	0x0801dcf3
 8000ecc:	0801dcf7 	.word	0x0801dcf7
 8000ed0:	0801dd70 	.word	0x0801dd70
 8000ed4:	0801dd30 	.word	0x0801dd30
 8000ed8:	0801ddb1 	.word	0x0801ddb1
 8000edc:	0801ddc6 	.word	0x0801ddc6
 8000ee0:	0801dddb 	.word	0x0801dddb
 8000ee4:	0801bdb8 	.word	0x0801bdb8
 8000ee8:	0801ddf0 	.word	0x0801ddf0
 8000eec:	fffe7960 	.word	0xfffe7960
 8000ef0:	0801de05 	.word	0x0801de05

08000ef4 <sha256_test>:
{
 8000ef4:	e92d 41f0 	stmdb	sp!, {r4, r5, r6, r7, r8, lr}
    a.inLen  = XSTRLEN(a.input);
 8000ef8:	f8df 81ac 	ldr.w	r8, [pc, #428]	; 80010a8 <sha256_test+0x1b4>
    b.inLen  = XSTRLEN(b.input);
 8000efc:	4f6b      	ldr	r7, [pc, #428]	; (80010ac <sha256_test+0x1b8>)
    c.inLen  = XSTRLEN(c.input);
 8000efe:	4e6c      	ldr	r6, [pc, #432]	; (80010b0 <sha256_test+0x1bc>)
{
 8000f00:	f5ad 6daa 	sub.w	sp, sp, #1360	; 0x550
    a.inLen  = XSTRLEN(a.input);
 8000f04:	4640      	mov	r0, r8
 8000f06:	f01a f9ee 	bl	801b2e6 <strlen>
 8000f0a:	4605      	mov	r5, r0
    b.inLen  = XSTRLEN(b.input);
 8000f0c:	4638      	mov	r0, r7
 8000f0e:	f01a f9ea 	bl	801b2e6 <strlen>
 8000f12:	4604      	mov	r4, r0
    c.inLen  = XSTRLEN(c.input);
 8000f14:	4630      	mov	r0, r6
 8000f16:	f01a f9e6 	bl	801b2e6 <strlen>
    test_sha[0] = a;
 8000f1a:	4b66      	ldr	r3, [pc, #408]	; (80010b4 <sha256_test+0x1c0>)
 8000f1c:	f8cd 8040 	str.w	r8, [sp, #64]	; 0x40
 8000f20:	e9cd 3511 	strd	r3, r5, [sp, #68]	; 0x44
    test_sha[1] = b;
 8000f24:	4b64      	ldr	r3, [pc, #400]	; (80010b8 <sha256_test+0x1c4>)
 8000f26:	9714      	str	r7, [sp, #80]	; 0x50
 8000f28:	e9cd 3415 	strd	r3, r4, [sp, #84]	; 0x54
    test_sha[2] = c;
 8000f2c:	4b63      	ldr	r3, [pc, #396]	; (80010bc <sha256_test+0x1c8>)
 8000f2e:	9618      	str	r6, [sp, #96]	; 0x60
 8000f30:	e9cd 3019 	strd	r3, r0, [sp, #100]	; 0x64
    ret = wc_InitSha256_ex(&sha, HEAP_HINT, devId);
 8000f34:	2100      	movs	r1, #0
 8000f36:	f06f 0201 	mvn.w	r2, #1
 8000f3a:	a81c      	add	r0, sp, #112	; 0x70
 8000f3c:	f00c fda2 	bl	800da84 <wc_InitSha256_ex>
    if (ret != 0)
 8000f40:	4601      	mov	r1, r0
 8000f42:	b168      	cbz	r0, 8000f60 <sha256_test+0x6c>
        return WC_TEST_RET_ENC_EC(ret);
 8000f44:	495e      	ldr	r1, [pc, #376]	; (80010c0 <sha256_test+0x1cc>)
 8000f46:	4244      	negs	r4, r0
 8000f48:	f3c4 040a 	ubfx	r4, r4, #0, #11
 8000f4c:	434c      	muls	r4, r1
 8000f4e:	f104 4460 	add.w	r4, r4, #3758096384	; 0xe0000000
 8000f52:	f6a4 443a 	subw	r4, r4, #3130	; 0xc3a
}
 8000f56:	4620      	mov	r0, r4
 8000f58:	f50d 6daa 	add.w	sp, sp, #1360	; 0x550
 8000f5c:	e8bd 81f0 	ldmia.w	sp!, {r4, r5, r6, r7, r8, pc}
    ret = wc_InitSha256_ex(&shaCopy, HEAP_HINT, devId);
 8000f60:	f06f 0201 	mvn.w	r2, #1
 8000f64:	a838      	add	r0, sp, #224	; 0xe0
 8000f66:	f00c fd8d 	bl	800da84 <wc_InitSha256_ex>
    if (ret != 0) {
 8000f6a:	4606      	mov	r6, r0
 8000f6c:	b160      	cbz	r0, 8000f88 <sha256_test+0x94>
        wc_Sha256Free(&sha);
 8000f6e:	a81c      	add	r0, sp, #112	; 0x70
 8000f70:	f00c fe9e 	bl	800dcb0 <wc_Sha256Free>
        return WC_TEST_RET_ENC_EC(ret);
 8000f74:	4274      	negs	r4, r6
 8000f76:	4852      	ldr	r0, [pc, #328]	; (80010c0 <sha256_test+0x1cc>)
 8000f78:	f3c4 040a 	ubfx	r4, r4, #0, #11
 8000f7c:	4344      	muls	r4, r0
 8000f7e:	f104 4460 	add.w	r4, r4, #3758096384	; 0xe0000000
 8000f82:	f6a4 443e 	subw	r4, r4, #3134	; 0xc3e
 8000f86:	e7e6      	b.n	8000f56 <sha256_test+0x62>
 8000f88:	ad10      	add	r5, sp, #64	; 0x40
        ret = wc_Sha256Update(&sha, (byte*)test_sha[i].input,
 8000f8a:	68aa      	ldr	r2, [r5, #8]
 8000f8c:	6829      	ldr	r1, [r5, #0]
 8000f8e:	a81c      	add	r0, sp, #112	; 0x70
 8000f90:	f00c fdac 	bl	800daec <wc_Sha256Update>
        if (ret != 0) {
 8000f94:	b160      	cbz	r0, 8000fb0 <sha256_test+0xbc>
            ERROR_OUT(WC_TEST_RET_ENC_I(i), exit);
 8000f96:	4c4a      	ldr	r4, [pc, #296]	; (80010c0 <sha256_test+0x1cc>)
 8000f98:	4374      	muls	r4, r6
 8000f9a:	f104 4420 	add.w	r4, r4, #2684354560	; 0xa0000000
 8000f9e:	f6a4 4445 	subw	r4, r4, #3141	; 0xc45
    wc_Sha256Free(&sha);
 8000fa2:	a81c      	add	r0, sp, #112	; 0x70
 8000fa4:	f00c fe84 	bl	800dcb0 <wc_Sha256Free>
    wc_Sha256Free(&shaCopy);
 8000fa8:	a838      	add	r0, sp, #224	; 0xe0
 8000faa:	f00c fe81 	bl	800dcb0 <wc_Sha256Free>
    return ret;
 8000fae:	e7d2      	b.n	8000f56 <sha256_test+0x62>
        ret = wc_Sha256GetHash(&sha, hashcopy);
 8000fb0:	a908      	add	r1, sp, #32
 8000fb2:	a81c      	add	r0, sp, #112	; 0x70
 8000fb4:	f00c fe94 	bl	800dce0 <wc_Sha256GetHash>
        if (ret != 0)
 8000fb8:	b130      	cbz	r0, 8000fc8 <sha256_test+0xd4>
            ERROR_OUT(WC_TEST_RET_ENC_I(i), exit);
 8000fba:	4c41      	ldr	r4, [pc, #260]	; (80010c0 <sha256_test+0x1cc>)
 8000fbc:	4374      	muls	r4, r6
 8000fbe:	f104 4420 	add.w	r4, r4, #2684354560	; 0xa0000000
 8000fc2:	f6a4 4449 	subw	r4, r4, #3145	; 0xc49
 8000fc6:	e7ec      	b.n	8000fa2 <sha256_test+0xae>
        ret = wc_Sha256Copy(&sha, &shaCopy);
 8000fc8:	a938      	add	r1, sp, #224	; 0xe0
 8000fca:	a81c      	add	r0, sp, #112	; 0x70
 8000fcc:	f00c fe7a 	bl	800dcc4 <wc_Sha256Copy>
        if (ret != 0)
 8000fd0:	b130      	cbz	r0, 8000fe0 <sha256_test+0xec>
            ERROR_OUT(WC_TEST_RET_ENC_I(i), exit);
 8000fd2:	4c3b      	ldr	r4, [pc, #236]	; (80010c0 <sha256_test+0x1cc>)
 8000fd4:	4374      	muls	r4, r6
 8000fd6:	f104 4420 	add.w	r4, r4, #2684354560	; 0xa0000000
 8000fda:	f6a4 444c 	subw	r4, r4, #3148	; 0xc4c
 8000fde:	e7e0      	b.n	8000fa2 <sha256_test+0xae>
        ret = wc_Sha256Final(&sha, hash);
 8000fe0:	4669      	mov	r1, sp
 8000fe2:	a81c      	add	r0, sp, #112	; 0x70
 8000fe4:	f00c fdda 	bl	800db9c <wc_Sha256Final>
        if (ret != 0)
 8000fe8:	b130      	cbz	r0, 8000ff8 <sha256_test+0x104>
            ERROR_OUT(WC_TEST_RET_ENC_I(i), exit);
 8000fea:	4c35      	ldr	r4, [pc, #212]	; (80010c0 <sha256_test+0x1cc>)
 8000fec:	4374      	muls	r4, r6
 8000fee:	f104 4420 	add.w	r4, r4, #2684354560	; 0xa0000000
 8000ff2:	f6a4 444f 	subw	r4, r4, #3151	; 0xc4f
 8000ff6:	e7d4      	b.n	8000fa2 <sha256_test+0xae>
        wc_Sha256Free(&shaCopy);
 8000ff8:	a838      	add	r0, sp, #224	; 0xe0
 8000ffa:	f00c fe59 	bl	800dcb0 <wc_Sha256Free>
        if (XMEMCMP(hash, test_sha[i].output, WC_SHA256_DIGEST_SIZE) != 0)
 8000ffe:	6869      	ldr	r1, [r5, #4]
 8001000:	2220      	movs	r2, #32
 8001002:	4668      	mov	r0, sp
 8001004:	f019 ffdc 	bl	801afc0 <memcmp>
 8001008:	b130      	cbz	r0, 8001018 <sha256_test+0x124>
            ERROR_OUT(WC_TEST_RET_ENC_I(i), exit);
 800100a:	4c2d      	ldr	r4, [pc, #180]	; (80010c0 <sha256_test+0x1cc>)
 800100c:	4374      	muls	r4, r6
 800100e:	f104 4420 	add.w	r4, r4, #2684354560	; 0xa0000000
 8001012:	f6a4 4453 	subw	r4, r4, #3155	; 0xc53
 8001016:	e7c4      	b.n	8000fa2 <sha256_test+0xae>
        if (XMEMCMP(hash, hashcopy, WC_SHA256_DIGEST_SIZE) != 0)
 8001018:	2220      	movs	r2, #32
 800101a:	eb0d 0102 	add.w	r1, sp, r2
 800101e:	4668      	mov	r0, sp
 8001020:	f019 ffce 	bl	801afc0 <memcmp>
 8001024:	b130      	cbz	r0, 8001034 <sha256_test+0x140>
            ERROR_OUT(WC_TEST_RET_ENC_I(i), exit);
 8001026:	4c26      	ldr	r4, [pc, #152]	; (80010c0 <sha256_test+0x1cc>)
 8001028:	4374      	muls	r4, r6
 800102a:	f104 4420 	add.w	r4, r4, #2684354560	; 0xa0000000
 800102e:	f6a4 4455 	subw	r4, r4, #3157	; 0xc55
 8001032:	e7b6      	b.n	8000fa2 <sha256_test+0xae>
    for (i = 0; i < times; ++i) {
 8001034:	3601      	adds	r6, #1
 8001036:	2e03      	cmp	r6, #3
 8001038:	f105 0510 	add.w	r5, r5, #16
 800103c:	d1a5      	bne.n	8000f8a <sha256_test+0x96>
 800103e:	ab54      	add	r3, sp, #336	; 0x150
 8001040:	461d      	mov	r5, r3
        large_input[i] = (byte)(i & 0xFF);
 8001042:	f803 0b01 	strb.w	r0, [r3], #1
    for (i = 0; i < (int)sizeof(large_input); i++) {
 8001046:	3001      	adds	r0, #1
 8001048:	f5b0 6f80 	cmp.w	r0, #1024	; 0x400
 800104c:	d1f9      	bne.n	8001042 <sha256_test+0x14e>
 800104e:	2464      	movs	r4, #100	; 0x64
        ret = wc_Sha256Update(&sha, (byte*)large_input,
 8001050:	f44f 6280 	mov.w	r2, #1024	; 0x400
 8001054:	4629      	mov	r1, r5
 8001056:	a81c      	add	r0, sp, #112	; 0x70
 8001058:	f00c fd48 	bl	800daec <wc_Sha256Update>
        if (ret != 0)
 800105c:	b148      	cbz	r0, 8001072 <sha256_test+0x17e>
            ERROR_OUT(WC_TEST_RET_ENC_EC(ret), exit);
 800105e:	4244      	negs	r4, r0
 8001060:	4817      	ldr	r0, [pc, #92]	; (80010c0 <sha256_test+0x1cc>)
 8001062:	f3c4 040a 	ubfx	r4, r4, #0, #11
 8001066:	4344      	muls	r4, r0
 8001068:	f104 4460 	add.w	r4, r4, #3758096384	; 0xe0000000
 800106c:	f6a4 4473 	subw	r4, r4, #3187	; 0xc73
 8001070:	e797      	b.n	8000fa2 <sha256_test+0xae>
    for (i = 0; i < times; ++i) {
 8001072:	3c01      	subs	r4, #1
 8001074:	d1ec      	bne.n	8001050 <sha256_test+0x15c>
    ret = wc_Sha256Final(&sha, hash);
 8001076:	4669      	mov	r1, sp
 8001078:	a81c      	add	r0, sp, #112	; 0x70
 800107a:	f00c fd8f 	bl	800db9c <wc_Sha256Final>
    if (ret != 0)
 800107e:	b148      	cbz	r0, 8001094 <sha256_test+0x1a0>
        ERROR_OUT(WC_TEST_RET_ENC_EC(ret), exit);
 8001080:	4244      	negs	r4, r0
 8001082:	480f      	ldr	r0, [pc, #60]	; (80010c0 <sha256_test+0x1cc>)
 8001084:	f3c4 040a 	ubfx	r4, r4, #0, #11
 8001088:	4344      	muls	r4, r0
 800108a:	f104 4460 	add.w	r4, r4, #3758096384	; 0xe0000000
 800108e:	f6a4 4477 	subw	r4, r4, #3191	; 0xc77
 8001092:	e786      	b.n	8000fa2 <sha256_test+0xae>
    if (XMEMCMP(hash, large_digest, WC_SHA256_DIGEST_SIZE) != 0)
 8001094:	490b      	ldr	r1, [pc, #44]	; (80010c4 <sha256_test+0x1d0>)
 8001096:	2220      	movs	r2, #32
 8001098:	4668      	mov	r0, sp
 800109a:	f019 ff91 	bl	801afc0 <memcmp>
        ERROR_OUT(WC_TEST_RET_ENC_NC, exit);
 800109e:	4b0a      	ldr	r3, [pc, #40]	; (80010c8 <sha256_test+0x1d4>)
 80010a0:	1e04      	subs	r4, r0, #0
 80010a2:	bf18      	it	ne
 80010a4:	461c      	movne	r4, r3
 80010a6:	e77c      	b.n	8000fa2 <sha256_test+0xae>
 80010a8:	0801ddc5 	.word	0x0801ddc5
 80010ac:	0801dcf3 	.word	0x0801dcf3
 80010b0:	0801dcf7 	.word	0x0801dcf7
 80010b4:	0801de1a 	.word	0x0801de1a
 80010b8:	0801bdcd 	.word	0x0801bdcd
 80010bc:	0801de3b 	.word	0x0801de3b
 80010c0:	fffe7960 	.word	0xfffe7960
 80010c4:	0801de5c 	.word	0x0801de5c
 80010c8:	fffff387 	.word	0xfffff387

080010cc <sha512_test>:
{
 80010cc:	e92d 41f0 	stmdb	sp!, {r4, r5, r6, r7, r8, lr}
    a.inLen  = XSTRLEN(a.input);
 80010d0:	f8df 81dc 	ldr.w	r8, [pc, #476]	; 80012b0 <sha512_test+0x1e4>
    b.inLen  = XSTRLEN(b.input);
 80010d4:	4f77      	ldr	r7, [pc, #476]	; (80012b4 <sha512_test+0x1e8>)
    c.inLen  = XSTRLEN(c.input);
 80010d6:	4e78      	ldr	r6, [pc, #480]	; (80012b8 <sha512_test+0x1ec>)
{
 80010d8:	f5ad 6dce 	sub.w	sp, sp, #1648	; 0x670
    a.inLen  = XSTRLEN(a.input);
 80010dc:	4640      	mov	r0, r8
 80010de:	f01a f902 	bl	801b2e6 <strlen>
 80010e2:	4605      	mov	r5, r0
    b.inLen  = XSTRLEN(b.input);
 80010e4:	4638      	mov	r0, r7
 80010e6:	f01a f8fe 	bl	801b2e6 <strlen>
 80010ea:	4604      	mov	r4, r0
    c.inLen  = XSTRLEN(c.input);
 80010ec:	4630      	mov	r0, r6
 80010ee:	f01a f8fa 	bl	801b2e6 <strlen>
    test_sha[0] = a;
 80010f2:	4b72      	ldr	r3, [pc, #456]	; (80012bc <sha512_test+0x1f0>)
 80010f4:	f8cd 8000 	str.w	r8, [sp]
 80010f8:	e9cd 3501 	strd	r3, r5, [sp, #4]
    test_sha[1] = b;
 80010fc:	4b70      	ldr	r3, [pc, #448]	; (80012c0 <sha512_test+0x1f4>)
 80010fe:	9704      	str	r7, [sp, #16]
 8001100:	e9cd 3405 	strd	r3, r4, [sp, #20]
    test_sha[2] = c;
 8001104:	4b6f      	ldr	r3, [pc, #444]	; (80012c4 <sha512_test+0x1f8>)
 8001106:	9608      	str	r6, [sp, #32]
 8001108:	e9cd 3009 	strd	r3, r0, [sp, #36]	; 0x24
    ret = wc_InitSha512_ex(&sha, HEAP_HINT, devId);
 800110c:	2100      	movs	r1, #0
 800110e:	f06f 0201 	mvn.w	r2, #1
 8001112:	a82c      	add	r0, sp, #176	; 0xb0
 8001114:	f00e ffa0 	bl	8010058 <wc_InitSha512_ex>
    if (ret != 0)
 8001118:	4601      	mov	r1, r0
 800111a:	b168      	cbz	r0, 8001138 <sha512_test+0x6c>
        return WC_TEST_RET_ENC_EC(ret);
 800111c:	496a      	ldr	r1, [pc, #424]	; (80012c8 <sha512_test+0x1fc>)
 800111e:	4244      	negs	r4, r0
 8001120:	f3c4 040a 	ubfx	r4, r4, #0, #11
 8001124:	434c      	muls	r4, r1
 8001126:	f104 4460 	add.w	r4, r4, #3758096384	; 0xe0000000
 800112a:	f6a4 44b8 	subw	r4, r4, #3256	; 0xcb8
}
 800112e:	4620      	mov	r0, r4
 8001130:	f50d 6dce 	add.w	sp, sp, #1648	; 0x670
 8001134:	e8bd 81f0 	ldmia.w	sp!, {r4, r5, r6, r7, r8, pc}
    ret = wc_InitSha512_ex(&shaCopy, HEAP_HINT, devId);
 8001138:	f06f 0201 	mvn.w	r2, #1
 800113c:	a864      	add	r0, sp, #400	; 0x190
 800113e:	f00e ff8b 	bl	8010058 <wc_InitSha512_ex>
    if (ret != 0) {
 8001142:	4606      	mov	r6, r0
 8001144:	b160      	cbz	r0, 8001160 <sha512_test+0x94>
        wc_Sha512Free(&sha);
 8001146:	a82c      	add	r0, sp, #176	; 0xb0
 8001148:	f00f f80d 	bl	8010166 <wc_Sha512Free>
        return WC_TEST_RET_ENC_EC(ret);
 800114c:	4274      	negs	r4, r6
 800114e:	485e      	ldr	r0, [pc, #376]	; (80012c8 <sha512_test+0x1fc>)
 8001150:	f3c4 040a 	ubfx	r4, r4, #0, #11
 8001154:	4344      	muls	r4, r0
 8001156:	f104 4460 	add.w	r4, r4, #3758096384	; 0xe0000000
 800115a:	f6a4 44bc 	subw	r4, r4, #3260	; 0xcbc
 800115e:	e7e6      	b.n	800112e <sha512_test+0x62>
 8001160:	466d      	mov	r5, sp
        ret = wc_Sha512Update(&sha, (byte*)test_sha[i].input,
 8001162:	68aa      	ldr	r2, [r5, #8]
 8001164:	6829      	ldr	r1, [r5, #0]
 8001166:	a82c      	add	r0, sp, #176	; 0xb0
 8001168:	f00e ff8e 	bl	8010088 <wc_Sha512Update>
        if (ret != 0)
 800116c:	b160      	cbz	r0, 8001188 <sha512_test+0xbc>
            ERROR_OUT(WC_TEST_RET_ENC_I(i), exit);
 800116e:	4c56      	ldr	r4, [pc, #344]	; (80012c8 <sha512_test+0x1fc>)
 8001170:	4374      	muls	r4, r6
 8001172:	f104 4420 	add.w	r4, r4, #2684354560	; 0xa0000000
 8001176:	f6a4 44c3 	subw	r4, r4, #3267	; 0xcc3
    wc_Sha512Free(&sha);
 800117a:	a82c      	add	r0, sp, #176	; 0xb0
 800117c:	f00e fff3 	bl	8010166 <wc_Sha512Free>
    wc_Sha512Free(&shaCopy);
 8001180:	a864      	add	r0, sp, #400	; 0x190
 8001182:	f00e fff0 	bl	8010166 <wc_Sha512Free>
    return ret;
 8001186:	e7d2      	b.n	800112e <sha512_test+0x62>
        ret = wc_Sha512GetHash(&sha, hashcopy);
 8001188:	a91c      	add	r1, sp, #112	; 0x70
 800118a:	a82c      	add	r0, sp, #176	; 0xb0
 800118c:	f00f f826 	bl	80101dc <wc_Sha512GetHash>
        if (ret != 0)
 8001190:	b130      	cbz	r0, 80011a0 <sha512_test+0xd4>
            ERROR_OUT(WC_TEST_RET_ENC_I(i), exit);
 8001192:	4c4d      	ldr	r4, [pc, #308]	; (80012c8 <sha512_test+0x1fc>)
 8001194:	4374      	muls	r4, r6
 8001196:	f104 4420 	add.w	r4, r4, #2684354560	; 0xa0000000
 800119a:	f6a4 44c6 	subw	r4, r4, #3270	; 0xcc6
 800119e:	e7ec      	b.n	800117a <sha512_test+0xae>
        ret = wc_Sha512Copy(&sha, &shaCopy);
 80011a0:	a964      	add	r1, sp, #400	; 0x190
 80011a2:	a82c      	add	r0, sp, #176	; 0xb0
 80011a4:	f00e ffe9 	bl	801017a <wc_Sha512Copy>
        if (ret != 0)
 80011a8:	b130      	cbz	r0, 80011b8 <sha512_test+0xec>
            ERROR_OUT(WC_TEST_RET_ENC_I(i), exit);
 80011aa:	4c47      	ldr	r4, [pc, #284]	; (80012c8 <sha512_test+0x1fc>)
 80011ac:	4374      	muls	r4, r6
 80011ae:	f104 4420 	add.w	r4, r4, #2684354560	; 0xa0000000
 80011b2:	f6a4 44c9 	subw	r4, r4, #3273	; 0xcc9
 80011b6:	e7e0      	b.n	800117a <sha512_test+0xae>
        ret = wc_Sha512Final(&sha, hash);
 80011b8:	a90c      	add	r1, sp, #48	; 0x30
 80011ba:	a82c      	add	r0, sp, #176	; 0xb0
 80011bc:	f00e ff3a 	bl	8010034 <wc_Sha512Final>
        if (ret != 0)
 80011c0:	b130      	cbz	r0, 80011d0 <sha512_test+0x104>
            ERROR_OUT(WC_TEST_RET_ENC_I(i), exit);
 80011c2:	4c41      	ldr	r4, [pc, #260]	; (80012c8 <sha512_test+0x1fc>)
 80011c4:	4374      	muls	r4, r6
 80011c6:	f104 4420 	add.w	r4, r4, #2684354560	; 0xa0000000
 80011ca:	f6a4 44cc 	subw	r4, r4, #3276	; 0xccc
 80011ce:	e7d4      	b.n	800117a <sha512_test+0xae>
        wc_Sha512Free(&shaCopy);
 80011d0:	a864      	add	r0, sp, #400	; 0x190
 80011d2:	f00e ffc8 	bl	8010166 <wc_Sha512Free>
        if (XMEMCMP(hash, test_sha[i].output, WC_SHA512_DIGEST_SIZE) != 0)
 80011d6:	6869      	ldr	r1, [r5, #4]
 80011d8:	2240      	movs	r2, #64	; 0x40
 80011da:	a80c      	add	r0, sp, #48	; 0x30
 80011dc:	f019 fef0 	bl	801afc0 <memcmp>
 80011e0:	b130      	cbz	r0, 80011f0 <sha512_test+0x124>
            ERROR_OUT(WC_TEST_RET_ENC_I(i), exit);
 80011e2:	4c39      	ldr	r4, [pc, #228]	; (80012c8 <sha512_test+0x1fc>)
 80011e4:	4374      	muls	r4, r6
 80011e6:	f104 4420 	add.w	r4, r4, #2684354560	; 0xa0000000
 80011ea:	f5a4 644d 	sub.w	r4, r4, #3280	; 0xcd0
 80011ee:	e7c4      	b.n	800117a <sha512_test+0xae>
        if (XMEMCMP(hash, hashcopy, WC_SHA512_DIGEST_SIZE) != 0)
 80011f0:	2240      	movs	r2, #64	; 0x40
 80011f2:	a91c      	add	r1, sp, #112	; 0x70
 80011f4:	a80c      	add	r0, sp, #48	; 0x30
 80011f6:	f019 fee3 	bl	801afc0 <memcmp>
 80011fa:	b130      	cbz	r0, 800120a <sha512_test+0x13e>
            ERROR_OUT(WC_TEST_RET_ENC_I(i), exit);
 80011fc:	4c32      	ldr	r4, [pc, #200]	; (80012c8 <sha512_test+0x1fc>)
 80011fe:	4374      	muls	r4, r6
 8001200:	f104 4420 	add.w	r4, r4, #2684354560	; 0xa0000000
 8001204:	f6a4 44d2 	subw	r4, r4, #3282	; 0xcd2
 8001208:	e7b7      	b.n	800117a <sha512_test+0xae>
    for (i = 0; i < times; ++i) {
 800120a:	3601      	adds	r6, #1
 800120c:	2e03      	cmp	r6, #3
 800120e:	f105 0510 	add.w	r5, r5, #16
 8001212:	d1a6      	bne.n	8001162 <sha512_test+0x96>
 8001214:	ab9c      	add	r3, sp, #624	; 0x270
        large_input[i] = (byte)(i & 0xFF);
 8001216:	f803 0b01 	strb.w	r0, [r3], #1
    for (i = 0; i < (int)sizeof(large_input); i++) {
 800121a:	3001      	adds	r0, #1
 800121c:	f5b0 6f80 	cmp.w	r0, #1024	; 0x400
 8001220:	d1f9      	bne.n	8001216 <sha512_test+0x14a>
 8001222:	2464      	movs	r4, #100	; 0x64
        ret = wc_Sha512Update(&sha, (byte*)large_input,
 8001224:	f44f 6280 	mov.w	r2, #1024	; 0x400
 8001228:	a99c      	add	r1, sp, #624	; 0x270
 800122a:	a82c      	add	r0, sp, #176	; 0xb0
 800122c:	f00e ff2c 	bl	8010088 <wc_Sha512Update>
        if (ret != 0)
 8001230:	b148      	cbz	r0, 8001246 <sha512_test+0x17a>
            ERROR_OUT(WC_TEST_RET_ENC_EC(ret), exit);
 8001232:	4244      	negs	r4, r0
 8001234:	4824      	ldr	r0, [pc, #144]	; (80012c8 <sha512_test+0x1fc>)
 8001236:	f3c4 040a 	ubfx	r4, r4, #0, #11
 800123a:	4344      	muls	r4, r0
 800123c:	f104 4460 	add.w	r4, r4, #3758096384	; 0xe0000000
 8001240:	f6a4 44f2 	subw	r4, r4, #3314	; 0xcf2
 8001244:	e799      	b.n	800117a <sha512_test+0xae>
    for (i = 0; i < times; ++i) {
 8001246:	3c01      	subs	r4, #1
 8001248:	d1ec      	bne.n	8001224 <sha512_test+0x158>
    ret = wc_Sha512Final(&sha, hash);
 800124a:	a90c      	add	r1, sp, #48	; 0x30
 800124c:	a82c      	add	r0, sp, #176	; 0xb0
 800124e:	f00e fef1 	bl	8010034 <wc_Sha512Final>
    if (ret != 0)
 8001252:	b148      	cbz	r0, 8001268 <sha512_test+0x19c>
        ERROR_OUT(WC_TEST_RET_ENC_EC(ret), exit);
 8001254:	4244      	negs	r4, r0
 8001256:	481c      	ldr	r0, [pc, #112]	; (80012c8 <sha512_test+0x1fc>)
 8001258:	f3c4 040a 	ubfx	r4, r4, #0, #11
 800125c:	4344      	muls	r4, r0
 800125e:	f104 4460 	add.w	r4, r4, #3758096384	; 0xe0000000
 8001262:	f6a4 44f6 	subw	r4, r4, #3318	; 0xcf6
 8001266:	e788      	b.n	800117a <sha512_test+0xae>
    if (XMEMCMP(hash, large_digest, WC_SHA512_DIGEST_SIZE) != 0)
 8001268:	4918      	ldr	r1, [pc, #96]	; (80012cc <sha512_test+0x200>)
 800126a:	2240      	movs	r2, #64	; 0x40
 800126c:	a80c      	add	r0, sp, #48	; 0x30
 800126e:	f019 fea7 	bl	801afc0 <memcmp>
 8001272:	b9d8      	cbnz	r0, 80012ac <sha512_test+0x1e0>
    for (i = 1; i < 16; i++) {
 8001274:	2501      	movs	r5, #1
        ret = wc_Sha512Update(&sha, (byte*)large_input + i,
 8001276:	ab9c      	add	r3, sp, #624	; 0x270
 8001278:	f5c5 6280 	rsb	r2, r5, #1024	; 0x400
 800127c:	1959      	adds	r1, r3, r5
 800127e:	a82c      	add	r0, sp, #176	; 0xb0
 8001280:	f00e ff02 	bl	8010088 <wc_Sha512Update>
        if (ret != 0)
 8001284:	b148      	cbz	r0, 800129a <sha512_test+0x1ce>
            ERROR_OUT(WC_TEST_RET_ENC_EC(ret), exit);
 8001286:	4244      	negs	r4, r0
 8001288:	480f      	ldr	r0, [pc, #60]	; (80012c8 <sha512_test+0x1fc>)
 800128a:	f3c4 040a 	ubfx	r4, r4, #0, #11
 800128e:	4344      	muls	r4, r0
 8001290:	f104 4460 	add.w	r4, r4, #3758096384	; 0xe0000000
 8001294:	f5a4 6450 	sub.w	r4, r4, #3328	; 0xd00
 8001298:	e76f      	b.n	800117a <sha512_test+0xae>
        ret = wc_Sha512Final(&sha, hash);
 800129a:	a90c      	add	r1, sp, #48	; 0x30
 800129c:	a82c      	add	r0, sp, #176	; 0xb0
 800129e:	f00e fec9 	bl	8010034 <wc_Sha512Final>
    for (i = 1; i < 16; i++) {
 80012a2:	3501      	adds	r5, #1
 80012a4:	2d10      	cmp	r5, #16
        ret = wc_Sha512Final(&sha, hash);
 80012a6:	4604      	mov	r4, r0
    for (i = 1; i < 16; i++) {
 80012a8:	d1e5      	bne.n	8001276 <sha512_test+0x1aa>
 80012aa:	e766      	b.n	800117a <sha512_test+0xae>
        ERROR_OUT(WC_TEST_RET_ENC_NC, exit);
 80012ac:	4c08      	ldr	r4, [pc, #32]	; (80012d0 <sha512_test+0x204>)
 80012ae:	e764      	b.n	800117a <sha512_test+0xae>
 80012b0:	0801ddc5 	.word	0x0801ddc5
 80012b4:	0801dcf3 	.word	0x0801dcf3
 80012b8:	0801de7d 	.word	0x0801de7d
 80012bc:	0801deee 	.word	0x0801deee
 80012c0:	0801df2f 	.word	0x0801df2f
 80012c4:	0801bdee 	.word	0x0801bdee
 80012c8:	fffe7960 	.word	0xfffe7960
 80012cc:	0801df70 	.word	0x0801df70
 80012d0:	fffff308 	.word	0xfffff308

080012d4 <sha512_224_test>:
{
 80012d4:	e92d 41f0 	stmdb	sp!, {r4, r5, r6, r7, r8, lr}
    a.inLen  = XSTRLEN(a.input);
 80012d8:	f8df 81e0 	ldr.w	r8, [pc, #480]	; 80014bc <sha512_224_test+0x1e8>
    b.inLen  = XSTRLEN(b.input);
 80012dc:	4f78      	ldr	r7, [pc, #480]	; (80014c0 <sha512_224_test+0x1ec>)
    c.inLen  = XSTRLEN(c.input);
 80012de:	4e79      	ldr	r6, [pc, #484]	; (80014c4 <sha512_224_test+0x1f0>)
{
 80012e0:	f5ad 6dc5 	sub.w	sp, sp, #1576	; 0x628
    a.inLen  = XSTRLEN(a.input);
 80012e4:	4640      	mov	r0, r8
 80012e6:	f019 fffe 	bl	801b2e6 <strlen>
 80012ea:	4605      	mov	r5, r0
    b.inLen  = XSTRLEN(b.input);
 80012ec:	4638      	mov	r0, r7
 80012ee:	f019 fffa 	bl	801b2e6 <strlen>
 80012f2:	4604      	mov	r4, r0
    c.inLen  = XSTRLEN(c.input);
 80012f4:	4630      	mov	r0, r6
 80012f6:	f019 fff6 	bl	801b2e6 <strlen>
    test_sha[0] = a;
 80012fa:	4b73      	ldr	r3, [pc, #460]	; (80014c8 <sha512_224_test+0x1f4>)
 80012fc:	f8cd 8038 	str.w	r8, [sp, #56]	; 0x38
 8001300:	e9cd 350f 	strd	r3, r5, [sp, #60]	; 0x3c
    test_sha[1] = b;
 8001304:	4b71      	ldr	r3, [pc, #452]	; (80014cc <sha512_224_test+0x1f8>)
 8001306:	9712      	str	r7, [sp, #72]	; 0x48
 8001308:	e9cd 3413 	strd	r3, r4, [sp, #76]	; 0x4c
    test_sha[2] = c;
 800130c:	4b70      	ldr	r3, [pc, #448]	; (80014d0 <sha512_224_test+0x1fc>)
 800130e:	9616      	str	r6, [sp, #88]	; 0x58
 8001310:	e9cd 3017 	strd	r3, r0, [sp, #92]	; 0x5c
    ret = wc_InitSha512_224_ex(&sha, HEAP_HINT, devId);
 8001314:	2100      	movs	r1, #0
 8001316:	f06f 0201 	mvn.w	r2, #1
 800131a:	a81a      	add	r0, sp, #104	; 0x68
 800131c:	f00e fea4 	bl	8010068 <wc_InitSha512_224_ex>
    if (ret != 0)
 8001320:	4601      	mov	r1, r0
 8001322:	b168      	cbz	r0, 8001340 <sha512_224_test+0x6c>
        return WC_TEST_RET_ENC_EC(ret);
 8001324:	496b      	ldr	r1, [pc, #428]	; (80014d4 <sha512_224_test+0x200>)
 8001326:	4244      	negs	r4, r0
 8001328:	f3c4 040a 	ubfx	r4, r4, #0, #11
 800132c:	434c      	muls	r4, r1
 800132e:	f104 4460 	add.w	r4, r4, #3758096384	; 0xe0000000
 8001332:	f6a4 544b 	subw	r4, r4, #3403	; 0xd4b
} /* sha512_224_test */
 8001336:	4620      	mov	r0, r4
 8001338:	f50d 6dc5 	add.w	sp, sp, #1576	; 0x628
 800133c:	e8bd 81f0 	ldmia.w	sp!, {r4, r5, r6, r7, r8, pc}
    ret = wc_InitSha512_224_ex(&shaCopy, HEAP_HINT, devId);
 8001340:	f06f 0201 	mvn.w	r2, #1
 8001344:	a852      	add	r0, sp, #328	; 0x148
 8001346:	f00e fe8f 	bl	8010068 <wc_InitSha512_224_ex>
    if (ret != 0) {
 800134a:	4606      	mov	r6, r0
 800134c:	b160      	cbz	r0, 8001368 <sha512_224_test+0x94>
        wc_Sha512_224Free(&sha);
 800134e:	a81a      	add	r0, sp, #104	; 0x68
 8001350:	f00e ff51 	bl	80101f6 <wc_Sha512_224Free>
        return WC_TEST_RET_ENC_EC(ret);
 8001354:	4274      	negs	r4, r6
 8001356:	485f      	ldr	r0, [pc, #380]	; (80014d4 <sha512_224_test+0x200>)
 8001358:	f3c4 040a 	ubfx	r4, r4, #0, #11
 800135c:	4344      	muls	r4, r0
 800135e:	f104 4460 	add.w	r4, r4, #3758096384	; 0xe0000000
 8001362:	f6a4 544f 	subw	r4, r4, #3407	; 0xd4f
 8001366:	e7e6      	b.n	8001336 <sha512_224_test+0x62>
 8001368:	ad0e      	add	r5, sp, #56	; 0x38
        ret = wc_Sha512_224Update(&sha, (byte*)test_sha[i].input,
 800136a:	68aa      	ldr	r2, [r5, #8]
 800136c:	6829      	ldr	r1, [r5, #0]
 800136e:	a81a      	add	r0, sp, #104	; 0x68
 8001370:	f00e ff3f 	bl	80101f2 <wc_Sha512_224Update>
        if (ret != 0)
 8001374:	b160      	cbz	r0, 8001390 <sha512_224_test+0xbc>
            ERROR_OUT(WC_TEST_RET_ENC_I(i), exit);
 8001376:	4c57      	ldr	r4, [pc, #348]	; (80014d4 <sha512_224_test+0x200>)
 8001378:	4374      	muls	r4, r6
 800137a:	f104 4420 	add.w	r4, r4, #2684354560	; 0xa0000000
 800137e:	f6a4 5456 	subw	r4, r4, #3414	; 0xd56
    wc_Sha512_224Free(&sha);
 8001382:	a81a      	add	r0, sp, #104	; 0x68
 8001384:	f00e ff37 	bl	80101f6 <wc_Sha512_224Free>
    wc_Sha512_224Free(&shaCopy);
 8001388:	a852      	add	r0, sp, #328	; 0x148
 800138a:	f00e ff34 	bl	80101f6 <wc_Sha512_224Free>
    return ret;
 800138e:	e7d2      	b.n	8001336 <sha512_224_test+0x62>
        ret = wc_Sha512_224GetHash(&sha, hashcopy);
 8001390:	a907      	add	r1, sp, #28
 8001392:	a81a      	add	r0, sp, #104	; 0x68
 8001394:	f00e ff32 	bl	80101fc <wc_Sha512_224GetHash>
        if (ret != 0)
 8001398:	b130      	cbz	r0, 80013a8 <sha512_224_test+0xd4>
            ERROR_OUT(WC_TEST_RET_ENC_I(i), exit);
 800139a:	4c4e      	ldr	r4, [pc, #312]	; (80014d4 <sha512_224_test+0x200>)
 800139c:	4374      	muls	r4, r6
 800139e:	f104 4420 	add.w	r4, r4, #2684354560	; 0xa0000000
 80013a2:	f6a4 5459 	subw	r4, r4, #3417	; 0xd59
 80013a6:	e7ec      	b.n	8001382 <sha512_224_test+0xae>
        ret = wc_Sha512_224Copy(&sha, &shaCopy);
 80013a8:	a952      	add	r1, sp, #328	; 0x148
 80013aa:	a81a      	add	r0, sp, #104	; 0x68
 80013ac:	f00e ff2c 	bl	8010208 <wc_Sha512_224Copy>
        if (ret != 0)
 80013b0:	b130      	cbz	r0, 80013c0 <sha512_224_test+0xec>
            ERROR_OUT(WC_TEST_RET_ENC_I(i), exit);
 80013b2:	4c48      	ldr	r4, [pc, #288]	; (80014d4 <sha512_224_test+0x200>)
 80013b4:	4374      	muls	r4, r6
 80013b6:	f104 4420 	add.w	r4, r4, #2684354560	; 0xa0000000
 80013ba:	f6a4 545c 	subw	r4, r4, #3420	; 0xd5c
 80013be:	e7e0      	b.n	8001382 <sha512_224_test+0xae>
        ret = wc_Sha512_224Final(&sha, hash);
 80013c0:	4669      	mov	r1, sp
 80013c2:	a81a      	add	r0, sp, #104	; 0x68
 80013c4:	f00e fe3c 	bl	8010040 <wc_Sha512_224Final>
        if (ret != 0)
 80013c8:	b130      	cbz	r0, 80013d8 <sha512_224_test+0x104>
            ERROR_OUT(WC_TEST_RET_ENC_I(i), exit);
 80013ca:	4c42      	ldr	r4, [pc, #264]	; (80014d4 <sha512_224_test+0x200>)
 80013cc:	4374      	muls	r4, r6
 80013ce:	f104 4420 	add.w	r4, r4, #2684354560	; 0xa0000000
 80013d2:	f6a4 545f 	subw	r4, r4, #3423	; 0xd5f
 80013d6:	e7d4      	b.n	8001382 <sha512_224_test+0xae>
        wc_Sha512_224Free(&shaCopy);
 80013d8:	a852      	add	r0, sp, #328	; 0x148
 80013da:	f00e ff0c 	bl	80101f6 <wc_Sha512_224Free>
        if (XMEMCMP(hash, test_sha[i].output, WC_SHA512_224_DIGEST_SIZE) != 0)
 80013de:	6869      	ldr	r1, [r5, #4]
 80013e0:	221c      	movs	r2, #28
 80013e2:	4668      	mov	r0, sp
 80013e4:	f019 fdec 	bl	801afc0 <memcmp>
 80013e8:	b130      	cbz	r0, 80013f8 <sha512_224_test+0x124>
            ERROR_OUT(WC_TEST_RET_ENC_I(i), exit);
 80013ea:	4c3a      	ldr	r4, [pc, #232]	; (80014d4 <sha512_224_test+0x200>)
 80013ec:	4374      	muls	r4, r6
 80013ee:	f104 4420 	add.w	r4, r4, #2684354560	; 0xa0000000
 80013f2:	f6a4 5463 	subw	r4, r4, #3427	; 0xd63
 80013f6:	e7c4      	b.n	8001382 <sha512_224_test+0xae>
        if (XMEMCMP(hash, hashcopy, WC_SHA512_224_DIGEST_SIZE) != 0)
 80013f8:	221c      	movs	r2, #28
 80013fa:	eb0d 0102 	add.w	r1, sp, r2
 80013fe:	4668      	mov	r0, sp
 8001400:	f019 fdde 	bl	801afc0 <memcmp>
 8001404:	b130      	cbz	r0, 8001414 <sha512_224_test+0x140>
            ERROR_OUT(WC_TEST_RET_ENC_I(i), exit);
 8001406:	4c33      	ldr	r4, [pc, #204]	; (80014d4 <sha512_224_test+0x200>)
 8001408:	4374      	muls	r4, r6
 800140a:	f104 4420 	add.w	r4, r4, #2684354560	; 0xa0000000
 800140e:	f6a4 5467 	subw	r4, r4, #3431	; 0xd67
 8001412:	e7b6      	b.n	8001382 <sha512_224_test+0xae>
    for (i = 0; i < times; ++i) {
 8001414:	3601      	adds	r6, #1
 8001416:	2e03      	cmp	r6, #3
 8001418:	f105 0510 	add.w	r5, r5, #16
 800141c:	d1a5      	bne.n	800136a <sha512_224_test+0x96>
 800141e:	ab8a      	add	r3, sp, #552	; 0x228
        large_input[i] = (byte)(i & 0xFF);
 8001420:	f803 0b01 	strb.w	r0, [r3], #1
    for (i = 0; i < (int)sizeof(large_input); i++) {
 8001424:	3001      	adds	r0, #1
 8001426:	f5b0 6f80 	cmp.w	r0, #1024	; 0x400
 800142a:	d1f9      	bne.n	8001420 <sha512_224_test+0x14c>
 800142c:	2464      	movs	r4, #100	; 0x64
        ret = wc_Sha512_224Update(&sha, (byte*)large_input,
 800142e:	f44f 6280 	mov.w	r2, #1024	; 0x400
 8001432:	a98a      	add	r1, sp, #552	; 0x228
 8001434:	a81a      	add	r0, sp, #104	; 0x68
 8001436:	f00e fedc 	bl	80101f2 <wc_Sha512_224Update>
        if (ret != 0)
 800143a:	b148      	cbz	r0, 8001450 <sha512_224_test+0x17c>
            ERROR_OUT(WC_TEST_RET_ENC_EC(ret), exit);
 800143c:	4244      	negs	r4, r0
 800143e:	4825      	ldr	r0, [pc, #148]	; (80014d4 <sha512_224_test+0x200>)
 8001440:	f3c4 040a 	ubfx	r4, r4, #0, #11
 8001444:	4344      	muls	r4, r0
 8001446:	f104 4460 	add.w	r4, r4, #3758096384	; 0xe0000000
 800144a:	f6a4 5487 	subw	r4, r4, #3463	; 0xd87
 800144e:	e798      	b.n	8001382 <sha512_224_test+0xae>
    for (i = 0; i < times; ++i) {
 8001450:	3c01      	subs	r4, #1
 8001452:	d1ec      	bne.n	800142e <sha512_224_test+0x15a>
    ret = wc_Sha512_224Final(&sha, hash);
 8001454:	4669      	mov	r1, sp
 8001456:	a81a      	add	r0, sp, #104	; 0x68
 8001458:	f00e fdf2 	bl	8010040 <wc_Sha512_224Final>
    if (ret != 0)
 800145c:	b148      	cbz	r0, 8001472 <sha512_224_test+0x19e>
        ERROR_OUT(WC_TEST_RET_ENC_EC(ret), exit);
 800145e:	4244      	negs	r4, r0
 8001460:	481c      	ldr	r0, [pc, #112]	; (80014d4 <sha512_224_test+0x200>)
 8001462:	f3c4 040a 	ubfx	r4, r4, #0, #11
 8001466:	4344      	muls	r4, r0
 8001468:	f104 4460 	add.w	r4, r4, #3758096384	; 0xe0000000
 800146c:	f6a4 548b 	subw	r4, r4, #3467	; 0xd8b
 8001470:	e787      	b.n	8001382 <sha512_224_test+0xae>
    if (XMEMCMP(hash, large_digest, WC_SHA512_224_DIGEST_SIZE) != 0)
 8001472:	4919      	ldr	r1, [pc, #100]	; (80014d8 <sha512_224_test+0x204>)
 8001474:	221c      	movs	r2, #28
 8001476:	4668      	mov	r0, sp
 8001478:	f019 fda2 	bl	801afc0 <memcmp>
 800147c:	b9d8      	cbnz	r0, 80014b6 <sha512_224_test+0x1e2>
    for (i = 1; i < 16; i++) {
 800147e:	2501      	movs	r5, #1
        ret = wc_Sha512_224Update(&sha, (byte*)large_input + i,
 8001480:	ab8a      	add	r3, sp, #552	; 0x228
 8001482:	f5c5 6280 	rsb	r2, r5, #1024	; 0x400
 8001486:	1959      	adds	r1, r3, r5
 8001488:	a81a      	add	r0, sp, #104	; 0x68
 800148a:	f00e feb2 	bl	80101f2 <wc_Sha512_224Update>
        if (ret != 0)
 800148e:	b148      	cbz	r0, 80014a4 <sha512_224_test+0x1d0>
            ERROR_OUT(WC_TEST_RET_ENC_EC(ret), exit);
 8001490:	4244      	negs	r4, r0
 8001492:	4810      	ldr	r0, [pc, #64]	; (80014d4 <sha512_224_test+0x200>)
 8001494:	f3c4 040a 	ubfx	r4, r4, #0, #11
 8001498:	4344      	muls	r4, r0
 800149a:	f104 4460 	add.w	r4, r4, #3758096384	; 0xe0000000
 800149e:	f6a4 5495 	subw	r4, r4, #3477	; 0xd95
 80014a2:	e76e      	b.n	8001382 <sha512_224_test+0xae>
        ret = wc_Sha512_224Final(&sha, hash);
 80014a4:	4669      	mov	r1, sp
 80014a6:	a81a      	add	r0, sp, #104	; 0x68
 80014a8:	f00e fdca 	bl	8010040 <wc_Sha512_224Final>
    for (i = 1; i < 16; i++) {
 80014ac:	3501      	adds	r5, #1
 80014ae:	2d10      	cmp	r5, #16
        ret = wc_Sha512_224Final(&sha, hash);
 80014b0:	4604      	mov	r4, r0
    for (i = 1; i < 16; i++) {
 80014b2:	d1e5      	bne.n	8001480 <sha512_224_test+0x1ac>
 80014b4:	e765      	b.n	8001382 <sha512_224_test+0xae>
        ERROR_OUT(WC_TEST_RET_ENC_NC, exit);
 80014b6:	4c09      	ldr	r4, [pc, #36]	; (80014dc <sha512_224_test+0x208>)
 80014b8:	e763      	b.n	8001382 <sha512_224_test+0xae>
 80014ba:	bf00      	nop
 80014bc:	0801ddc5 	.word	0x0801ddc5
 80014c0:	0801dcf3 	.word	0x0801dcf3
 80014c4:	0801de7d 	.word	0x0801de7d
 80014c8:	0801dfb1 	.word	0x0801dfb1
 80014cc:	0801dfce 	.word	0x0801dfce
 80014d0:	0801dfeb 	.word	0x0801dfeb
 80014d4:	fffe7960 	.word	0xfffe7960
 80014d8:	0801e008 	.word	0x0801e008
 80014dc:	fffff273 	.word	0xfffff273

080014e0 <sha512_256_test>:
{
 80014e0:	e92d 41f0 	stmdb	sp!, {r4, r5, r6, r7, r8, lr}
    a.inLen  = XSTRLEN(a.input);
 80014e4:	f8df 81e0 	ldr.w	r8, [pc, #480]	; 80016c8 <sha512_256_test+0x1e8>
    b.inLen  = XSTRLEN(b.input);
 80014e8:	4f78      	ldr	r7, [pc, #480]	; (80016cc <sha512_256_test+0x1ec>)
    c.inLen  = XSTRLEN(c.input);
 80014ea:	4e79      	ldr	r6, [pc, #484]	; (80016d0 <sha512_256_test+0x1f0>)
{
 80014ec:	f5ad 6dc6 	sub.w	sp, sp, #1584	; 0x630
    a.inLen  = XSTRLEN(a.input);
 80014f0:	4640      	mov	r0, r8
 80014f2:	f019 fef8 	bl	801b2e6 <strlen>
 80014f6:	4605      	mov	r5, r0
    b.inLen  = XSTRLEN(b.input);
 80014f8:	4638      	mov	r0, r7
 80014fa:	f019 fef4 	bl	801b2e6 <strlen>
 80014fe:	4604      	mov	r4, r0
    c.inLen  = XSTRLEN(c.input);
 8001500:	4630      	mov	r0, r6
 8001502:	f019 fef0 	bl	801b2e6 <strlen>
    test_sha[0] = a;
 8001506:	4b73      	ldr	r3, [pc, #460]	; (80016d4 <sha512_256_test+0x1f4>)
 8001508:	f8cd 8040 	str.w	r8, [sp, #64]	; 0x40
 800150c:	e9cd 3511 	strd	r3, r5, [sp, #68]	; 0x44
    test_sha[1] = b;
 8001510:	4b71      	ldr	r3, [pc, #452]	; (80016d8 <sha512_256_test+0x1f8>)
 8001512:	9714      	str	r7, [sp, #80]	; 0x50
 8001514:	e9cd 3415 	strd	r3, r4, [sp, #84]	; 0x54
    test_sha[2] = c;
 8001518:	4b70      	ldr	r3, [pc, #448]	; (80016dc <sha512_256_test+0x1fc>)
 800151a:	9618      	str	r6, [sp, #96]	; 0x60
 800151c:	e9cd 3019 	strd	r3, r0, [sp, #100]	; 0x64
    ret = wc_InitSha512_256_ex(&sha, HEAP_HINT, devId);
 8001520:	2100      	movs	r1, #0
 8001522:	f06f 0201 	mvn.w	r2, #1
 8001526:	a81c      	add	r0, sp, #112	; 0x70
 8001528:	f00e fda6 	bl	8010078 <wc_InitSha512_256_ex>
    if (ret != 0)
 800152c:	4601      	mov	r1, r0
 800152e:	b168      	cbz	r0, 800154c <sha512_256_test+0x6c>
        return WC_TEST_RET_ENC_EC(ret);
 8001530:	496b      	ldr	r1, [pc, #428]	; (80016e0 <sha512_256_test+0x200>)
 8001532:	4244      	negs	r4, r0
 8001534:	f3c4 040a 	ubfx	r4, r4, #0, #11
 8001538:	434c      	muls	r4, r1
 800153a:	f104 4460 	add.w	r4, r4, #3758096384	; 0xe0000000
 800153e:	f6a4 54e3 	subw	r4, r4, #3555	; 0xde3
} /* sha512_256_test */
 8001542:	4620      	mov	r0, r4
 8001544:	f50d 6dc6 	add.w	sp, sp, #1584	; 0x630
 8001548:	e8bd 81f0 	ldmia.w	sp!, {r4, r5, r6, r7, r8, pc}
    ret = wc_InitSha512_256_ex(&shaCopy, HEAP_HINT, devId);
 800154c:	f06f 0201 	mvn.w	r2, #1
 8001550:	a854      	add	r0, sp, #336	; 0x150
 8001552:	f00e fd91 	bl	8010078 <wc_InitSha512_256_ex>
    if (ret != 0) {
 8001556:	4606      	mov	r6, r0
 8001558:	b160      	cbz	r0, 8001574 <sha512_256_test+0x94>
        wc_Sha512_256Free(&sha);
 800155a:	a81c      	add	r0, sp, #112	; 0x70
 800155c:	f00e fe5d 	bl	801021a <wc_Sha512_256Free>
        return WC_TEST_RET_ENC_EC(ret);
 8001560:	4274      	negs	r4, r6
 8001562:	485f      	ldr	r0, [pc, #380]	; (80016e0 <sha512_256_test+0x200>)
 8001564:	f3c4 040a 	ubfx	r4, r4, #0, #11
 8001568:	4344      	muls	r4, r0
 800156a:	f104 4460 	add.w	r4, r4, #3758096384	; 0xe0000000
 800156e:	f6a4 54e7 	subw	r4, r4, #3559	; 0xde7
 8001572:	e7e6      	b.n	8001542 <sha512_256_test+0x62>
 8001574:	ad10      	add	r5, sp, #64	; 0x40
        ret = wc_Sha512_256Update(&sha, (byte*)test_sha[i].input,
 8001576:	68aa      	ldr	r2, [r5, #8]
 8001578:	6829      	ldr	r1, [r5, #0]
 800157a:	a81c      	add	r0, sp, #112	; 0x70
 800157c:	f00e fe4b 	bl	8010216 <wc_Sha512_256Update>
        if (ret != 0)
 8001580:	b160      	cbz	r0, 800159c <sha512_256_test+0xbc>
            ERROR_OUT(WC_TEST_RET_ENC_I(i), exit);
 8001582:	4c57      	ldr	r4, [pc, #348]	; (80016e0 <sha512_256_test+0x200>)
 8001584:	4374      	muls	r4, r6
 8001586:	f104 4420 	add.w	r4, r4, #2684354560	; 0xa0000000
 800158a:	f6a4 54ee 	subw	r4, r4, #3566	; 0xdee
    wc_Sha512_256Free(&sha);
 800158e:	a81c      	add	r0, sp, #112	; 0x70
 8001590:	f00e fe43 	bl	801021a <wc_Sha512_256Free>
    wc_Sha512_256Free(&shaCopy);
 8001594:	a854      	add	r0, sp, #336	; 0x150
 8001596:	f00e fe40 	bl	801021a <wc_Sha512_256Free>
    return ret;
 800159a:	e7d2      	b.n	8001542 <sha512_256_test+0x62>
        ret = wc_Sha512_256GetHash(&sha, hashcopy);
 800159c:	a908      	add	r1, sp, #32
 800159e:	a81c      	add	r0, sp, #112	; 0x70
 80015a0:	f00e fe3e 	bl	8010220 <wc_Sha512_256GetHash>
        if (ret != 0)
 80015a4:	b138      	cbz	r0, 80015b6 <sha512_256_test+0xd6>
            ERROR_OUT(WC_TEST_RET_ENC_I(i), exit);
 80015a6:	4c4e      	ldr	r4, [pc, #312]	; (80016e0 <sha512_256_test+0x200>)
 80015a8:	4374      	muls	r4, r6
 80015aa:	f104 4420 	add.w	r4, r4, #2684354560	; 0xa0000000
 80015ae:	f46f 635f 	mvn.w	r3, #3568	; 0xdf0
 80015b2:	441c      	add	r4, r3
 80015b4:	e7eb      	b.n	800158e <sha512_256_test+0xae>
        ret = wc_Sha512_256Copy(&sha, &shaCopy);
 80015b6:	a954      	add	r1, sp, #336	; 0x150
 80015b8:	a81c      	add	r0, sp, #112	; 0x70
 80015ba:	f00e fe37 	bl	801022c <wc_Sha512_256Copy>
        if (ret != 0)
 80015be:	b130      	cbz	r0, 80015ce <sha512_256_test+0xee>
            ERROR_OUT(WC_TEST_RET_ENC_I(i), exit);
 80015c0:	4c47      	ldr	r4, [pc, #284]	; (80016e0 <sha512_256_test+0x200>)
 80015c2:	4374      	muls	r4, r6
 80015c4:	f104 4420 	add.w	r4, r4, #2684354560	; 0xa0000000
 80015c8:	f6a4 54f4 	subw	r4, r4, #3572	; 0xdf4
 80015cc:	e7df      	b.n	800158e <sha512_256_test+0xae>
        ret = wc_Sha512_256Final(&sha, hash);
 80015ce:	4669      	mov	r1, sp
 80015d0:	a81c      	add	r0, sp, #112	; 0x70
 80015d2:	f00e fd3b 	bl	801004c <wc_Sha512_256Final>
        if (ret != 0)
 80015d6:	b130      	cbz	r0, 80015e6 <sha512_256_test+0x106>
            ERROR_OUT(WC_TEST_RET_ENC_I(i), exit);
 80015d8:	4c41      	ldr	r4, [pc, #260]	; (80016e0 <sha512_256_test+0x200>)
 80015da:	4374      	muls	r4, r6
 80015dc:	f104 4420 	add.w	r4, r4, #2684354560	; 0xa0000000
 80015e0:	f6a4 54f7 	subw	r4, r4, #3575	; 0xdf7
 80015e4:	e7d3      	b.n	800158e <sha512_256_test+0xae>
        wc_Sha512_256Free(&shaCopy);
 80015e6:	a854      	add	r0, sp, #336	; 0x150
 80015e8:	f00e fe17 	bl	801021a <wc_Sha512_256Free>
        if (XMEMCMP(hash, test_sha[i].output, WC_SHA512_256_DIGEST_SIZE) != 0)
 80015ec:	6869      	ldr	r1, [r5, #4]
 80015ee:	2220      	movs	r2, #32
 80015f0:	4668      	mov	r0, sp
 80015f2:	f019 fce5 	bl	801afc0 <memcmp>
 80015f6:	b130      	cbz	r0, 8001606 <sha512_256_test+0x126>
            ERROR_OUT(WC_TEST_RET_ENC_I(i), exit);
 80015f8:	4c39      	ldr	r4, [pc, #228]	; (80016e0 <sha512_256_test+0x200>)
 80015fa:	4374      	muls	r4, r6
 80015fc:	f104 4420 	add.w	r4, r4, #2684354560	; 0xa0000000
 8001600:	f6a4 54fb 	subw	r4, r4, #3579	; 0xdfb
 8001604:	e7c3      	b.n	800158e <sha512_256_test+0xae>
        if (XMEMCMP(hash, hashcopy, WC_SHA512_256_DIGEST_SIZE) != 0)
 8001606:	2220      	movs	r2, #32
 8001608:	eb0d 0102 	add.w	r1, sp, r2
 800160c:	4668      	mov	r0, sp
 800160e:	f019 fcd7 	bl	801afc0 <memcmp>
 8001612:	b130      	cbz	r0, 8001622 <sha512_256_test+0x142>
            ERROR_OUT(WC_TEST_RET_ENC_I(i), exit);
 8001614:	4c32      	ldr	r4, [pc, #200]	; (80016e0 <sha512_256_test+0x200>)
 8001616:	4374      	muls	r4, r6
 8001618:	f104 4420 	add.w	r4, r4, #2684354560	; 0xa0000000
 800161c:	f6a4 54ff 	subw	r4, r4, #3583	; 0xdff
 8001620:	e7b5      	b.n	800158e <sha512_256_test+0xae>
    for (i = 0; i < times; ++i) {
 8001622:	3601      	adds	r6, #1
 8001624:	2e03      	cmp	r6, #3
 8001626:	f105 0510 	add.w	r5, r5, #16
 800162a:	d1a4      	bne.n	8001576 <sha512_256_test+0x96>
 800162c:	ab8c      	add	r3, sp, #560	; 0x230
        large_input[i] = (byte)(i & 0xFF);
 800162e:	f803 0b01 	strb.w	r0, [r3], #1
    for (i = 0; i < (int)sizeof(large_input); i++) {
 8001632:	3001      	adds	r0, #1
 8001634:	f5b0 6f80 	cmp.w	r0, #1024	; 0x400
 8001638:	d1f9      	bne.n	800162e <sha512_256_test+0x14e>
 800163a:	2464      	movs	r4, #100	; 0x64
        ret = wc_Sha512_256Update(&sha, (byte*)large_input,
 800163c:	f44f 6280 	mov.w	r2, #1024	; 0x400
 8001640:	a98c      	add	r1, sp, #560	; 0x230
 8001642:	a81c      	add	r0, sp, #112	; 0x70
 8001644:	f00e fde7 	bl	8010216 <wc_Sha512_256Update>
        if (ret != 0)
 8001648:	b148      	cbz	r0, 800165e <sha512_256_test+0x17e>
            ERROR_OUT(WC_TEST_RET_ENC_EC(ret), exit);
 800164a:	4244      	negs	r4, r0
 800164c:	4824      	ldr	r0, [pc, #144]	; (80016e0 <sha512_256_test+0x200>)
 800164e:	f3c4 040a 	ubfx	r4, r4, #0, #11
 8001652:	4344      	muls	r4, r0
 8001654:	f104 4460 	add.w	r4, r4, #3758096384	; 0xe0000000
 8001658:	f6a4 641f 	subw	r4, r4, #3615	; 0xe1f
 800165c:	e797      	b.n	800158e <sha512_256_test+0xae>
    for (i = 0; i < times; ++i) {
 800165e:	3c01      	subs	r4, #1
 8001660:	d1ec      	bne.n	800163c <sha512_256_test+0x15c>
    ret = wc_Sha512_256Final(&sha, hash);
 8001662:	4669      	mov	r1, sp
 8001664:	a81c      	add	r0, sp, #112	; 0x70
 8001666:	f00e fcf1 	bl	801004c <wc_Sha512_256Final>
    if (ret != 0)
 800166a:	b148      	cbz	r0, 8001680 <sha512_256_test+0x1a0>
        ERROR_OUT(WC_TEST_RET_ENC_EC(ret), exit);
 800166c:	4244      	negs	r4, r0
 800166e:	481c      	ldr	r0, [pc, #112]	; (80016e0 <sha512_256_test+0x200>)
 8001670:	f3c4 040a 	ubfx	r4, r4, #0, #11
 8001674:	4344      	muls	r4, r0
 8001676:	f104 4460 	add.w	r4, r4, #3758096384	; 0xe0000000
 800167a:	f6a4 6423 	subw	r4, r4, #3619	; 0xe23
 800167e:	e786      	b.n	800158e <sha512_256_test+0xae>
    if (XMEMCMP(hash, large_digest, WC_SHA512_256_DIGEST_SIZE) != 0)
 8001680:	4918      	ldr	r1, [pc, #96]	; (80016e4 <sha512_256_test+0x204>)
 8001682:	2220      	movs	r2, #32
 8001684:	4668      	mov	r0, sp
 8001686:	f019 fc9b 	bl	801afc0 <memcmp>
 800168a:	b9d8      	cbnz	r0, 80016c4 <sha512_256_test+0x1e4>
    for (i = 1; i < 16; i++) {
 800168c:	2501      	movs	r5, #1
        ret = wc_Sha512_256Update(&sha, (byte*)large_input + i,
 800168e:	ab8c      	add	r3, sp, #560	; 0x230
 8001690:	f5c5 6280 	rsb	r2, r5, #1024	; 0x400
 8001694:	1959      	adds	r1, r3, r5
 8001696:	a81c      	add	r0, sp, #112	; 0x70
 8001698:	f00e fdbd 	bl	8010216 <wc_Sha512_256Update>
        if (ret != 0)
 800169c:	b148      	cbz	r0, 80016b2 <sha512_256_test+0x1d2>
            ERROR_OUT(WC_TEST_RET_ENC_EC(ret), exit);
 800169e:	4244      	negs	r4, r0
 80016a0:	480f      	ldr	r0, [pc, #60]	; (80016e0 <sha512_256_test+0x200>)
 80016a2:	f3c4 040a 	ubfx	r4, r4, #0, #11
 80016a6:	4344      	muls	r4, r0
 80016a8:	f104 4460 	add.w	r4, r4, #3758096384	; 0xe0000000
 80016ac:	f6a4 642d 	subw	r4, r4, #3629	; 0xe2d
 80016b0:	e76d      	b.n	800158e <sha512_256_test+0xae>
        ret = wc_Sha512_256Final(&sha, hash);
 80016b2:	4669      	mov	r1, sp
 80016b4:	a81c      	add	r0, sp, #112	; 0x70
 80016b6:	f00e fcc9 	bl	801004c <wc_Sha512_256Final>
    for (i = 1; i < 16; i++) {
 80016ba:	3501      	adds	r5, #1
 80016bc:	2d10      	cmp	r5, #16
        ret = wc_Sha512_256Final(&sha, hash);
 80016be:	4604      	mov	r4, r0
    for (i = 1; i < 16; i++) {
 80016c0:	d1e5      	bne.n	800168e <sha512_256_test+0x1ae>
 80016c2:	e764      	b.n	800158e <sha512_256_test+0xae>
        ERROR_OUT(WC_TEST_RET_ENC_NC, exit);
 80016c4:	4c08      	ldr	r4, [pc, #32]	; (80016e8 <sha512_256_test+0x208>)
 80016c6:	e762      	b.n	800158e <sha512_256_test+0xae>
 80016c8:	0801ddc5 	.word	0x0801ddc5
 80016cc:	0801dcf3 	.word	0x0801dcf3
 80016d0:	0801de7d 	.word	0x0801de7d
 80016d4:	0801e025 	.word	0x0801e025
 80016d8:	0801e046 	.word	0x0801e046
 80016dc:	0801e067 	.word	0x0801e067
 80016e0:	fffe7960 	.word	0xfffe7960
 80016e4:	0801e088 	.word	0x0801e088
 80016e8:	fffff1db 	.word	0xfffff1db

080016ec <hash_test>:
{
 80016ec:	e92d 4ff0 	stmdb	sp!, {r4, r5, r6, r7, r8, r9, sl, fp, lr}
    byte             data[] = "0123456789abcdef0123456789abcdef0123456";
 80016f0:	4bab      	ldr	r3, [pc, #684]	; (80019a0 <hash_test+0x2b4>)
{
 80016f2:	b0ed      	sub	sp, #436	; 0x1b4
    byte             data[] = "0123456789abcdef0123456789abcdef0123456";
 80016f4:	ac0a      	add	r4, sp, #40	; 0x28
 80016f6:	f103 0528 	add.w	r5, r3, #40	; 0x28
 80016fa:	6818      	ldr	r0, [r3, #0]
 80016fc:	6859      	ldr	r1, [r3, #4]
 80016fe:	4622      	mov	r2, r4
 8001700:	c203      	stmia	r2!, {r0, r1}
 8001702:	3308      	adds	r3, #8
 8001704:	42ab      	cmp	r3, r5
 8001706:	4614      	mov	r4, r2
 8001708:	d1f7      	bne.n	80016fa <hash_test+0xe>
    enum wc_HashType typesGood[] = { WC_HASH_TYPE_MD5, WC_HASH_TYPE_SHA,
 800170a:	4aa6      	ldr	r2, [pc, #664]	; (80019a4 <hash_test+0x2b8>)
 800170c:	f8d2 00b7 	ldr.w	r0, [r2, #183]	; 0xb7
 8001710:	f8d2 10bb 	ldr.w	r1, [r2, #187]	; 0xbb
 8001714:	f8b2 20bf 	ldrh.w	r2, [r2, #191]	; 0xbf
 8001718:	ab07      	add	r3, sp, #28
 800171a:	c303      	stmia	r3!, {r0, r1}
    enum wc_HashType typesNoImpl[] = {
 800171c:	af05      	add	r7, sp, #20
    enum wc_HashType typesGood[] = { WC_HASH_TYPE_MD5, WC_HASH_TYPE_SHA,
 800171e:	801a      	strh	r2, [r3, #0]
    enum wc_HashType typesNoImpl[] = {
 8001720:	2303      	movs	r3, #3
 8001722:	703b      	strb	r3, [r7, #0]
 8001724:	2305      	movs	r3, #5
 8001726:	707b      	strb	r3, [r7, #1]
 8001728:	2307      	movs	r3, #7
 800172a:	70bb      	strb	r3, [r7, #2]
 800172c:	230a      	movs	r3, #10
 800172e:	70fb      	strb	r3, [r7, #3]
 8001730:	230b      	movs	r3, #11
 8001732:	713b      	strb	r3, [r7, #4]
 8001734:	230c      	movs	r3, #12
 8001736:	717b      	strb	r3, [r7, #5]
 8001738:	230d      	movs	r3, #13
 800173a:	71bb      	strb	r3, [r7, #6]
    enum wc_HashType typesBad[]  = { WC_HASH_TYPE_NONE, WC_HASH_TYPE_MD5_SHA,
 800173c:	2309      	movs	r3, #9
    enum wc_HashType typesNoImpl[] = {
 800173e:	2400      	movs	r4, #0
    enum wc_HashType typesBad[]  = { WC_HASH_TYPE_NONE, WC_HASH_TYPE_MD5_SHA,
 8001740:	f88d 300d 	strb.w	r3, [sp, #13]
 8001744:	2302      	movs	r3, #2
 8001746:	2201      	movs	r2, #1
 8001748:	f88d 300f 	strb.w	r3, [sp, #15]
    enum wc_HashType typesHashBad[] = { WC_HASH_TYPE_MD2, WC_HASH_TYPE_MD4,
 800174c:	f88d 3011 	strb.w	r3, [sp, #17]
    ret = wc_HashInit(NULL, WC_HASH_TYPE_SHA256);
 8001750:	2106      	movs	r1, #6
    enum wc_HashType typesHashBad[] = { WC_HASH_TYPE_MD2, WC_HASH_TYPE_MD4,
 8001752:	230e      	movs	r3, #14
    ret = wc_HashInit(NULL, WC_HASH_TYPE_SHA256);
 8001754:	4620      	mov	r0, r4
    enum wc_HashType typesNoImpl[] = {
 8001756:	71fc      	strb	r4, [r7, #7]
    enum wc_HashType typesBad[]  = { WC_HASH_TYPE_NONE, WC_HASH_TYPE_MD5_SHA,
 8001758:	f88d 400c 	strb.w	r4, [sp, #12]
 800175c:	f88d 200e 	strb.w	r2, [sp, #14]
    enum wc_HashType typesHashBad[] = { WC_HASH_TYPE_MD2, WC_HASH_TYPE_MD4,
 8001760:	f88d 2010 	strb.w	r2, [sp, #16]
 8001764:	f88d 3012 	strb.w	r3, [sp, #18]
 8001768:	f88d 4013 	strb.w	r4, [sp, #19]
    ret = wc_HashInit(NULL, WC_HASH_TYPE_SHA256);
 800176c:	f016 f87e 	bl	801786c <wc_HashInit>
    if (ret != BAD_FUNC_ARG)
 8001770:	f110 0fad 	cmn.w	r0, #173	; 0xad
 8001774:	d009      	beq.n	800178a <hash_test+0x9e>
        return WC_TEST_RET_ENC_EC(ret);
 8001776:	4240      	negs	r0, r0
 8001778:	f3c0 030a 	ubfx	r3, r0, #0, #11
 800177c:	4a8a      	ldr	r2, [pc, #552]	; (80019a8 <hash_test+0x2bc>)
 800177e:	488b      	ldr	r0, [pc, #556]	; (80019ac <hash_test+0x2c0>)
        return WC_TEST_RET_ENC_EC(ret);
 8001780:	fb02 0003 	mla	r0, r2, r3, r0
}
 8001784:	b06d      	add	sp, #436	; 0x1b4
 8001786:	e8bd 8ff0 	ldmia.w	sp!, {r4, r5, r6, r7, r8, r9, sl, fp, pc}
    ret = wc_HashUpdate(NULL, WC_HASH_TYPE_SHA256, NULL, sizeof(data));
 800178a:	2328      	movs	r3, #40	; 0x28
 800178c:	4622      	mov	r2, r4
 800178e:	2106      	movs	r1, #6
 8001790:	4620      	mov	r0, r4
 8001792:	f016 f870 	bl	8017876 <wc_HashUpdate>
    if (ret != BAD_FUNC_ARG)
 8001796:	f110 0fad 	cmn.w	r0, #173	; 0xad
 800179a:	d005      	beq.n	80017a8 <hash_test+0xbc>
        return WC_TEST_RET_ENC_EC(ret);
 800179c:	4240      	negs	r0, r0
 800179e:	f3c0 030a 	ubfx	r3, r0, #0, #11
 80017a2:	4a81      	ldr	r2, [pc, #516]	; (80019a8 <hash_test+0x2bc>)
 80017a4:	4882      	ldr	r0, [pc, #520]	; (80019b0 <hash_test+0x2c4>)
 80017a6:	e7eb      	b.n	8001780 <hash_test+0x94>
    ret = wc_HashUpdate(&hash, WC_HASH_TYPE_SHA256, NULL, sizeof(data));
 80017a8:	f10d 0bd0 	add.w	fp, sp, #208	; 0xd0
 80017ac:	2328      	movs	r3, #40	; 0x28
 80017ae:	4622      	mov	r2, r4
 80017b0:	2106      	movs	r1, #6
 80017b2:	4658      	mov	r0, fp
 80017b4:	f016 f85f 	bl	8017876 <wc_HashUpdate>
    if (ret != BAD_FUNC_ARG)
 80017b8:	f110 0fad 	cmn.w	r0, #173	; 0xad
 80017bc:	d005      	beq.n	80017ca <hash_test+0xde>
        return WC_TEST_RET_ENC_EC(ret);
 80017be:	4240      	negs	r0, r0
 80017c0:	f3c0 030a 	ubfx	r3, r0, #0, #11
 80017c4:	4a78      	ldr	r2, [pc, #480]	; (80019a8 <hash_test+0x2bc>)
 80017c6:	487b      	ldr	r0, [pc, #492]	; (80019b4 <hash_test+0x2c8>)
 80017c8:	e7da      	b.n	8001780 <hash_test+0x94>
    ret = wc_HashUpdate(NULL, WC_HASH_TYPE_SHA256, data, sizeof(data));
 80017ca:	2328      	movs	r3, #40	; 0x28
 80017cc:	eb0d 0203 	add.w	r2, sp, r3
 80017d0:	2106      	movs	r1, #6
 80017d2:	4620      	mov	r0, r4
 80017d4:	f016 f84f 	bl	8017876 <wc_HashUpdate>
    if (ret != BAD_FUNC_ARG)
 80017d8:	f110 0fad 	cmn.w	r0, #173	; 0xad
 80017dc:	d009      	beq.n	80017f2 <hash_test+0x106>
        return WC_TEST_RET_ENC_EC(ret);
 80017de:	4b72      	ldr	r3, [pc, #456]	; (80019a8 <hash_test+0x2bc>)
 80017e0:	4240      	negs	r0, r0
 80017e2:	f3c0 000a 	ubfx	r0, r0, #0, #11
 80017e6:	4358      	muls	r0, r3
 80017e8:	f100 4060 	add.w	r0, r0, #3758096384	; 0xe0000000
 80017ec:	f5a0 50a1 	sub.w	r0, r0, #5152	; 0x1420
 80017f0:	e7c8      	b.n	8001784 <hash_test+0x98>
    ret = wc_HashFinal(NULL, WC_HASH_TYPE_SHA256, NULL);
 80017f2:	4622      	mov	r2, r4
 80017f4:	2106      	movs	r1, #6
 80017f6:	4620      	mov	r0, r4
 80017f8:	f016 f867 	bl	80178ca <wc_HashFinal>
    if (ret != BAD_FUNC_ARG)
 80017fc:	f110 0fad 	cmn.w	r0, #173	; 0xad
 8001800:	d005      	beq.n	800180e <hash_test+0x122>
        return WC_TEST_RET_ENC_EC(ret);
 8001802:	4240      	negs	r0, r0
 8001804:	f3c0 030a 	ubfx	r3, r0, #0, #11
 8001808:	4a67      	ldr	r2, [pc, #412]	; (80019a8 <hash_test+0x2bc>)
 800180a:	486b      	ldr	r0, [pc, #428]	; (80019b8 <hash_test+0x2cc>)
 800180c:	e7b8      	b.n	8001780 <hash_test+0x94>
    ret = wc_HashFinal(&hash, WC_HASH_TYPE_SHA256, NULL);
 800180e:	4622      	mov	r2, r4
 8001810:	2106      	movs	r1, #6
 8001812:	4658      	mov	r0, fp
 8001814:	f016 f859 	bl	80178ca <wc_HashFinal>
    if (ret != BAD_FUNC_ARG)
 8001818:	f110 0fad 	cmn.w	r0, #173	; 0xad
 800181c:	d005      	beq.n	800182a <hash_test+0x13e>
        return WC_TEST_RET_ENC_EC(ret);
 800181e:	4240      	negs	r0, r0
 8001820:	f3c0 030a 	ubfx	r3, r0, #0, #11
 8001824:	4a60      	ldr	r2, [pc, #384]	; (80019a8 <hash_test+0x2bc>)
 8001826:	4865      	ldr	r0, [pc, #404]	; (80019bc <hash_test+0x2d0>)
 8001828:	e7aa      	b.n	8001780 <hash_test+0x94>
    ret = wc_HashFinal(NULL, WC_HASH_TYPE_SHA256, out);
 800182a:	aa14      	add	r2, sp, #80	; 0x50
 800182c:	2106      	movs	r1, #6
 800182e:	4620      	mov	r0, r4
 8001830:	f016 f84b 	bl	80178ca <wc_HashFinal>
    if (ret != BAD_FUNC_ARG)
 8001834:	f110 0fad 	cmn.w	r0, #173	; 0xad
 8001838:	d005      	beq.n	8001846 <hash_test+0x15a>
        return WC_TEST_RET_ENC_EC(ret);
 800183a:	4240      	negs	r0, r0
 800183c:	f3c0 030a 	ubfx	r3, r0, #0, #11
 8001840:	4a59      	ldr	r2, [pc, #356]	; (80019a8 <hash_test+0x2bc>)
 8001842:	485f      	ldr	r0, [pc, #380]	; (80019c0 <hash_test+0x2d4>)
 8001844:	e79c      	b.n	8001780 <hash_test+0x94>
 8001846:	ae03      	add	r6, sp, #12
        ret = wc_HashInit(&hash, typesBad[i]);
 8001848:	f816 8b01 	ldrb.w	r8, [r6], #1
 800184c:	4658      	mov	r0, fp
 800184e:	4641      	mov	r1, r8
 8001850:	f016 f80c 	bl	801786c <wc_HashInit>
        if (ret != BAD_FUNC_ARG)
 8001854:	30ad      	adds	r0, #173	; 0xad
 8001856:	d004      	beq.n	8001862 <hash_test+0x176>
            return WC_TEST_RET_ENC_I(i);
 8001858:	4b53      	ldr	r3, [pc, #332]	; (80019a8 <hash_test+0x2bc>)
 800185a:	485a      	ldr	r0, [pc, #360]	; (80019c4 <hash_test+0x2d8>)
            return WC_TEST_RET_ENC_I(i);
 800185c:	fb03 0004 	mla	r0, r3, r4, r0
 8001860:	e790      	b.n	8001784 <hash_test+0x98>
        ret = wc_HashUpdate(&hash, typesBad[i], data, sizeof(data));
 8001862:	2328      	movs	r3, #40	; 0x28
 8001864:	eb0d 0203 	add.w	r2, sp, r3
 8001868:	4641      	mov	r1, r8
 800186a:	4658      	mov	r0, fp
 800186c:	f016 f803 	bl	8017876 <wc_HashUpdate>
        if (ret != BAD_FUNC_ARG)
 8001870:	30ad      	adds	r0, #173	; 0xad
 8001872:	d002      	beq.n	800187a <hash_test+0x18e>
            return WC_TEST_RET_ENC_I(i);
 8001874:	4b4c      	ldr	r3, [pc, #304]	; (80019a8 <hash_test+0x2bc>)
 8001876:	4854      	ldr	r0, [pc, #336]	; (80019c8 <hash_test+0x2dc>)
 8001878:	e7f0      	b.n	800185c <hash_test+0x170>
        ret = wc_HashFinal(&hash, typesBad[i], out);
 800187a:	aa14      	add	r2, sp, #80	; 0x50
 800187c:	4641      	mov	r1, r8
 800187e:	4658      	mov	r0, fp
 8001880:	f016 f823 	bl	80178ca <wc_HashFinal>
        if (ret != BAD_FUNC_ARG)
 8001884:	30ad      	adds	r0, #173	; 0xad
 8001886:	d002      	beq.n	800188e <hash_test+0x1a2>
            return WC_TEST_RET_ENC_I(i);
 8001888:	4b47      	ldr	r3, [pc, #284]	; (80019a8 <hash_test+0x2bc>)
 800188a:	4850      	ldr	r0, [pc, #320]	; (80019cc <hash_test+0x2e0>)
 800188c:	e7e6      	b.n	800185c <hash_test+0x170>
        wc_HashFree(&hash, typesBad[i]);
 800188e:	4641      	mov	r1, r8
 8001890:	4658      	mov	r0, fp
    for (i = 0; i < (int)(sizeof(typesBad)/sizeof(*typesBad)); i++) {
 8001892:	3401      	adds	r4, #1
        wc_HashFree(&hash, typesBad[i]);
 8001894:	f016 f83a 	bl	801790c <wc_HashFree>
    for (i = 0; i < (int)(sizeof(typesBad)/sizeof(*typesBad)); i++) {
 8001898:	2c04      	cmp	r4, #4
 800189a:	d1d5      	bne.n	8001848 <hash_test+0x15c>
    for (i = 0, j = 0; i < (int)(sizeof(typesGood)/sizeof(*typesGood)); i++) {
 800189c:	f04f 0a00 	mov.w	sl, #0
 80018a0:	f10d 091c 	add.w	r9, sp, #28
 80018a4:	4654      	mov	r4, sl
        if (typesGood[i] == typesNoImpl[j]) {
 80018a6:	f819 8b01 	ldrb.w	r8, [r9], #1
 80018aa:	f817 300a 	ldrb.w	r3, [r7, sl]
        ret = wc_HashInit(&hash, typesGood[i]);
 80018ae:	4641      	mov	r1, r8
        if (typesGood[i] == typesNoImpl[j]) {
 80018b0:	4543      	cmp	r3, r8
        ret = wc_HashInit(&hash, typesGood[i]);
 80018b2:	4658      	mov	r0, fp
            j++;
 80018b4:	bf06      	itte	eq
 80018b6:	f10a 0a01 	addeq.w	sl, sl, #1
            exp_ret = HASH_TYPE_E;
 80018ba:	f06f 06e7 	mvneq.w	r6, #231	; 0xe7
        exp_ret = 0;
 80018be:	2600      	movne	r6, #0
        ret = wc_HashInit(&hash, typesGood[i]);
 80018c0:	f015 ffd4 	bl	801786c <wc_HashInit>
        if (ret != exp_ret)
 80018c4:	4286      	cmp	r6, r0
 80018c6:	d002      	beq.n	80018ce <hash_test+0x1e2>
            return WC_TEST_RET_ENC_I(i);
 80018c8:	4b37      	ldr	r3, [pc, #220]	; (80019a8 <hash_test+0x2bc>)
 80018ca:	4841      	ldr	r0, [pc, #260]	; (80019d0 <hash_test+0x2e4>)
 80018cc:	e7c6      	b.n	800185c <hash_test+0x170>
        ret = wc_HashUpdate(&hash, typesGood[i], data, sizeof(data));
 80018ce:	2328      	movs	r3, #40	; 0x28
 80018d0:	eb0d 0203 	add.w	r2, sp, r3
 80018d4:	4641      	mov	r1, r8
 80018d6:	4658      	mov	r0, fp
 80018d8:	f015 ffcd 	bl	8017876 <wc_HashUpdate>
        if (ret != exp_ret)
 80018dc:	4286      	cmp	r6, r0
 80018de:	d002      	beq.n	80018e6 <hash_test+0x1fa>
            return WC_TEST_RET_ENC_I(i);
 80018e0:	4b31      	ldr	r3, [pc, #196]	; (80019a8 <hash_test+0x2bc>)
 80018e2:	483c      	ldr	r0, [pc, #240]	; (80019d4 <hash_test+0x2e8>)
 80018e4:	e7ba      	b.n	800185c <hash_test+0x170>
        ret = wc_HashFinal(&hash, typesGood[i], out);
 80018e6:	aa14      	add	r2, sp, #80	; 0x50
 80018e8:	4641      	mov	r1, r8
 80018ea:	4658      	mov	r0, fp
 80018ec:	f015 ffed 	bl	80178ca <wc_HashFinal>
        if (ret != exp_ret)
 80018f0:	4286      	cmp	r6, r0
 80018f2:	d002      	beq.n	80018fa <hash_test+0x20e>
            return WC_TEST_RET_ENC_I(i);
 80018f4:	4b2c      	ldr	r3, [pc, #176]	; (80019a8 <hash_test+0x2bc>)
 80018f6:	4838      	ldr	r0, [pc, #224]	; (80019d8 <hash_test+0x2ec>)
 80018f8:	e7b0      	b.n	800185c <hash_test+0x170>
        wc_HashFree(&hash, typesGood[i]);
 80018fa:	4641      	mov	r1, r8
 80018fc:	4658      	mov	r0, fp
 80018fe:	f016 f805 	bl	801790c <wc_HashFree>
        digestSz = wc_HashGetDigestSize(typesGood[i]);
 8001902:	4640      	mov	r0, r8
 8001904:	f015 ff72 	bl	80177ec <wc_HashGetDigestSize>
 8001908:	4605      	mov	r5, r0
        if (exp_ret < 0 && digestSz != exp_ret)
 800190a:	b126      	cbz	r6, 8001916 <hash_test+0x22a>
 800190c:	4286      	cmp	r6, r0
 800190e:	d015      	beq.n	800193c <hash_test+0x250>
            return WC_TEST_RET_ENC_I(i);
 8001910:	4b25      	ldr	r3, [pc, #148]	; (80019a8 <hash_test+0x2bc>)
 8001912:	4832      	ldr	r0, [pc, #200]	; (80019dc <hash_test+0x2f0>)
 8001914:	e7a2      	b.n	800185c <hash_test+0x170>
        if (exp_ret == 0 && digestSz < 0)
 8001916:	2800      	cmp	r0, #0
 8001918:	da02      	bge.n	8001920 <hash_test+0x234>
            return WC_TEST_RET_ENC_I(i);
 800191a:	4b23      	ldr	r3, [pc, #140]	; (80019a8 <hash_test+0x2bc>)
 800191c:	4830      	ldr	r0, [pc, #192]	; (80019e0 <hash_test+0x2f4>)
 800191e:	e79d      	b.n	800185c <hash_test+0x170>
                                                                  digestSz - 1);
 8001920:	1e43      	subs	r3, r0, #1
            ret = wc_Hash(typesGood[i], data, sizeof(data), hashOut,
 8001922:	2228      	movs	r2, #40	; 0x28
 8001924:	9300      	str	r3, [sp, #0]
 8001926:	eb0d 0102 	add.w	r1, sp, r2
 800192a:	ab24      	add	r3, sp, #144	; 0x90
 800192c:	4640      	mov	r0, r8
 800192e:	f016 f8d6 	bl	8017ade <wc_Hash>
            if (ret != BUFFER_E)
 8001932:	3084      	adds	r0, #132	; 0x84
 8001934:	d002      	beq.n	800193c <hash_test+0x250>
                return WC_TEST_RET_ENC_I(i);
 8001936:	4b1c      	ldr	r3, [pc, #112]	; (80019a8 <hash_test+0x2bc>)
 8001938:	482a      	ldr	r0, [pc, #168]	; (80019e4 <hash_test+0x2f8>)
 800193a:	e78f      	b.n	800185c <hash_test+0x170>
        ret = wc_Hash(typesGood[i], data, sizeof(data), hashOut, digestSz);
 800193c:	2228      	movs	r2, #40	; 0x28
 800193e:	9500      	str	r5, [sp, #0]
 8001940:	ab24      	add	r3, sp, #144	; 0x90
 8001942:	eb0d 0102 	add.w	r1, sp, r2
 8001946:	4640      	mov	r0, r8
 8001948:	f016 f8c9 	bl	8017ade <wc_Hash>
        if (ret != exp_ret)
 800194c:	4286      	cmp	r6, r0
 800194e:	d002      	beq.n	8001956 <hash_test+0x26a>
            return WC_TEST_RET_ENC_I(i);
 8001950:	4b15      	ldr	r3, [pc, #84]	; (80019a8 <hash_test+0x2bc>)
 8001952:	4825      	ldr	r0, [pc, #148]	; (80019e8 <hash_test+0x2fc>)
 8001954:	e782      	b.n	800185c <hash_test+0x170>
        if (exp_ret == 0 && XMEMCMP(out, hashOut, digestSz) != 0)
 8001956:	b946      	cbnz	r6, 800196a <hash_test+0x27e>
 8001958:	462a      	mov	r2, r5
 800195a:	a924      	add	r1, sp, #144	; 0x90
 800195c:	a814      	add	r0, sp, #80	; 0x50
 800195e:	f019 fb2f 	bl	801afc0 <memcmp>
 8001962:	b110      	cbz	r0, 800196a <hash_test+0x27e>
            return WC_TEST_RET_ENC_I(i);
 8001964:	4b10      	ldr	r3, [pc, #64]	; (80019a8 <hash_test+0x2bc>)
 8001966:	4821      	ldr	r0, [pc, #132]	; (80019ec <hash_test+0x300>)
 8001968:	e778      	b.n	800185c <hash_test+0x170>
        ret = wc_HashGetBlockSize(typesGood[i]);
 800196a:	4640      	mov	r0, r8
 800196c:	f015 ff4a 	bl	8017804 <wc_HashGetBlockSize>
        if (exp_ret < 0 && ret != exp_ret)
 8001970:	b126      	cbz	r6, 800197c <hash_test+0x290>
 8001972:	4286      	cmp	r6, r0
 8001974:	d007      	beq.n	8001986 <hash_test+0x29a>
            return WC_TEST_RET_ENC_I(i);
 8001976:	4b0c      	ldr	r3, [pc, #48]	; (80019a8 <hash_test+0x2bc>)
 8001978:	481d      	ldr	r0, [pc, #116]	; (80019f0 <hash_test+0x304>)
 800197a:	e76f      	b.n	800185c <hash_test+0x170>
        if (exp_ret == 0 && ret < 0)
 800197c:	2800      	cmp	r0, #0
 800197e:	da02      	bge.n	8001986 <hash_test+0x29a>
            return WC_TEST_RET_ENC_I(i);
 8001980:	4b09      	ldr	r3, [pc, #36]	; (80019a8 <hash_test+0x2bc>)
 8001982:	481c      	ldr	r0, [pc, #112]	; (80019f4 <hash_test+0x308>)
 8001984:	e76a      	b.n	800185c <hash_test+0x170>
        ret = wc_HashGetOID(typesGood[i]);
 8001986:	4640      	mov	r0, r8
 8001988:	f015 ff14 	bl	80177b4 <wc_HashGetOID>
        if (ret == BAD_FUNC_ARG ||
 800198c:	f110 0fad 	cmn.w	r0, #173	; 0xad
 8001990:	d003      	beq.n	800199a <hash_test+0x2ae>
 8001992:	bb9e      	cbnz	r6, 80019fc <hash_test+0x310>
                (exp_ret == 0 && ret == HASH_TYPE_E) ||
 8001994:	f110 0fe8 	cmn.w	r0, #232	; 0xe8
 8001998:	d133      	bne.n	8001a02 <hash_test+0x316>
            return WC_TEST_RET_ENC_I(i);
 800199a:	4b03      	ldr	r3, [pc, #12]	; (80019a8 <hash_test+0x2bc>)
 800199c:	4816      	ldr	r0, [pc, #88]	; (80019f8 <hash_test+0x30c>)
 800199e:	e75d      	b.n	800185c <hash_test+0x170>
 80019a0:	0801e0a9 	.word	0x0801e0a9
 80019a4:	0801bd78 	.word	0x0801bd78
 80019a8:	fffe7960 	.word	0xfffe7960
 80019ac:	dfffebe9 	.word	0xdfffebe9
 80019b0:	dfffebe6 	.word	0xdfffebe6
 80019b4:	dfffebe3 	.word	0xdfffebe3
 80019b8:	dfffebdd 	.word	0xdfffebdd
 80019bc:	dfffebda 	.word	0xdfffebda
 80019c0:	dfffebd7 	.word	0xdfffebd7
 80019c4:	9fffebd1 	.word	0x9fffebd1
 80019c8:	9fffebce 	.word	0x9fffebce
 80019cc:	9fffebcb 	.word	0x9fffebcb
 80019d0:	9fffebbd 	.word	0x9fffebbd
 80019d4:	9fffebba 	.word	0x9fffebba
 80019d8:	9fffebb7 	.word	0x9fffebb7
 80019dc:	9fffebb2 	.word	0x9fffebb2
 80019e0:	9fffebb0 	.word	0x9fffebb0
 80019e4:	9fffebab 	.word	0x9fffebab
 80019e8:	9fffeba7 	.word	0x9fffeba7
 80019ec:	9fffeba5 	.word	0x9fffeba5
 80019f0:	9fffeba1 	.word	0x9fffeba1
 80019f4:	9fffeb9f 	.word	0x9fffeb9f
 80019f8:	9fffeb98 	.word	0x9fffeb98
                (exp_ret != 0 && ret != HASH_TYPE_E)) {
 80019fc:	f110 0fe8 	cmn.w	r0, #232	; 0xe8
 8001a00:	d1cb      	bne.n	800199a <hash_test+0x2ae>
        hashType = wc_OidGetHash(ret);
 8001a02:	f015 fee3 	bl	80177cc <wc_OidGetHash>
        if (exp_ret == 0 && hashType != typesGood[i])
 8001a06:	b926      	cbnz	r6, 8001a12 <hash_test+0x326>
 8001a08:	4580      	cmp	r8, r0
 8001a0a:	d002      	beq.n	8001a12 <hash_test+0x326>
            return WC_TEST_RET_ENC_I(i);
 8001a0c:	4b78      	ldr	r3, [pc, #480]	; (8001bf0 <hash_test+0x504>)
 8001a0e:	4879      	ldr	r0, [pc, #484]	; (8001bf4 <hash_test+0x508>)
 8001a10:	e724      	b.n	800185c <hash_test+0x170>
    for (i = 0, j = 0; i < (int)(sizeof(typesGood)/sizeof(*typesGood)); i++) {
 8001a12:	3401      	adds	r4, #1
 8001a14:	2c0a      	cmp	r4, #10
 8001a16:	f47f af46 	bne.w	80018a6 <hash_test+0x1ba>
 8001a1a:	ac04      	add	r4, sp, #16
    for (i = 0; i < (int)(sizeof(typesHashBad)/sizeof(*typesHashBad)); i++) {
 8001a1c:	2500      	movs	r5, #0
        ret = wc_Hash(typesHashBad[i], data, sizeof(data), out, sizeof(out));
 8001a1e:	2640      	movs	r6, #64	; 0x40
 8001a20:	9600      	str	r6, [sp, #0]
 8001a22:	2228      	movs	r2, #40	; 0x28
 8001a24:	f814 0b01 	ldrb.w	r0, [r4], #1
 8001a28:	ab14      	add	r3, sp, #80	; 0x50
 8001a2a:	eb0d 0102 	add.w	r1, sp, r2
 8001a2e:	f016 f856 	bl	8017ade <wc_Hash>
        if ((ret != BAD_FUNC_ARG) && (ret != BUFFER_E) && (ret != HASH_TYPE_E))
 8001a32:	f110 0fad 	cmn.w	r0, #173	; 0xad
 8001a36:	d009      	beq.n	8001a4c <hash_test+0x360>
 8001a38:	f110 0f84 	cmn.w	r0, #132	; 0x84
 8001a3c:	d006      	beq.n	8001a4c <hash_test+0x360>
 8001a3e:	30e8      	adds	r0, #232	; 0xe8
 8001a40:	d004      	beq.n	8001a4c <hash_test+0x360>
            return WC_TEST_RET_ENC_I(i);
 8001a42:	4b6b      	ldr	r3, [pc, #428]	; (8001bf0 <hash_test+0x504>)
 8001a44:	486c      	ldr	r0, [pc, #432]	; (8001bf8 <hash_test+0x50c>)
 8001a46:	fb03 0005 	mla	r0, r3, r5, r0
 8001a4a:	e69b      	b.n	8001784 <hash_test+0x98>
    for (i = 0; i < (int)(sizeof(typesHashBad)/sizeof(*typesHashBad)); i++) {
 8001a4c:	3501      	adds	r5, #1
 8001a4e:	2d04      	cmp	r5, #4
 8001a50:	d1e6      	bne.n	8001a20 <hash_test+0x334>
    ret = wc_HashGetOID(WC_HASH_TYPE_MD2);
 8001a52:	2001      	movs	r0, #1
 8001a54:	f015 feae 	bl	80177b4 <wc_HashGetOID>
    if (ret != HASH_TYPE_E)
 8001a58:	f110 0fe8 	cmn.w	r0, #232	; 0xe8
 8001a5c:	d005      	beq.n	8001a6a <hash_test+0x37e>
        return WC_TEST_RET_ENC_EC(ret);
 8001a5e:	4240      	negs	r0, r0
 8001a60:	f3c0 030a 	ubfx	r3, r0, #0, #11
 8001a64:	4a62      	ldr	r2, [pc, #392]	; (8001bf0 <hash_test+0x504>)
 8001a66:	4865      	ldr	r0, [pc, #404]	; (8001bfc <hash_test+0x510>)
 8001a68:	e68a      	b.n	8001780 <hash_test+0x94>
    hashType = wc_OidGetHash(646); /* Md2h */
 8001a6a:	f240 2086 	movw	r0, #646	; 0x286
 8001a6e:	f015 fead 	bl	80177cc <wc_OidGetHash>
    if (hashType != WC_HASH_TYPE_NONE)
 8001a72:	4604      	mov	r4, r0
 8001a74:	2800      	cmp	r0, #0
 8001a76:	f040 80b1 	bne.w	8001bdc <hash_test+0x4f0>
    ret = wc_HashGetOID(WC_HASH_TYPE_MD5_SHA);
 8001a7a:	2009      	movs	r0, #9
 8001a7c:	f015 fe9a 	bl	80177b4 <wc_HashGetOID>
    if (ret != HASH_TYPE_E)
 8001a80:	f110 0fe8 	cmn.w	r0, #232	; 0xe8
 8001a84:	d005      	beq.n	8001a92 <hash_test+0x3a6>
        return WC_TEST_RET_ENC_EC(ret);
 8001a86:	4240      	negs	r0, r0
 8001a88:	f3c0 030a 	ubfx	r3, r0, #0, #11
 8001a8c:	4a58      	ldr	r2, [pc, #352]	; (8001bf0 <hash_test+0x504>)
 8001a8e:	485c      	ldr	r0, [pc, #368]	; (8001c00 <hash_test+0x514>)
 8001a90:	e676      	b.n	8001780 <hash_test+0x94>
    ret = wc_HashGetOID(WC_HASH_TYPE_MD4);
 8001a92:	2002      	movs	r0, #2
 8001a94:	f015 fe8e 	bl	80177b4 <wc_HashGetOID>
    if (ret != BAD_FUNC_ARG)
 8001a98:	f110 0fad 	cmn.w	r0, #173	; 0xad
 8001a9c:	d005      	beq.n	8001aaa <hash_test+0x3be>
        return WC_TEST_RET_ENC_EC(ret);
 8001a9e:	4240      	negs	r0, r0
 8001aa0:	f3c0 030a 	ubfx	r3, r0, #0, #11
 8001aa4:	4a52      	ldr	r2, [pc, #328]	; (8001bf0 <hash_test+0x504>)
 8001aa6:	4857      	ldr	r0, [pc, #348]	; (8001c04 <hash_test+0x518>)
 8001aa8:	e66a      	b.n	8001780 <hash_test+0x94>
    ret = wc_HashGetOID(WC_HASH_TYPE_NONE);
 8001aaa:	4620      	mov	r0, r4
 8001aac:	f015 fe82 	bl	80177b4 <wc_HashGetOID>
    if (ret != BAD_FUNC_ARG)
 8001ab0:	f110 0fad 	cmn.w	r0, #173	; 0xad
 8001ab4:	d005      	beq.n	8001ac2 <hash_test+0x3d6>
        return WC_TEST_RET_ENC_EC(ret);
 8001ab6:	4240      	negs	r0, r0
 8001ab8:	f3c0 030a 	ubfx	r3, r0, #0, #11
 8001abc:	4a4c      	ldr	r2, [pc, #304]	; (8001bf0 <hash_test+0x504>)
 8001abe:	4852      	ldr	r0, [pc, #328]	; (8001c08 <hash_test+0x51c>)
 8001ac0:	e65e      	b.n	8001780 <hash_test+0x94>
    hashType = wc_OidGetHash(0);
 8001ac2:	4620      	mov	r0, r4
 8001ac4:	f015 fe82 	bl	80177cc <wc_OidGetHash>
    if (hashType != WC_HASH_TYPE_NONE)
 8001ac8:	2800      	cmp	r0, #0
 8001aca:	f040 8089 	bne.w	8001be0 <hash_test+0x4f4>
    ret = wc_HashGetBlockSize(WC_HASH_TYPE_MD2);
 8001ace:	2001      	movs	r0, #1
 8001ad0:	f015 fe98 	bl	8017804 <wc_HashGetBlockSize>
    if (ret != HASH_TYPE_E)
 8001ad4:	f110 0fe8 	cmn.w	r0, #232	; 0xe8
 8001ad8:	d005      	beq.n	8001ae6 <hash_test+0x3fa>
        return WC_TEST_RET_ENC_EC(ret);
 8001ada:	4240      	negs	r0, r0
 8001adc:	f3c0 030a 	ubfx	r3, r0, #0, #11
 8001ae0:	4a43      	ldr	r2, [pc, #268]	; (8001bf0 <hash_test+0x504>)
 8001ae2:	484a      	ldr	r0, [pc, #296]	; (8001c0c <hash_test+0x520>)
 8001ae4:	e64c      	b.n	8001780 <hash_test+0x94>
    ret = wc_HashGetDigestSize(WC_HASH_TYPE_MD2);
 8001ae6:	2001      	movs	r0, #1
 8001ae8:	f015 fe80 	bl	80177ec <wc_HashGetDigestSize>
    if (ret != HASH_TYPE_E)
 8001aec:	f110 0fe8 	cmn.w	r0, #232	; 0xe8
 8001af0:	d005      	beq.n	8001afe <hash_test+0x412>
        return WC_TEST_RET_ENC_EC(ret);
 8001af2:	4240      	negs	r0, r0
 8001af4:	f3c0 030a 	ubfx	r3, r0, #0, #11
 8001af8:	4a3d      	ldr	r2, [pc, #244]	; (8001bf0 <hash_test+0x504>)
 8001afa:	4845      	ldr	r0, [pc, #276]	; (8001c10 <hash_test+0x524>)
 8001afc:	e640      	b.n	8001780 <hash_test+0x94>
    ret = wc_HashGetBlockSize(WC_HASH_TYPE_MD4);
 8001afe:	2002      	movs	r0, #2
 8001b00:	f015 fe80 	bl	8017804 <wc_HashGetBlockSize>
    if (ret != HASH_TYPE_E)
 8001b04:	f110 0fe8 	cmn.w	r0, #232	; 0xe8
 8001b08:	d005      	beq.n	8001b16 <hash_test+0x42a>
        return WC_TEST_RET_ENC_EC(ret);
 8001b0a:	4240      	negs	r0, r0
 8001b0c:	f3c0 030a 	ubfx	r3, r0, #0, #11
 8001b10:	4a37      	ldr	r2, [pc, #220]	; (8001bf0 <hash_test+0x504>)
 8001b12:	4840      	ldr	r0, [pc, #256]	; (8001c14 <hash_test+0x528>)
 8001b14:	e634      	b.n	8001780 <hash_test+0x94>
    ret = wc_HashGetDigestSize(WC_HASH_TYPE_MD4);
 8001b16:	2002      	movs	r0, #2
 8001b18:	f015 fe68 	bl	80177ec <wc_HashGetDigestSize>
    if (ret != HASH_TYPE_E)
 8001b1c:	f110 0fe8 	cmn.w	r0, #232	; 0xe8
 8001b20:	d005      	beq.n	8001b2e <hash_test+0x442>
        return WC_TEST_RET_ENC_EC(ret);
 8001b22:	4240      	negs	r0, r0
 8001b24:	f3c0 030a 	ubfx	r3, r0, #0, #11
 8001b28:	4a31      	ldr	r2, [pc, #196]	; (8001bf0 <hash_test+0x504>)
 8001b2a:	483b      	ldr	r0, [pc, #236]	; (8001c18 <hash_test+0x52c>)
 8001b2c:	e628      	b.n	8001780 <hash_test+0x94>
    ret = wc_HashGetBlockSize(WC_HASH_TYPE_MD5_SHA);
 8001b2e:	2009      	movs	r0, #9
 8001b30:	f015 fe68 	bl	8017804 <wc_HashGetBlockSize>
    if (ret != HASH_TYPE_E)
 8001b34:	f110 0fe8 	cmn.w	r0, #232	; 0xe8
 8001b38:	d005      	beq.n	8001b46 <hash_test+0x45a>
        return WC_TEST_RET_ENC_EC(ret);
 8001b3a:	4240      	negs	r0, r0
 8001b3c:	f3c0 030a 	ubfx	r3, r0, #0, #11
 8001b40:	4a2b      	ldr	r2, [pc, #172]	; (8001bf0 <hash_test+0x504>)
 8001b42:	4836      	ldr	r0, [pc, #216]	; (8001c1c <hash_test+0x530>)
 8001b44:	e61c      	b.n	8001780 <hash_test+0x94>
    ret = wc_HashGetBlockSize(WC_HASH_TYPE_BLAKE2B);
 8001b46:	200e      	movs	r0, #14
 8001b48:	f015 fe5c 	bl	8017804 <wc_HashGetBlockSize>
    if (ret != HASH_TYPE_E)
 8001b4c:	f110 0fe8 	cmn.w	r0, #232	; 0xe8
 8001b50:	d005      	beq.n	8001b5e <hash_test+0x472>
        return WC_TEST_RET_ENC_EC(ret);
 8001b52:	4240      	negs	r0, r0
 8001b54:	f3c0 030a 	ubfx	r3, r0, #0, #11
 8001b58:	4a25      	ldr	r2, [pc, #148]	; (8001bf0 <hash_test+0x504>)
 8001b5a:	4831      	ldr	r0, [pc, #196]	; (8001c20 <hash_test+0x534>)
 8001b5c:	e610      	b.n	8001780 <hash_test+0x94>
    ret = wc_HashGetDigestSize(WC_HASH_TYPE_BLAKE2B);
 8001b5e:	200e      	movs	r0, #14
 8001b60:	f015 fe44 	bl	80177ec <wc_HashGetDigestSize>
    if (ret != HASH_TYPE_E)
 8001b64:	f110 0fe8 	cmn.w	r0, #232	; 0xe8
 8001b68:	d005      	beq.n	8001b76 <hash_test+0x48a>
        return WC_TEST_RET_ENC_EC(ret);
 8001b6a:	4240      	negs	r0, r0
 8001b6c:	f3c0 030a 	ubfx	r3, r0, #0, #11
 8001b70:	4a1f      	ldr	r2, [pc, #124]	; (8001bf0 <hash_test+0x504>)
 8001b72:	482c      	ldr	r0, [pc, #176]	; (8001c24 <hash_test+0x538>)
 8001b74:	e604      	b.n	8001780 <hash_test+0x94>
    ret = wc_HashGetBlockSize(WC_HASH_TYPE_NONE);
 8001b76:	2000      	movs	r0, #0
 8001b78:	f015 fe44 	bl	8017804 <wc_HashGetBlockSize>
    if (ret != BAD_FUNC_ARG)
 8001b7c:	f110 0fad 	cmn.w	r0, #173	; 0xad
 8001b80:	d005      	beq.n	8001b8e <hash_test+0x4a2>
        return WC_TEST_RET_ENC_EC(ret);
 8001b82:	4240      	negs	r0, r0
 8001b84:	f3c0 030a 	ubfx	r3, r0, #0, #11
 8001b88:	4a19      	ldr	r2, [pc, #100]	; (8001bf0 <hash_test+0x504>)
 8001b8a:	4827      	ldr	r0, [pc, #156]	; (8001c28 <hash_test+0x53c>)
 8001b8c:	e5f8      	b.n	8001780 <hash_test+0x94>
    ret = wc_HashGetDigestSize(WC_HASH_TYPE_NONE);
 8001b8e:	2000      	movs	r0, #0
 8001b90:	f015 fe2c 	bl	80177ec <wc_HashGetDigestSize>
    if (ret != BAD_FUNC_ARG)
 8001b94:	f110 0fad 	cmn.w	r0, #173	; 0xad
 8001b98:	d005      	beq.n	8001ba6 <hash_test+0x4ba>
        return WC_TEST_RET_ENC_EC(ret);
 8001b9a:	4240      	negs	r0, r0
 8001b9c:	f3c0 030a 	ubfx	r3, r0, #0, #11
 8001ba0:	4a13      	ldr	r2, [pc, #76]	; (8001bf0 <hash_test+0x504>)
 8001ba2:	4822      	ldr	r0, [pc, #136]	; (8001c2c <hash_test+0x540>)
 8001ba4:	e5ec      	b.n	8001780 <hash_test+0x94>
    ret = wc_GetCTC_HashOID(WC_SHA);
 8001ba6:	2004      	movs	r0, #4
 8001ba8:	f00f faa4 	bl	80110f4 <wc_GetCTC_HashOID>
    if (ret == 0)
 8001bac:	b1d0      	cbz	r0, 8001be4 <hash_test+0x4f8>
    ret = wc_GetCTC_HashOID(WC_SHA256);
 8001bae:	2006      	movs	r0, #6
 8001bb0:	f00f faa0 	bl	80110f4 <wc_GetCTC_HashOID>
    if (ret == 0)
 8001bb4:	b1c0      	cbz	r0, 8001be8 <hash_test+0x4fc>
    ret = wc_GetCTC_HashOID(WC_SHA512);
 8001bb6:	2008      	movs	r0, #8
 8001bb8:	f00f fa9c 	bl	80110f4 <wc_GetCTC_HashOID>
    if (ret == 0)
 8001bbc:	b1b0      	cbz	r0, 8001bec <hash_test+0x500>
    ret = wc_GetCTC_HashOID(-1);
 8001bbe:	f04f 30ff 	mov.w	r0, #4294967295	; 0xffffffff
 8001bc2:	f00f fa97 	bl	80110f4 <wc_GetCTC_HashOID>
    if (ret != 0)
 8001bc6:	2800      	cmp	r0, #0
 8001bc8:	f43f addc 	beq.w	8001784 <hash_test+0x98>
        return WC_TEST_RET_ENC_EC(ret);
 8001bcc:	4a08      	ldr	r2, [pc, #32]	; (8001bf0 <hash_test+0x504>)
 8001bce:	4b18      	ldr	r3, [pc, #96]	; (8001c30 <hash_test+0x544>)
 8001bd0:	4240      	negs	r0, r0
 8001bd2:	f3c0 000a 	ubfx	r0, r0, #0, #11
 8001bd6:	fb02 3000 	mla	r0, r2, r0, r3
 8001bda:	e5d3      	b.n	8001784 <hash_test+0x98>
        return WC_TEST_RET_ENC_NC;
 8001bdc:	4815      	ldr	r0, [pc, #84]	; (8001c34 <hash_test+0x548>)
 8001bde:	e5d1      	b.n	8001784 <hash_test+0x98>
        return WC_TEST_RET_ENC_NC;
 8001be0:	4815      	ldr	r0, [pc, #84]	; (8001c38 <hash_test+0x54c>)
 8001be2:	e5cf      	b.n	8001784 <hash_test+0x98>
        return WC_TEST_RET_ENC_EC(ret);
 8001be4:	4815      	ldr	r0, [pc, #84]	; (8001c3c <hash_test+0x550>)
 8001be6:	e5cd      	b.n	8001784 <hash_test+0x98>
        return WC_TEST_RET_ENC_EC(ret);
 8001be8:	4815      	ldr	r0, [pc, #84]	; (8001c40 <hash_test+0x554>)
 8001bea:	e5cb      	b.n	8001784 <hash_test+0x98>
        return WC_TEST_RET_ENC_EC(ret);
 8001bec:	4815      	ldr	r0, [pc, #84]	; (8001c44 <hash_test+0x558>)
 8001bee:	e5c9      	b.n	8001784 <hash_test+0x98>
 8001bf0:	fffe7960 	.word	0xfffe7960
 8001bf4:	9fffeb93 	.word	0x9fffeb93
 8001bf8:	9fffeb8c 	.word	0x9fffeb8c
 8001bfc:	dfffeb82 	.word	0xdfffeb82
 8001c00:	dfffeb71 	.word	0xdfffeb71
 8001c04:	dfffeb6d 	.word	0xdfffeb6d
 8001c08:	dfffeb6a 	.word	0xdfffeb6a
 8001c0c:	dfffeb5d 	.word	0xdfffeb5d
 8001c10:	dfffeb55 	.word	0xdfffeb55
 8001c14:	dfffeb4c 	.word	0xdfffeb4c
 8001c18:	dfffeb44 	.word	0xdfffeb44
 8001c1c:	dfffeb3c 	.word	0xdfffeb3c
 8001c20:	dfffeb33 	.word	0xdfffeb33
 8001c24:	dfffeb2b 	.word	0xdfffeb2b
 8001c28:	dfffeb26 	.word	0xdfffeb26
 8001c2c:	dfffeb23 	.word	0xdfffeb23
 8001c30:	dfffeafb 	.word	0xdfffeafb
 8001c34:	ffffeb7a 	.word	0xffffeb7a
 8001c38:	ffffeb66 	.word	0xffffeb66
 8001c3c:	dfffeb13 	.word	0xdfffeb13
 8001c40:	dfffeb09 	.word	0xdfffeb09
 8001c44:	dfffeaff 	.word	0xdfffeaff

08001c48 <hmac_sha_test>:
{
 8001c48:	e92d 47f0 	stmdb	sp!, {r4, r5, r6, r7, r8, r9, sl, lr}
    const char* keys[]=
 8001c4c:	4c42      	ldr	r4, [pc, #264]	; (8001d58 <hmac_sha_test+0x110>)
    a.inLen  = XSTRLEN(a.input);
 8001c4e:	f8df a10c 	ldr.w	sl, [pc, #268]	; 8001d5c <hmac_sha_test+0x114>
    b.inLen  = XSTRLEN(b.input);
 8001c52:	f8df 910c 	ldr.w	r9, [pc, #268]	; 8001d60 <hmac_sha_test+0x118>
    c.inLen  = XSTRLEN(c.input);
 8001c56:	f8df 810c 	ldr.w	r8, [pc, #268]	; 8001d64 <hmac_sha_test+0x11c>
    const char* keys[]=
 8001c5a:	e894 0007 	ldmia.w	r4, {r0, r1, r2}
{
 8001c5e:	f5ad 7d1e 	sub.w	sp, sp, #632	; 0x278
    const char* keys[]=
 8001c62:	466f      	mov	r7, sp
 8001c64:	e887 0007 	stmia.w	r7, {r0, r1, r2}
    a.inLen  = XSTRLEN(a.input);
 8001c68:	4650      	mov	r0, sl
 8001c6a:	f019 fb3c 	bl	801b2e6 <strlen>
 8001c6e:	4606      	mov	r6, r0
    b.inLen  = XSTRLEN(b.input);
 8001c70:	4648      	mov	r0, r9
 8001c72:	f019 fb38 	bl	801b2e6 <strlen>
 8001c76:	4605      	mov	r5, r0
    c.inLen  = XSTRLEN(c.input);
 8001c78:	4640      	mov	r0, r8
 8001c7a:	f019 fb34 	bl	801b2e6 <strlen>
    test_hmac[1] = b;
 8001c7e:	4b3a      	ldr	r3, [pc, #232]	; (8001d68 <hmac_sha_test+0x120>)
    test_hmac[0] = a;
 8001c80:	f8cd a020 	str.w	sl, [sp, #32]
    test_hmac[1] = b;
 8001c84:	e9cd 350d 	strd	r3, r5, [sp, #52]	; 0x34
    test_hmac[2] = c;
 8001c88:	4b38      	ldr	r3, [pc, #224]	; (8001d6c <hmac_sha_test+0x124>)
    test_hmac[1] = b;
 8001c8a:	f8cd 9030 	str.w	r9, [sp, #48]	; 0x30
    test_hmac[2] = c;
 8001c8e:	e9cd 3011 	strd	r3, r0, [sp, #68]	; 0x44
    test_hmac[0] = a;
 8001c92:	340c      	adds	r4, #12
 8001c94:	e9cd 4609 	strd	r4, r6, [sp, #36]	; 0x24
    test_hmac[2] = c;
 8001c98:	f8cd 8040 	str.w	r8, [sp, #64]	; 0x40
 8001c9c:	ad08      	add	r5, sp, #32
    for (i = 0; i < times; ++i) {
 8001c9e:	2600      	movs	r6, #0
        if ((ret = wc_HmacInit(&hmac, HEAP_HINT, devId)) != 0)
 8001ca0:	f06f 0201 	mvn.w	r2, #1
 8001ca4:	2100      	movs	r1, #0
 8001ca6:	a814      	add	r0, sp, #80	; 0x50
 8001ca8:	f00a fc18 	bl	800c4dc <wc_HmacInit>
 8001cac:	b138      	cbz	r0, 8001cbe <hmac_sha_test+0x76>
            return WC_TEST_RET_ENC_EC(ret);
 8001cae:	4240      	negs	r0, r0
 8001cb0:	4b2f      	ldr	r3, [pc, #188]	; (8001d70 <hmac_sha_test+0x128>)
 8001cb2:	4c30      	ldr	r4, [pc, #192]	; (8001d74 <hmac_sha_test+0x12c>)
 8001cb4:	f3c0 000a 	ubfx	r0, r0, #0, #11
        return WC_TEST_RET_ENC_EC(ret);
 8001cb8:	fb03 4400 	mla	r4, r3, r0, r4
 8001cbc:	e033      	b.n	8001d26 <hmac_sha_test+0xde>
        ret = wc_HmacSetKey(&hmac, WC_SHA, (byte*)keys[i],
 8001cbe:	f857 4b04 	ldr.w	r4, [r7], #4
            (word32)XSTRLEN(keys[i]));
 8001cc2:	4620      	mov	r0, r4
 8001cc4:	f019 fb0f 	bl	801b2e6 <strlen>
        ret = wc_HmacSetKey(&hmac, WC_SHA, (byte*)keys[i],
 8001cc8:	4622      	mov	r2, r4
            (word32)XSTRLEN(keys[i]));
 8001cca:	4603      	mov	r3, r0
        ret = wc_HmacSetKey(&hmac, WC_SHA, (byte*)keys[i],
 8001ccc:	2104      	movs	r1, #4
 8001cce:	a814      	add	r0, sp, #80	; 0x50
 8001cd0:	f00a fc32 	bl	800c538 <wc_HmacSetKey>
        if (ret != 0)
 8001cd4:	b128      	cbz	r0, 8001ce2 <hmac_sha_test+0x9a>
            return WC_TEST_RET_ENC_EC(ret);
 8001cd6:	4240      	negs	r0, r0
 8001cd8:	4b25      	ldr	r3, [pc, #148]	; (8001d70 <hmac_sha_test+0x128>)
 8001cda:	4c27      	ldr	r4, [pc, #156]	; (8001d78 <hmac_sha_test+0x130>)
 8001cdc:	f3c0 000a 	ubfx	r0, r0, #0, #11
 8001ce0:	e7ea      	b.n	8001cb8 <hmac_sha_test+0x70>
        ret = wc_HmacUpdate(&hmac, (byte*)test_hmac[i].input,
 8001ce2:	68aa      	ldr	r2, [r5, #8]
 8001ce4:	6829      	ldr	r1, [r5, #0]
 8001ce6:	a814      	add	r0, sp, #80	; 0x50
 8001ce8:	f00a fb56 	bl	800c398 <wc_HmacUpdate>
        if (ret != 0)
 8001cec:	b128      	cbz	r0, 8001cfa <hmac_sha_test+0xb2>
            return WC_TEST_RET_ENC_EC(ret);
 8001cee:	4240      	negs	r0, r0
 8001cf0:	4b1f      	ldr	r3, [pc, #124]	; (8001d70 <hmac_sha_test+0x128>)
 8001cf2:	4c22      	ldr	r4, [pc, #136]	; (8001d7c <hmac_sha_test+0x134>)
 8001cf4:	f3c0 000a 	ubfx	r0, r0, #0, #11
 8001cf8:	e7de      	b.n	8001cb8 <hmac_sha_test+0x70>
        ret = wc_HmacFinal(&hmac, hash);
 8001cfa:	a903      	add	r1, sp, #12
 8001cfc:	a814      	add	r0, sp, #80	; 0x50
 8001cfe:	f00a fb7d 	bl	800c3fc <wc_HmacFinal>
        if (ret != 0)
 8001d02:	b128      	cbz	r0, 8001d10 <hmac_sha_test+0xc8>
            return WC_TEST_RET_ENC_EC(ret);
 8001d04:	4240      	negs	r0, r0
 8001d06:	4b1a      	ldr	r3, [pc, #104]	; (8001d70 <hmac_sha_test+0x128>)
 8001d08:	4c1d      	ldr	r4, [pc, #116]	; (8001d80 <hmac_sha_test+0x138>)
 8001d0a:	f3c0 000a 	ubfx	r0, r0, #0, #11
 8001d0e:	e7d3      	b.n	8001cb8 <hmac_sha_test+0x70>
        if (XMEMCMP(hash, test_hmac[i].output, WC_SHA_DIGEST_SIZE) != 0)
 8001d10:	6869      	ldr	r1, [r5, #4]
 8001d12:	2214      	movs	r2, #20
 8001d14:	a803      	add	r0, sp, #12
 8001d16:	f019 f953 	bl	801afc0 <memcmp>
 8001d1a:	4604      	mov	r4, r0
 8001d1c:	b140      	cbz	r0, 8001d30 <hmac_sha_test+0xe8>
            return WC_TEST_RET_ENC_I(i);
 8001d1e:	4814      	ldr	r0, [pc, #80]	; (8001d70 <hmac_sha_test+0x128>)
 8001d20:	4c18      	ldr	r4, [pc, #96]	; (8001d84 <hmac_sha_test+0x13c>)
 8001d22:	fb00 4406 	mla	r4, r0, r6, r4
}
 8001d26:	4620      	mov	r0, r4
 8001d28:	f50d 7d1e 	add.w	sp, sp, #632	; 0x278
 8001d2c:	e8bd 87f0 	ldmia.w	sp!, {r4, r5, r6, r7, r8, r9, sl, pc}
        wc_HmacFree(&hmac);
 8001d30:	a814      	add	r0, sp, #80	; 0x50
    for (i = 0; i < times; ++i) {
 8001d32:	3601      	adds	r6, #1
        wc_HmacFree(&hmac);
 8001d34:	f00a fbe4 	bl	800c500 <wc_HmacFree>
    for (i = 0; i < times; ++i) {
 8001d38:	2e03      	cmp	r6, #3
 8001d3a:	f105 0510 	add.w	r5, r5, #16
 8001d3e:	d1af      	bne.n	8001ca0 <hmac_sha_test+0x58>
    if ((ret = wc_HmacSizeByType(WC_SHA)) != WC_SHA_DIGEST_SIZE)
 8001d40:	2004      	movs	r0, #4
 8001d42:	f00a faf5 	bl	800c330 <wc_HmacSizeByType>
 8001d46:	2814      	cmp	r0, #20
 8001d48:	d0ed      	beq.n	8001d26 <hmac_sha_test+0xde>
        return WC_TEST_RET_ENC_EC(ret);
 8001d4a:	4240      	negs	r0, r0
 8001d4c:	4b08      	ldr	r3, [pc, #32]	; (8001d70 <hmac_sha_test+0x128>)
 8001d4e:	4c0e      	ldr	r4, [pc, #56]	; (8001d88 <hmac_sha_test+0x140>)
 8001d50:	f3c0 000a 	ubfx	r0, r0, #0, #11
 8001d54:	e7b0      	b.n	8001cb8 <hmac_sha_test+0x70>
 8001d56:	bf00      	nop
 8001d58:	0801be3c 	.word	0x0801be3c
 8001d5c:	0801e0d1 	.word	0x0801e0d1
 8001d60:	0801e0da 	.word	0x0801e0da
 8001d64:	0801e0f7 	.word	0x0801e0f7
 8001d68:	0801e12a 	.word	0x0801e12a
 8001d6c:	0801e13f 	.word	0x0801e13f
 8001d70:	fffe7960 	.word	0xfffe7960
 8001d74:	dfffea6b 	.word	0xdfffea6b
 8001d78:	dfffea66 	.word	0xdfffea66
 8001d7c:	dfffea62 	.word	0xdfffea62
 8001d80:	dfffea5f 	.word	0xdfffea5f
 8001d84:	9fffea5c 	.word	0x9fffea5c
 8001d88:	dfffea55 	.word	0xdfffea55

08001d8c <hmac_sha256_test>:
{
 8001d8c:	e92d 47f0 	stmdb	sp!, {r4, r5, r6, r7, r8, r9, sl, lr}
    const char* keys[]=
 8001d90:	4d4a      	ldr	r5, [pc, #296]	; (8001ebc <hmac_sha256_test+0x130>)
    a.inLen  = XSTRLEN(a.input);
 8001d92:	f8df a12c 	ldr.w	sl, [pc, #300]	; 8001ec0 <hmac_sha256_test+0x134>
    b.inLen  = XSTRLEN(b.input);
 8001d96:	f8df 912c 	ldr.w	r9, [pc, #300]	; 8001ec4 <hmac_sha256_test+0x138>
    c.inLen  = XSTRLEN(c.input);
 8001d9a:	f8df 812c 	ldr.w	r8, [pc, #300]	; 8001ec8 <hmac_sha256_test+0x13c>
    const char* keys[]=
 8001d9e:	e895 000f 	ldmia.w	r5, {r0, r1, r2, r3}
{
 8001da2:	f5ad 7d26 	sub.w	sp, sp, #664	; 0x298
    const char* keys[]=
 8001da6:	466c      	mov	r4, sp
 8001da8:	e884 000f 	stmia.w	r4, {r0, r1, r2, r3}
    a.inLen  = XSTRLEN(a.input);
 8001dac:	4650      	mov	r0, sl
 8001dae:	f019 fa9a 	bl	801b2e6 <strlen>
 8001db2:	4607      	mov	r7, r0
    b.inLen  = XSTRLEN(b.input);
 8001db4:	4648      	mov	r0, r9
 8001db6:	f019 fa96 	bl	801b2e6 <strlen>
 8001dba:	4606      	mov	r6, r0
    c.inLen  = XSTRLEN(c.input);
 8001dbc:	4640      	mov	r0, r8
 8001dbe:	f019 fa92 	bl	801b2e6 <strlen>
    test_hmac[0] = a;
 8001dc2:	f105 0310 	add.w	r3, r5, #16
 8001dc6:	e9cd 370d 	strd	r3, r7, [sp, #52]	; 0x34
    test_hmac[2] = c;
 8001dca:	4b40      	ldr	r3, [pc, #256]	; (8001ecc <hmac_sha256_test+0x140>)
    test_hmac[0] = a;
 8001dcc:	f8cd a030 	str.w	sl, [sp, #48]	; 0x30
    test_hmac[1] = b;
 8001dd0:	3531      	adds	r5, #49	; 0x31
    test_hmac[2] = c;
 8001dd2:	e9cd 3015 	strd	r3, r0, [sp, #84]	; 0x54
    test_hmac[3] = d;
 8001dd6:	4b3e      	ldr	r3, [pc, #248]	; (8001ed0 <hmac_sha256_test+0x144>)
    test_hmac[1] = b;
 8001dd8:	f8cd 9040 	str.w	r9, [sp, #64]	; 0x40
 8001ddc:	e9cd 5611 	strd	r5, r6, [sp, #68]	; 0x44
    test_hmac[3] = d;
 8001de0:	2500      	movs	r5, #0
 8001de2:	e9cd 3519 	strd	r3, r5, [sp, #100]	; 0x64
    test_hmac[2] = c;
 8001de6:	f8cd 8050 	str.w	r8, [sp, #80]	; 0x50
    test_hmac[3] = d;
 8001dea:	9518      	str	r5, [sp, #96]	; 0x60
 8001dec:	ae0c      	add	r6, sp, #48	; 0x30
 8001dee:	4627      	mov	r7, r4
        if (wc_HmacInit(&hmac, HEAP_HINT, devId) != 0)
 8001df0:	f06f 0201 	mvn.w	r2, #1
 8001df4:	2100      	movs	r1, #0
 8001df6:	a81c      	add	r0, sp, #112	; 0x70
 8001df8:	f00a fb70 	bl	800c4dc <wc_HmacInit>
 8001dfc:	b140      	cbz	r0, 8001e10 <hmac_sha256_test+0x84>
            return WC_TEST_RET_ENC_I(i);
 8001dfe:	4835      	ldr	r0, [pc, #212]	; (8001ed4 <hmac_sha256_test+0x148>)
 8001e00:	4c35      	ldr	r4, [pc, #212]	; (8001ed8 <hmac_sha256_test+0x14c>)
            return WC_TEST_RET_ENC_I(i);
 8001e02:	fb00 4405 	mla	r4, r0, r5, r4
}
 8001e06:	4620      	mov	r0, r4
 8001e08:	f50d 7d26 	add.w	sp, sp, #664	; 0x298
 8001e0c:	e8bd 87f0 	ldmia.w	sp!, {r4, r5, r6, r7, r8, r9, sl, pc}
        ret = wc_HmacSetKey(&hmac, WC_SHA256, (byte*)keys[i],
 8001e10:	f857 4b04 	ldr.w	r4, [r7], #4
            (word32)XSTRLEN(keys[i]));
 8001e14:	4620      	mov	r0, r4
 8001e16:	f019 fa66 	bl	801b2e6 <strlen>
        ret = wc_HmacSetKey(&hmac, WC_SHA256, (byte*)keys[i],
 8001e1a:	4622      	mov	r2, r4
            (word32)XSTRLEN(keys[i]));
 8001e1c:	4603      	mov	r3, r0
        ret = wc_HmacSetKey(&hmac, WC_SHA256, (byte*)keys[i],
 8001e1e:	2106      	movs	r1, #6
 8001e20:	a81c      	add	r0, sp, #112	; 0x70
 8001e22:	f00a fb89 	bl	800c538 <wc_HmacSetKey>
        if (ret != 0)
 8001e26:	b110      	cbz	r0, 8001e2e <hmac_sha256_test+0xa2>
            return WC_TEST_RET_ENC_I(i);
 8001e28:	482a      	ldr	r0, [pc, #168]	; (8001ed4 <hmac_sha256_test+0x148>)
 8001e2a:	4c2c      	ldr	r4, [pc, #176]	; (8001edc <hmac_sha256_test+0x150>)
 8001e2c:	e7e9      	b.n	8001e02 <hmac_sha256_test+0x76>
        if (test_hmac[i].input != NULL) {
 8001e2e:	6831      	ldr	r1, [r6, #0]
 8001e30:	b139      	cbz	r1, 8001e42 <hmac_sha256_test+0xb6>
            ret = wc_HmacUpdate(&hmac, (byte*)test_hmac[i].input,
 8001e32:	68b2      	ldr	r2, [r6, #8]
 8001e34:	a81c      	add	r0, sp, #112	; 0x70
 8001e36:	f00a faaf 	bl	800c398 <wc_HmacUpdate>
            if (ret != 0)
 8001e3a:	b110      	cbz	r0, 8001e42 <hmac_sha256_test+0xb6>
                return WC_TEST_RET_ENC_I(i);
 8001e3c:	4825      	ldr	r0, [pc, #148]	; (8001ed4 <hmac_sha256_test+0x148>)
 8001e3e:	4c28      	ldr	r4, [pc, #160]	; (8001ee0 <hmac_sha256_test+0x154>)
 8001e40:	e7df      	b.n	8001e02 <hmac_sha256_test+0x76>
        ret = wc_HmacFinal(&hmac, hash);
 8001e42:	a904      	add	r1, sp, #16
 8001e44:	a81c      	add	r0, sp, #112	; 0x70
 8001e46:	f00a fad9 	bl	800c3fc <wc_HmacFinal>
        if (ret != 0)
 8001e4a:	b110      	cbz	r0, 8001e52 <hmac_sha256_test+0xc6>
            return WC_TEST_RET_ENC_I(i);
 8001e4c:	4821      	ldr	r0, [pc, #132]	; (8001ed4 <hmac_sha256_test+0x148>)
 8001e4e:	4c25      	ldr	r4, [pc, #148]	; (8001ee4 <hmac_sha256_test+0x158>)
 8001e50:	e7d7      	b.n	8001e02 <hmac_sha256_test+0x76>
        if (XMEMCMP(hash, test_hmac[i].output, WC_SHA256_DIGEST_SIZE) != 0)
 8001e52:	6871      	ldr	r1, [r6, #4]
 8001e54:	2220      	movs	r2, #32
 8001e56:	a804      	add	r0, sp, #16
 8001e58:	f019 f8b2 	bl	801afc0 <memcmp>
 8001e5c:	4604      	mov	r4, r0
 8001e5e:	b110      	cbz	r0, 8001e66 <hmac_sha256_test+0xda>
            return WC_TEST_RET_ENC_I(i);
 8001e60:	481c      	ldr	r0, [pc, #112]	; (8001ed4 <hmac_sha256_test+0x148>)
 8001e62:	4c21      	ldr	r4, [pc, #132]	; (8001ee8 <hmac_sha256_test+0x15c>)
 8001e64:	e7cd      	b.n	8001e02 <hmac_sha256_test+0x76>
        wc_HmacFree(&hmac);
 8001e66:	a81c      	add	r0, sp, #112	; 0x70
    for (i = 0; i < times; ++i) {
 8001e68:	3501      	adds	r5, #1
        wc_HmacFree(&hmac);
 8001e6a:	f00a fb49 	bl	800c500 <wc_HmacFree>
    for (i = 0; i < times; ++i) {
 8001e6e:	2d04      	cmp	r5, #4
 8001e70:	f106 0610 	add.w	r6, r6, #16
 8001e74:	d1bc      	bne.n	8001df0 <hmac_sha256_test+0x64>
    if ((ret = wc_HmacSizeByType(WC_SHA256)) != WC_SHA256_DIGEST_SIZE)
 8001e76:	2006      	movs	r0, #6
 8001e78:	f00a fa5a 	bl	800c330 <wc_HmacSizeByType>
 8001e7c:	2820      	cmp	r0, #32
 8001e7e:	d007      	beq.n	8001e90 <hmac_sha256_test+0x104>
        return WC_TEST_RET_ENC_EC(ret);
 8001e80:	4240      	negs	r0, r0
 8001e82:	4b14      	ldr	r3, [pc, #80]	; (8001ed4 <hmac_sha256_test+0x148>)
 8001e84:	4c19      	ldr	r4, [pc, #100]	; (8001eec <hmac_sha256_test+0x160>)
 8001e86:	f3c0 000a 	ubfx	r0, r0, #0, #11
        return WC_TEST_RET_ENC_EC(ret);
 8001e8a:	fb03 4400 	mla	r4, r3, r0, r4
 8001e8e:	e7ba      	b.n	8001e06 <hmac_sha256_test+0x7a>
    if ((ret = wc_HmacSizeByType(21)) != BAD_FUNC_ARG)
 8001e90:	2015      	movs	r0, #21
 8001e92:	f00a fa4d 	bl	800c330 <wc_HmacSizeByType>
 8001e96:	f110 0fad 	cmn.w	r0, #173	; 0xad
 8001e9a:	d005      	beq.n	8001ea8 <hmac_sha256_test+0x11c>
        return WC_TEST_RET_ENC_EC(ret);
 8001e9c:	4240      	negs	r0, r0
 8001e9e:	4b0d      	ldr	r3, [pc, #52]	; (8001ed4 <hmac_sha256_test+0x148>)
 8001ea0:	4c13      	ldr	r4, [pc, #76]	; (8001ef0 <hmac_sha256_test+0x164>)
 8001ea2:	f3c0 000a 	ubfx	r0, r0, #0, #11
 8001ea6:	e7f0      	b.n	8001e8a <hmac_sha256_test+0xfe>
    if ((ret = wolfSSL_GetHmacMaxSize()) != WC_MAX_DIGEST_SIZE)
 8001ea8:	f00a fbd0 	bl	800c64c <wolfSSL_GetHmacMaxSize>
 8001eac:	2840      	cmp	r0, #64	; 0x40
 8001eae:	d0aa      	beq.n	8001e06 <hmac_sha256_test+0x7a>
        return WC_TEST_RET_ENC_EC(ret);
 8001eb0:	4240      	negs	r0, r0
 8001eb2:	4b08      	ldr	r3, [pc, #32]	; (8001ed4 <hmac_sha256_test+0x148>)
 8001eb4:	4c0f      	ldr	r4, [pc, #60]	; (8001ef4 <hmac_sha256_test+0x168>)
 8001eb6:	f3c0 000a 	ubfx	r0, r0, #0, #11
 8001eba:	e7e6      	b.n	8001e8a <hmac_sha256_test+0xfe>
 8001ebc:	0801be60 	.word	0x0801be60
 8001ec0:	0801e0d1 	.word	0x0801e0d1
 8001ec4:	0801e0da 	.word	0x0801e0da
 8001ec8:	0801e0f7 	.word	0x0801e0f7
 8001ecc:	0801e154 	.word	0x0801e154
 8001ed0:	0801e175 	.word	0x0801e175
 8001ed4:	fffe7960 	.word	0xfffe7960
 8001ed8:	9fffe9a8 	.word	0x9fffe9a8
 8001edc:	9fffe9a3 	.word	0x9fffe9a3
 8001ee0:	9fffe99e 	.word	0x9fffe99e
 8001ee4:	9fffe99a 	.word	0x9fffe99a
 8001ee8:	9fffe997 	.word	0x9fffe997
 8001eec:	dfffe990 	.word	0xdfffe990
 8001ef0:	dfffe98e 	.word	0xdfffe98e
 8001ef4:	dfffe98b 	.word	0xdfffe98b

08001ef8 <hmac_sha512_test>:
{
 8001ef8:	e92d 4ff0 	stmdb	sp!, {r4, r5, r6, r7, r8, r9, sl, fp, lr}
    const char* keys[]=
 8001efc:	4b47      	ldr	r3, [pc, #284]	; (800201c <hmac_sha512_test+0x124>)
    a.inLen  = XSTRLEN(a.input);
 8001efe:	f8df b120 	ldr.w	fp, [pc, #288]	; 8002020 <hmac_sha512_test+0x128>
    b.inLen  = XSTRLEN(b.input);
 8001f02:	f8df a120 	ldr.w	sl, [pc, #288]	; 8002024 <hmac_sha512_test+0x12c>
    c.inLen  = XSTRLEN(c.input);
 8001f06:	f8df 9120 	ldr.w	r9, [pc, #288]	; 8002028 <hmac_sha512_test+0x130>
    d.inLen  = XSTRLEN(d.input);
 8001f0a:	f8df 8120 	ldr.w	r8, [pc, #288]	; 800202c <hmac_sha512_test+0x134>
    const char* keys[]=
 8001f0e:	cb0f      	ldmia	r3, {r0, r1, r2, r3}
{
 8001f10:	f5ad 7d2f 	sub.w	sp, sp, #700	; 0x2bc
    const char* keys[]=
 8001f14:	466e      	mov	r6, sp
 8001f16:	e886 000f 	stmia.w	r6, {r0, r1, r2, r3}
    a.inLen  = XSTRLEN(a.input);
 8001f1a:	4658      	mov	r0, fp
 8001f1c:	f019 f9e3 	bl	801b2e6 <strlen>
 8001f20:	4607      	mov	r7, r0
    b.inLen  = XSTRLEN(b.input);
 8001f22:	4650      	mov	r0, sl
 8001f24:	f019 f9df 	bl	801b2e6 <strlen>
 8001f28:	4605      	mov	r5, r0
    c.inLen  = XSTRLEN(c.input);
 8001f2a:	4648      	mov	r0, r9
 8001f2c:	f019 f9db 	bl	801b2e6 <strlen>
 8001f30:	4604      	mov	r4, r0
    d.inLen  = XSTRLEN(d.input);
 8001f32:	4640      	mov	r0, r8
 8001f34:	f019 f9d7 	bl	801b2e6 <strlen>
    test_hmac[0] = a;
 8001f38:	4b3d      	ldr	r3, [pc, #244]	; (8002030 <hmac_sha512_test+0x138>)
 8001f3a:	f8cd b050 	str.w	fp, [sp, #80]	; 0x50
 8001f3e:	e9cd 3715 	strd	r3, r7, [sp, #84]	; 0x54
    test_hmac[1] = b;
 8001f42:	4b3c      	ldr	r3, [pc, #240]	; (8002034 <hmac_sha512_test+0x13c>)
 8001f44:	f8cd a060 	str.w	sl, [sp, #96]	; 0x60
 8001f48:	e9cd 3519 	strd	r3, r5, [sp, #100]	; 0x64
    test_hmac[2] = c;
 8001f4c:	4b3a      	ldr	r3, [pc, #232]	; (8002038 <hmac_sha512_test+0x140>)
 8001f4e:	f8cd 9070 	str.w	r9, [sp, #112]	; 0x70
 8001f52:	e9cd 341d 	strd	r3, r4, [sp, #116]	; 0x74
    test_hmac[3] = d;
 8001f56:	4b39      	ldr	r3, [pc, #228]	; (800203c <hmac_sha512_test+0x144>)
 8001f58:	f8cd 8080 	str.w	r8, [sp, #128]	; 0x80
 8001f5c:	e9cd 3021 	strd	r3, r0, [sp, #132]	; 0x84
    for (i = 0; i < times; ++i) {
 8001f60:	ad14      	add	r5, sp, #80	; 0x50
 8001f62:	2700      	movs	r7, #0
        if ((ret = wc_HmacInit(&hmac, HEAP_HINT, devId)) != 0)
 8001f64:	f06f 0201 	mvn.w	r2, #1
 8001f68:	2100      	movs	r1, #0
 8001f6a:	a824      	add	r0, sp, #144	; 0x90
 8001f6c:	f00a fab6 	bl	800c4dc <wc_HmacInit>
 8001f70:	b138      	cbz	r0, 8001f82 <hmac_sha512_test+0x8a>
            return WC_TEST_RET_ENC_EC(ret);
 8001f72:	4240      	negs	r0, r0
 8001f74:	4b32      	ldr	r3, [pc, #200]	; (8002040 <hmac_sha512_test+0x148>)
 8001f76:	4c33      	ldr	r4, [pc, #204]	; (8002044 <hmac_sha512_test+0x14c>)
 8001f78:	f3c0 000a 	ubfx	r0, r0, #0, #11
        return WC_TEST_RET_ENC_EC(ret);
 8001f7c:	fb03 4400 	mla	r4, r3, r0, r4
 8001f80:	e033      	b.n	8001fea <hmac_sha512_test+0xf2>
        ret = wc_HmacSetKey(&hmac, WC_SHA512, (byte*)keys[i],
 8001f82:	f856 4b04 	ldr.w	r4, [r6], #4
            (word32)XSTRLEN(keys[i]));
 8001f86:	4620      	mov	r0, r4
 8001f88:	f019 f9ad 	bl	801b2e6 <strlen>
        ret = wc_HmacSetKey(&hmac, WC_SHA512, (byte*)keys[i],
 8001f8c:	4622      	mov	r2, r4
            (word32)XSTRLEN(keys[i]));
 8001f8e:	4603      	mov	r3, r0
        ret = wc_HmacSetKey(&hmac, WC_SHA512, (byte*)keys[i],
 8001f90:	2108      	movs	r1, #8
 8001f92:	a824      	add	r0, sp, #144	; 0x90
 8001f94:	f00a fad0 	bl	800c538 <wc_HmacSetKey>
        if (ret != 0)
 8001f98:	b128      	cbz	r0, 8001fa6 <hmac_sha512_test+0xae>
            return WC_TEST_RET_ENC_EC(ret);
 8001f9a:	4240      	negs	r0, r0
 8001f9c:	4b28      	ldr	r3, [pc, #160]	; (8002040 <hmac_sha512_test+0x148>)
 8001f9e:	4c2a      	ldr	r4, [pc, #168]	; (8002048 <hmac_sha512_test+0x150>)
 8001fa0:	f3c0 000a 	ubfx	r0, r0, #0, #11
 8001fa4:	e7ea      	b.n	8001f7c <hmac_sha512_test+0x84>
        ret = wc_HmacUpdate(&hmac, (byte*)test_hmac[i].input,
 8001fa6:	68aa      	ldr	r2, [r5, #8]
 8001fa8:	6829      	ldr	r1, [r5, #0]
 8001faa:	a824      	add	r0, sp, #144	; 0x90
 8001fac:	f00a f9f4 	bl	800c398 <wc_HmacUpdate>
        if (ret != 0)
 8001fb0:	b128      	cbz	r0, 8001fbe <hmac_sha512_test+0xc6>
            return WC_TEST_RET_ENC_EC(ret);
 8001fb2:	4240      	negs	r0, r0
 8001fb4:	4b22      	ldr	r3, [pc, #136]	; (8002040 <hmac_sha512_test+0x148>)
 8001fb6:	4c25      	ldr	r4, [pc, #148]	; (800204c <hmac_sha512_test+0x154>)
 8001fb8:	f3c0 000a 	ubfx	r0, r0, #0, #11
 8001fbc:	e7de      	b.n	8001f7c <hmac_sha512_test+0x84>
        ret = wc_HmacFinal(&hmac, hash);
 8001fbe:	a904      	add	r1, sp, #16
 8001fc0:	a824      	add	r0, sp, #144	; 0x90
 8001fc2:	f00a fa1b 	bl	800c3fc <wc_HmacFinal>
        if (ret != 0)
 8001fc6:	b128      	cbz	r0, 8001fd4 <hmac_sha512_test+0xdc>
            return WC_TEST_RET_ENC_EC(ret);
 8001fc8:	4240      	negs	r0, r0
 8001fca:	4b1d      	ldr	r3, [pc, #116]	; (8002040 <hmac_sha512_test+0x148>)
 8001fcc:	4c20      	ldr	r4, [pc, #128]	; (8002050 <hmac_sha512_test+0x158>)
 8001fce:	f3c0 000a 	ubfx	r0, r0, #0, #11
 8001fd2:	e7d3      	b.n	8001f7c <hmac_sha512_test+0x84>
        if (XMEMCMP(hash, test_hmac[i].output, WC_SHA512_DIGEST_SIZE) != 0)
 8001fd4:	6869      	ldr	r1, [r5, #4]
 8001fd6:	2240      	movs	r2, #64	; 0x40
 8001fd8:	a804      	add	r0, sp, #16
 8001fda:	f018 fff1 	bl	801afc0 <memcmp>
 8001fde:	4604      	mov	r4, r0
 8001fe0:	b140      	cbz	r0, 8001ff4 <hmac_sha512_test+0xfc>
            return WC_TEST_RET_ENC_I(i);
 8001fe2:	4817      	ldr	r0, [pc, #92]	; (8002040 <hmac_sha512_test+0x148>)
 8001fe4:	4c1b      	ldr	r4, [pc, #108]	; (8002054 <hmac_sha512_test+0x15c>)
 8001fe6:	fb00 4407 	mla	r4, r0, r7, r4
}
 8001fea:	4620      	mov	r0, r4
 8001fec:	f50d 7d2f 	add.w	sp, sp, #700	; 0x2bc
 8001ff0:	e8bd 8ff0 	ldmia.w	sp!, {r4, r5, r6, r7, r8, r9, sl, fp, pc}
        wc_HmacFree(&hmac);
 8001ff4:	a824      	add	r0, sp, #144	; 0x90
    for (i = 0; i < times; ++i) {
 8001ff6:	3701      	adds	r7, #1
        wc_HmacFree(&hmac);
 8001ff8:	f00a fa82 	bl	800c500 <wc_HmacFree>
    for (i = 0; i < times; ++i) {
 8001ffc:	2f04      	cmp	r7, #4
 8001ffe:	f105 0510 	add.w	r5, r5, #16
 8002002:	d1af      	bne.n	8001f64 <hmac_sha512_test+0x6c>
    if ((ret = wc_HmacSizeByType(WC_SHA512)) != WC_SHA512_DIGEST_SIZE)
 8002004:	2008      	movs	r0, #8
 8002006:	f00a f993 	bl	800c330 <wc_HmacSizeByType>
 800200a:	2840      	cmp	r0, #64	; 0x40
 800200c:	d0ed      	beq.n	8001fea <hmac_sha512_test+0xf2>
        return WC_TEST_RET_ENC_EC(ret);
 800200e:	4240      	negs	r0, r0
 8002010:	4b0b      	ldr	r3, [pc, #44]	; (8002040 <hmac_sha512_test+0x148>)
 8002012:	4c11      	ldr	r4, [pc, #68]	; (8002058 <hmac_sha512_test+0x160>)
 8002014:	f3c0 000a 	ubfx	r0, r0, #0, #11
 8002018:	e7b0      	b.n	8001f7c <hmac_sha512_test+0x84>
 800201a:	bf00      	nop
 800201c:	0801beb4 	.word	0x0801beb4
 8002020:	0801e0d1 	.word	0x0801e0d1
 8002024:	0801e0da 	.word	0x0801e0da
 8002028:	0801e0f7 	.word	0x0801e0f7
 800202c:	0801e196 	.word	0x0801e196
 8002030:	0801e1a4 	.word	0x0801e1a4
 8002034:	0801e1e5 	.word	0x0801e1e5
 8002038:	0801e226 	.word	0x0801e226
 800203c:	0801e267 	.word	0x0801e267
 8002040:	fffe7960 	.word	0xfffe7960
 8002044:	dfffe8c8 	.word	0xdfffe8c8
 8002048:	dfffe8c3 	.word	0xdfffe8c3
 800204c:	dfffe8bf 	.word	0xdfffe8bf
 8002050:	dfffe8bc 	.word	0xdfffe8bc
 8002054:	9fffe8b9 	.word	0x9fffe8b9
 8002058:	dfffe8b2 	.word	0xdfffe8b2

0800205c <des_test>:
{
 800205c:	b510      	push	{r4, lr}
    ret = wc_Des_SetKey(&enc, key, iv, DES_ENCRYPTION);
 800205e:	4c2d      	ldr	r4, [pc, #180]	; (8002114 <des_test+0xb8>)
 8002060:	492d      	ldr	r1, [pc, #180]	; (8002118 <des_test+0xbc>)
{
 8002062:	b0d6      	sub	sp, #344	; 0x158
    ret = wc_Des_SetKey(&enc, key, iv, DES_ENCRYPTION);
 8002064:	2300      	movs	r3, #0
 8002066:	4622      	mov	r2, r4
 8002068:	a80e      	add	r0, sp, #56	; 0x38
 800206a:	f007 f80e 	bl	800908a <wc_Des_SetKey>
    if (ret != 0)
 800206e:	b140      	cbz	r0, 8002082 <des_test+0x26>
        return WC_TEST_RET_ENC_EC(ret);
 8002070:	4240      	negs	r0, r0
 8002072:	f3c0 030a 	ubfx	r3, r0, #0, #11
 8002076:	4a29      	ldr	r2, [pc, #164]	; (800211c <des_test+0xc0>)
 8002078:	4829      	ldr	r0, [pc, #164]	; (8002120 <des_test+0xc4>)
        return WC_TEST_RET_ENC_EC(ret);
 800207a:	fb02 0003 	mla	r0, r2, r3, r0
}
 800207e:	b056      	add	sp, #344	; 0x158
 8002080:	bd10      	pop	{r4, pc}
    ret = wc_Des_CbcEncrypt(&enc, cipher, vector, sizeof(vector));
 8002082:	4a28      	ldr	r2, [pc, #160]	; (8002124 <des_test+0xc8>)
 8002084:	2318      	movs	r3, #24
 8002086:	a908      	add	r1, sp, #32
 8002088:	a80e      	add	r0, sp, #56	; 0x38
 800208a:	f006 ff62 	bl	8008f52 <wc_Des_CbcEncrypt>
    if (ret != 0)
 800208e:	b128      	cbz	r0, 800209c <des_test+0x40>
        return WC_TEST_RET_ENC_EC(ret);
 8002090:	4240      	negs	r0, r0
 8002092:	f3c0 030a 	ubfx	r3, r0, #0, #11
 8002096:	4a21      	ldr	r2, [pc, #132]	; (800211c <des_test+0xc0>)
 8002098:	4823      	ldr	r0, [pc, #140]	; (8002128 <des_test+0xcc>)
 800209a:	e7ee      	b.n	800207a <des_test+0x1e>
    ret = wc_Des_SetKey(&dec, key, iv, DES_DECRYPTION);
 800209c:	491e      	ldr	r1, [pc, #120]	; (8002118 <des_test+0xbc>)
 800209e:	2301      	movs	r3, #1
 80020a0:	4622      	mov	r2, r4
 80020a2:	a832      	add	r0, sp, #200	; 0xc8
 80020a4:	f006 fff1 	bl	800908a <wc_Des_SetKey>
    if (ret != 0)
 80020a8:	b128      	cbz	r0, 80020b6 <des_test+0x5a>
        return WC_TEST_RET_ENC_EC(ret);
 80020aa:	4240      	negs	r0, r0
 80020ac:	f3c0 030a 	ubfx	r3, r0, #0, #11
 80020b0:	4a1a      	ldr	r2, [pc, #104]	; (800211c <des_test+0xc0>)
 80020b2:	481e      	ldr	r0, [pc, #120]	; (800212c <des_test+0xd0>)
 80020b4:	e7e1      	b.n	800207a <des_test+0x1e>
    ret = wc_Des_CbcDecrypt(&dec, plain, cipher, sizeof(cipher));
 80020b6:	2318      	movs	r3, #24
 80020b8:	aa08      	add	r2, sp, #32
 80020ba:	a902      	add	r1, sp, #8
 80020bc:	a832      	add	r0, sp, #200	; 0xc8
 80020be:	f006 ff64 	bl	8008f8a <wc_Des_CbcDecrypt>
    if (ret != 0)
 80020c2:	b128      	cbz	r0, 80020d0 <des_test+0x74>
        return WC_TEST_RET_ENC_EC(ret);
 80020c4:	4240      	negs	r0, r0
 80020c6:	f3c0 030a 	ubfx	r3, r0, #0, #11
 80020ca:	4a14      	ldr	r2, [pc, #80]	; (800211c <des_test+0xc0>)
 80020cc:	4818      	ldr	r0, [pc, #96]	; (8002130 <des_test+0xd4>)
 80020ce:	e7d4      	b.n	800207a <des_test+0x1e>
    if (XMEMCMP(plain, vector, sizeof(plain)))
 80020d0:	4914      	ldr	r1, [pc, #80]	; (8002124 <des_test+0xc8>)
 80020d2:	2218      	movs	r2, #24
 80020d4:	a802      	add	r0, sp, #8
 80020d6:	f018 ff73 	bl	801afc0 <memcmp>
 80020da:	b9b0      	cbnz	r0, 800210a <des_test+0xae>
    if (XMEMCMP(cipher, verify, sizeof(cipher)))
 80020dc:	4915      	ldr	r1, [pc, #84]	; (8002134 <des_test+0xd8>)
 80020de:	2218      	movs	r2, #24
 80020e0:	a808      	add	r0, sp, #32
 80020e2:	f018 ff6d 	bl	801afc0 <memcmp>
 80020e6:	b990      	cbnz	r0, 800210e <des_test+0xb2>
    ret = wc_Des_CbcEncryptWithKey(cipher, vector, sizeof(vector), key, iv);
 80020e8:	4b0b      	ldr	r3, [pc, #44]	; (8002118 <des_test+0xbc>)
 80020ea:	490e      	ldr	r1, [pc, #56]	; (8002124 <des_test+0xc8>)
 80020ec:	9400      	str	r4, [sp, #0]
 80020ee:	2218      	movs	r2, #24
 80020f0:	a808      	add	r0, sp, #32
 80020f2:	f018 fb21 	bl	801a738 <wc_Des_CbcEncryptWithKey>
    if (ret != 0)
 80020f6:	2800      	cmp	r0, #0
 80020f8:	d0c1      	beq.n	800207e <des_test+0x22>
        return WC_TEST_RET_ENC_EC(ret);
 80020fa:	4a08      	ldr	r2, [pc, #32]	; (800211c <des_test+0xc0>)
 80020fc:	4b0e      	ldr	r3, [pc, #56]	; (8002138 <des_test+0xdc>)
 80020fe:	4240      	negs	r0, r0
 8002100:	f3c0 000a 	ubfx	r0, r0, #0, #11
 8002104:	fb02 3000 	mla	r0, r2, r0, r3
 8002108:	e7b9      	b.n	800207e <des_test+0x22>
        return WC_TEST_RET_ENC_NC;
 800210a:	480c      	ldr	r0, [pc, #48]	; (800213c <des_test+0xe0>)
 800210c:	e7b7      	b.n	800207e <des_test+0x22>
        return WC_TEST_RET_ENC_NC;
 800210e:	480c      	ldr	r0, [pc, #48]	; (8002140 <des_test+0xe4>)
 8002110:	e7b5      	b.n	800207e <des_test+0x22>
 8002112:	bf00      	nop
 8002114:	0801f0ce 	.word	0x0801f0ce
 8002118:	0801f1db 	.word	0x0801f1db
 800211c:	fffe7960 	.word	0xfffe7960
 8002120:	dfffe1d4 	.word	0xdfffe1d4
 8002124:	0801fc60 	.word	0x0801fc60
 8002128:	dfffe1d0 	.word	0xdfffe1d0
 800212c:	dfffe1cc 	.word	0xdfffe1cc
 8002130:	dfffe1c8 	.word	0xdfffe1c8
 8002134:	0801fca8 	.word	0x0801fca8
 8002138:	dfffe1be 	.word	0xdfffe1be
 800213c:	ffffe1c5 	.word	0xffffe1c5
 8002140:	ffffe1c2 	.word	0xffffe1c2

08002144 <des3_test>:
{
 8002144:	b510      	push	{r4, lr}
 8002146:	f5ad 7d56 	sub.w	sp, sp, #856	; 0x358
    ret = wc_Des3Init(&enc, HEAP_HINT, devId);
 800214a:	2100      	movs	r1, #0
 800214c:	f06f 0201 	mvn.w	r2, #1
 8002150:	a80c      	add	r0, sp, #48	; 0x30
 8002152:	f006 fffa 	bl	800914a <wc_Des3Init>
    if (ret != 0)
 8002156:	4601      	mov	r1, r0
 8002158:	b150      	cbz	r0, 8002170 <des3_test+0x2c>
        return WC_TEST_RET_ENC_EC(ret);
 800215a:	4241      	negs	r1, r0
 800215c:	4c33      	ldr	r4, [pc, #204]	; (800222c <des3_test+0xe8>)
 800215e:	4834      	ldr	r0, [pc, #208]	; (8002230 <des3_test+0xec>)
 8002160:	f3c1 010a 	ubfx	r1, r1, #0, #11
 8002164:	fb00 4401 	mla	r4, r0, r1, r4
}
 8002168:	4620      	mov	r0, r4
 800216a:	f50d 7d56 	add.w	sp, sp, #856	; 0x358
 800216e:	bd10      	pop	{r4, pc}
    ret = wc_Des3Init(&dec, HEAP_HINT, devId);
 8002170:	f06f 0201 	mvn.w	r2, #1
 8002174:	a871      	add	r0, sp, #452	; 0x1c4
 8002176:	f006 ffe8 	bl	800914a <wc_Des3Init>
    if (ret != 0)
 800217a:	4603      	mov	r3, r0
 800217c:	b138      	cbz	r0, 800218e <des3_test+0x4a>
        return WC_TEST_RET_ENC_EC(ret);
 800217e:	4243      	negs	r3, r0
 8002180:	4c2c      	ldr	r4, [pc, #176]	; (8002234 <des3_test+0xf0>)
 8002182:	482b      	ldr	r0, [pc, #172]	; (8002230 <des3_test+0xec>)
 8002184:	f3c3 030a 	ubfx	r3, r3, #0, #11
        return WC_TEST_RET_ENC_EC(ret);
 8002188:	fb03 4400 	mla	r4, r3, r0, r4
 800218c:	e7ec      	b.n	8002168 <des3_test+0x24>
    ret = wc_Des3_SetKey(&enc, key3, iv3, DES_ENCRYPTION);
 800218e:	4a2a      	ldr	r2, [pc, #168]	; (8002238 <des3_test+0xf4>)
 8002190:	492a      	ldr	r1, [pc, #168]	; (800223c <des3_test+0xf8>)
 8002192:	a80c      	add	r0, sp, #48	; 0x30
 8002194:	f006 ff98 	bl	80090c8 <wc_Des3_SetKey>
    if (ret != 0)
 8002198:	b128      	cbz	r0, 80021a6 <des3_test+0x62>
        return WC_TEST_RET_ENC_EC(ret);
 800219a:	4240      	negs	r0, r0
 800219c:	4b24      	ldr	r3, [pc, #144]	; (8002230 <des3_test+0xec>)
 800219e:	4c28      	ldr	r4, [pc, #160]	; (8002240 <des3_test+0xfc>)
 80021a0:	f3c0 000a 	ubfx	r0, r0, #0, #11
 80021a4:	e7f0      	b.n	8002188 <des3_test+0x44>
    ret = wc_Des3_SetKey(&dec, key3, iv3, DES_DECRYPTION);
 80021a6:	4a24      	ldr	r2, [pc, #144]	; (8002238 <des3_test+0xf4>)
 80021a8:	4924      	ldr	r1, [pc, #144]	; (800223c <des3_test+0xf8>)
 80021aa:	2301      	movs	r3, #1
 80021ac:	a871      	add	r0, sp, #452	; 0x1c4
 80021ae:	f006 ff8b 	bl	80090c8 <wc_Des3_SetKey>
    if (ret != 0)
 80021b2:	b128      	cbz	r0, 80021c0 <des3_test+0x7c>
        return WC_TEST_RET_ENC_EC(ret);
 80021b4:	4240      	negs	r0, r0
 80021b6:	4b1e      	ldr	r3, [pc, #120]	; (8002230 <des3_test+0xec>)
 80021b8:	4c22      	ldr	r4, [pc, #136]	; (8002244 <des3_test+0x100>)
 80021ba:	f3c0 000a 	ubfx	r0, r0, #0, #11
 80021be:	e7e3      	b.n	8002188 <des3_test+0x44>
    ret = wc_Des3_CbcEncrypt(&enc, cipher, vector, sizeof(vector));
 80021c0:	2318      	movs	r3, #24
 80021c2:	4a21      	ldr	r2, [pc, #132]	; (8002248 <des3_test+0x104>)
 80021c4:	eb0d 0103 	add.w	r1, sp, r3
 80021c8:	a80c      	add	r0, sp, #48	; 0x30
 80021ca:	f006 ff03 	bl	8008fd4 <wc_Des3_CbcEncrypt>
    if (ret != 0)
 80021ce:	b128      	cbz	r0, 80021dc <des3_test+0x98>
        return WC_TEST_RET_ENC_EC(ret);
 80021d0:	4240      	negs	r0, r0
 80021d2:	4b17      	ldr	r3, [pc, #92]	; (8002230 <des3_test+0xec>)
 80021d4:	4c1d      	ldr	r4, [pc, #116]	; (800224c <des3_test+0x108>)
 80021d6:	f3c0 000a 	ubfx	r0, r0, #0, #11
 80021da:	e7d5      	b.n	8002188 <des3_test+0x44>
    ret = wc_Des3_CbcDecrypt(&dec, plain, cipher, sizeof(cipher));
 80021dc:	2318      	movs	r3, #24
 80021de:	eb0d 0203 	add.w	r2, sp, r3
 80021e2:	4669      	mov	r1, sp
 80021e4:	a871      	add	r0, sp, #452	; 0x1c4
 80021e6:	f006 ff1b 	bl	8009020 <wc_Des3_CbcDecrypt>
    if (ret != 0)
 80021ea:	b128      	cbz	r0, 80021f8 <des3_test+0xb4>
        return WC_TEST_RET_ENC_EC(ret);
 80021ec:	4240      	negs	r0, r0
 80021ee:	4b10      	ldr	r3, [pc, #64]	; (8002230 <des3_test+0xec>)
 80021f0:	4c17      	ldr	r4, [pc, #92]	; (8002250 <des3_test+0x10c>)
 80021f2:	f3c0 000a 	ubfx	r0, r0, #0, #11
 80021f6:	e7c7      	b.n	8002188 <des3_test+0x44>
    if (XMEMCMP(plain, vector, sizeof(plain)))
 80021f8:	4913      	ldr	r1, [pc, #76]	; (8002248 <des3_test+0x104>)
 80021fa:	2218      	movs	r2, #24
 80021fc:	4668      	mov	r0, sp
 80021fe:	f018 fedf 	bl	801afc0 <memcmp>
 8002202:	b970      	cbnz	r0, 8002222 <des3_test+0xde>
    if (XMEMCMP(cipher, verify3, sizeof(cipher)))
 8002204:	2218      	movs	r2, #24
 8002206:	4913      	ldr	r1, [pc, #76]	; (8002254 <des3_test+0x110>)
 8002208:	eb0d 0002 	add.w	r0, sp, r2
 800220c:	f018 fed8 	bl	801afc0 <memcmp>
 8002210:	4604      	mov	r4, r0
 8002212:	b940      	cbnz	r0, 8002226 <des3_test+0xe2>
    wc_Des3Free(&enc);
 8002214:	a80c      	add	r0, sp, #48	; 0x30
 8002216:	f006 ffa0 	bl	800915a <wc_Des3Free>
    wc_Des3Free(&dec);
 800221a:	a871      	add	r0, sp, #452	; 0x1c4
 800221c:	f006 ff9d 	bl	800915a <wc_Des3Free>
    return 0;
 8002220:	e7a2      	b.n	8002168 <des3_test+0x24>
        return WC_TEST_RET_ENC_NC;
 8002222:	4c0d      	ldr	r4, [pc, #52]	; (8002258 <des3_test+0x114>)
 8002224:	e7a0      	b.n	8002168 <des3_test+0x24>
        return WC_TEST_RET_ENC_NC;
 8002226:	4c0d      	ldr	r4, [pc, #52]	; (800225c <des3_test+0x118>)
 8002228:	e79e      	b.n	8002168 <des3_test+0x24>
 800222a:	bf00      	nop
 800222c:	dfffe16d 	.word	0xdfffe16d
 8002230:	fffe7960 	.word	0xfffe7960
 8002234:	dfffe16a 	.word	0xdfffe16a
 8002238:	0801f147 	.word	0x0801f147
 800223c:	0801f1f3 	.word	0x0801f1f3
 8002240:	dfffe166 	.word	0xdfffe166
 8002244:	dfffe163 	.word	0xdfffe163
 8002248:	0801fc48 	.word	0x0801fc48
 800224c:	dfffe15d 	.word	0xdfffe15d
 8002250:	dfffe157 	.word	0xdfffe157
 8002254:	0801fce0 	.word	0x0801fce0
 8002258:	ffffe154 	.word	0xffffe154
 800225c:	ffffe151 	.word	0xffffe151

08002260 <aes_test>:
{
 8002260:	e92d 4ff0 	stmdb	sp!, {r4, r5, r6, r7, r8, r9, sl, fp, lr}
    Aes *enc = (Aes *)XMALLOC(sizeof *enc, HEAP_HINT, DYNAMIC_TYPE_AES);
 8002264:	f44f 709c 	mov.w	r0, #312	; 0x138
{
 8002268:	b0bb      	sub	sp, #236	; 0xec
    Aes *enc = (Aes *)XMALLOC(sizeof *enc, HEAP_HINT, DYNAMIC_TYPE_AES);
 800226a:	f018 fe99 	bl	801afa0 <malloc>
 800226e:	4606      	mov	r6, r0
    Aes *dec = (Aes *)XMALLOC(sizeof *dec, HEAP_HINT, DYNAMIC_TYPE_AES);
 8002270:	f44f 709c 	mov.w	r0, #312	; 0x138
 8002274:	f018 fe94 	bl	801afa0 <malloc>
 8002278:	4605      	mov	r5, r0
    if (enc == NULL)
 800227a:	2e00      	cmp	r6, #0
 800227c:	f000 82d4 	beq.w	8002828 <aes_test+0x5c8>
    if (dec == NULL)
 8002280:	2800      	cmp	r0, #0
 8002282:	f000 8321 	beq.w	80028c8 <aes_test+0x668>
    ret = wc_AesInit(enc, HEAP_HINT, devId);
 8002286:	f06f 0201 	mvn.w	r2, #1
 800228a:	2100      	movs	r1, #0
 800228c:	4630      	mov	r0, r6
 800228e:	f006 fbd8 	bl	8008a42 <wc_AesInit>
    if (ret != 0)
 8002292:	4607      	mov	r7, r0
 8002294:	b140      	cbz	r0, 80022a8 <aes_test+0x48>
        ERROR_OUT(WC_TEST_RET_ENC_EC(ret), out);
 8002296:	499c      	ldr	r1, [pc, #624]	; (8002508 <aes_test+0x2a8>)
 8002298:	4c9c      	ldr	r4, [pc, #624]	; (800250c <aes_test+0x2ac>)
 800229a:	4240      	negs	r0, r0
 800229c:	f3c0 000a 	ubfx	r0, r0, #0, #11
 80022a0:	fb01 4400 	mla	r4, r1, r0, r4
        return WC_TEST_RET_ENC_NC;
 80022a4:	2700      	movs	r7, #0
 80022a6:	e010      	b.n	80022ca <aes_test+0x6a>
    ret = wc_AesInit(dec, HEAP_HINT, devId);
 80022a8:	4601      	mov	r1, r0
 80022aa:	f06f 0201 	mvn.w	r2, #1
 80022ae:	4628      	mov	r0, r5
 80022b0:	f006 fbc7 	bl	8008a42 <wc_AesInit>
    if (ret != 0)
 80022b4:	b1c0      	cbz	r0, 80022e8 <aes_test+0x88>
        ERROR_OUT(WC_TEST_RET_ENC_EC(ret), out);
 80022b6:	4240      	negs	r0, r0
 80022b8:	4993      	ldr	r1, [pc, #588]	; (8002508 <aes_test+0x2a8>)
 80022ba:	4c95      	ldr	r4, [pc, #596]	; (8002510 <aes_test+0x2b0>)
 80022bc:	f3c0 000a 	ubfx	r0, r0, #0, #11
            ERROR_OUT(WC_TEST_RET_ENC_EC(ret), out);
 80022c0:	fb01 4400 	mla	r4, r1, r0, r4
            wc_AesFree(enc);
 80022c4:	4630      	mov	r0, r6
 80022c6:	f006 fbc4 	bl	8008a52 <wc_AesFree>
        XFREE(enc, HEAP_HINT, DYNAMIC_TYPE_AES);
 80022ca:	4630      	mov	r0, r6
 80022cc:	f018 fe70 	bl	801afb0 <free>
    if (dec) {
 80022d0:	b135      	cbz	r5, 80022e0 <aes_test+0x80>
        if (dec_inited)
 80022d2:	b117      	cbz	r7, 80022da <aes_test+0x7a>
            wc_AesFree(dec);
 80022d4:	4628      	mov	r0, r5
 80022d6:	f006 fbbc 	bl	8008a52 <wc_AesFree>
        XFREE(dec, HEAP_HINT, DYNAMIC_TYPE_AES);
 80022da:	4628      	mov	r0, r5
 80022dc:	f018 fe68 	bl	801afb0 <free>
}
 80022e0:	4620      	mov	r0, r4
 80022e2:	b03b      	add	sp, #236	; 0xec
 80022e4:	e8bd 8ff0 	ldmia.w	sp!, {r4, r5, r6, r7, r8, r9, sl, fp, pc}
    ret = wc_AesSetKey(enc, key, AES_BLOCK_SIZE, iv, AES_ENCRYPTION);
 80022e8:	4b8a      	ldr	r3, [pc, #552]	; (8002514 <aes_test+0x2b4>)
 80022ea:	498b      	ldr	r1, [pc, #556]	; (8002518 <aes_test+0x2b8>)
 80022ec:	9700      	str	r7, [sp, #0]
 80022ee:	2210      	movs	r2, #16
 80022f0:	4630      	mov	r0, r6
 80022f2:	f004 fed7 	bl	80070a4 <wc_AesSetKey>
    if (ret != 0)
 80022f6:	b138      	cbz	r0, 8002308 <aes_test+0xa8>
        ERROR_OUT(WC_TEST_RET_ENC_EC(ret), out);
 80022f8:	4240      	negs	r0, r0
 80022fa:	4983      	ldr	r1, [pc, #524]	; (8002508 <aes_test+0x2a8>)
 80022fc:	4c87      	ldr	r4, [pc, #540]	; (800251c <aes_test+0x2bc>)
 80022fe:	f3c0 000a 	ubfx	r0, r0, #0, #11
        return WC_TEST_RET_ENC_EC(ret);
 8002302:	fb01 4400 	mla	r4, r1, r0, r4
 8002306:	e0fd      	b.n	8002504 <aes_test+0x2a4>
    ret = wc_AesSetKey(dec, key, AES_BLOCK_SIZE, iv, AES_DECRYPTION);
 8002308:	f04f 0801 	mov.w	r8, #1
 800230c:	4b81      	ldr	r3, [pc, #516]	; (8002514 <aes_test+0x2b4>)
 800230e:	4982      	ldr	r1, [pc, #520]	; (8002518 <aes_test+0x2b8>)
 8002310:	f8cd 8000 	str.w	r8, [sp]
 8002314:	2210      	movs	r2, #16
 8002316:	4628      	mov	r0, r5
 8002318:	f004 fec4 	bl	80070a4 <wc_AesSetKey>
    if (ret != 0)
 800231c:	b128      	cbz	r0, 800232a <aes_test+0xca>
        ERROR_OUT(WC_TEST_RET_ENC_EC(ret), out);
 800231e:	4240      	negs	r0, r0
 8002320:	4979      	ldr	r1, [pc, #484]	; (8002508 <aes_test+0x2a8>)
 8002322:	4c7f      	ldr	r4, [pc, #508]	; (8002520 <aes_test+0x2c0>)
 8002324:	f3c0 000a 	ubfx	r0, r0, #0, #11
 8002328:	e7eb      	b.n	8002302 <aes_test+0xa2>
    XMEMSET(cipher, 0, AES_BLOCK_SIZE * 4);
 800232a:	2240      	movs	r2, #64	; 0x40
 800232c:	4639      	mov	r1, r7
 800232e:	a81a      	add	r0, sp, #104	; 0x68
 8002330:	f018 fe7e 	bl	801b030 <memset>
    ret = wc_AesCbcEncrypt(enc, cipher, msg, AES_BLOCK_SIZE);
 8002334:	4a7b      	ldr	r2, [pc, #492]	; (8002524 <aes_test+0x2c4>)
 8002336:	2310      	movs	r3, #16
 8002338:	a91a      	add	r1, sp, #104	; 0x68
 800233a:	4630      	mov	r0, r6
 800233c:	f005 f8e2 	bl	8007504 <wc_AesCbcEncrypt>
    if (ret != 0)
 8002340:	b128      	cbz	r0, 800234e <aes_test+0xee>
        ERROR_OUT(WC_TEST_RET_ENC_EC(ret), out);
 8002342:	4240      	negs	r0, r0
 8002344:	4970      	ldr	r1, [pc, #448]	; (8002508 <aes_test+0x2a8>)
 8002346:	4c78      	ldr	r4, [pc, #480]	; (8002528 <aes_test+0x2c8>)
 8002348:	f3c0 000a 	ubfx	r0, r0, #0, #11
 800234c:	e7d9      	b.n	8002302 <aes_test+0xa2>
    XMEMSET(plain, 0, AES_BLOCK_SIZE * 4);
 800234e:	2240      	movs	r2, #64	; 0x40
 8002350:	4639      	mov	r1, r7
 8002352:	a82a      	add	r0, sp, #168	; 0xa8
 8002354:	f018 fe6c 	bl	801b030 <memset>
    ret = wc_AesCbcDecrypt(dec, plain, cipher, AES_BLOCK_SIZE);
 8002358:	2310      	movs	r3, #16
 800235a:	aa1a      	add	r2, sp, #104	; 0x68
 800235c:	a92a      	add	r1, sp, #168	; 0xa8
 800235e:	4628      	mov	r0, r5
 8002360:	f005 f8fa 	bl	8007558 <wc_AesCbcDecrypt>
    if (ret != 0)
 8002364:	b128      	cbz	r0, 8002372 <aes_test+0x112>
        ERROR_OUT(WC_TEST_RET_ENC_EC(ret), out);
 8002366:	4240      	negs	r0, r0
 8002368:	4967      	ldr	r1, [pc, #412]	; (8002508 <aes_test+0x2a8>)
 800236a:	4c70      	ldr	r4, [pc, #448]	; (800252c <aes_test+0x2cc>)
 800236c:	f3c0 000a 	ubfx	r0, r0, #0, #11
 8002370:	e7c7      	b.n	8002302 <aes_test+0xa2>
    if (XMEMCMP(plain, msg, AES_BLOCK_SIZE))
 8002372:	496c      	ldr	r1, [pc, #432]	; (8002524 <aes_test+0x2c4>)
 8002374:	2210      	movs	r2, #16
 8002376:	a82a      	add	r0, sp, #168	; 0xa8
 8002378:	f018 fe22 	bl	801afc0 <memcmp>
 800237c:	2800      	cmp	r0, #0
 800237e:	f040 8258 	bne.w	8002832 <aes_test+0x5d2>
    if (XMEMCMP(cipher, verify, AES_BLOCK_SIZE))
 8002382:	496b      	ldr	r1, [pc, #428]	; (8002530 <aes_test+0x2d0>)
 8002384:	2210      	movs	r2, #16
 8002386:	a81a      	add	r0, sp, #104	; 0x68
 8002388:	f018 fe1a 	bl	801afc0 <memcmp>
 800238c:	2800      	cmp	r0, #0
 800238e:	f040 8252 	bne.w	8002836 <aes_test+0x5d6>
        ret = wc_AesSetKey(enc, key2, sizeof(key2), iv2, AES_ENCRYPTION);
 8002392:	2300      	movs	r3, #0
 8002394:	4967      	ldr	r1, [pc, #412]	; (8002534 <aes_test+0x2d4>)
 8002396:	9300      	str	r3, [sp, #0]
 8002398:	2210      	movs	r2, #16
 800239a:	4b67      	ldr	r3, [pc, #412]	; (8002538 <aes_test+0x2d8>)
 800239c:	4630      	mov	r0, r6
 800239e:	f004 fe81 	bl	80070a4 <wc_AesSetKey>
        if (ret != 0)
 80023a2:	4601      	mov	r1, r0
 80023a4:	b128      	cbz	r0, 80023b2 <aes_test+0x152>
            ERROR_OUT(WC_TEST_RET_ENC_EC(ret), out);
 80023a6:	4241      	negs	r1, r0
 80023a8:	f3c1 000a 	ubfx	r0, r1, #0, #11
 80023ac:	4c63      	ldr	r4, [pc, #396]	; (800253c <aes_test+0x2dc>)
 80023ae:	4956      	ldr	r1, [pc, #344]	; (8002508 <aes_test+0x2a8>)
 80023b0:	e7a7      	b.n	8002302 <aes_test+0xa2>
        XMEMSET(cipher, 0, AES_BLOCK_SIZE * 2);
 80023b2:	2220      	movs	r2, #32
 80023b4:	a81a      	add	r0, sp, #104	; 0x68
 80023b6:	f018 fe3b 	bl	801b030 <memset>
        ret = wc_AesCbcEncrypt(enc, cipher, msg2, AES_BLOCK_SIZE);
 80023ba:	4a61      	ldr	r2, [pc, #388]	; (8002540 <aes_test+0x2e0>)
 80023bc:	2310      	movs	r3, #16
 80023be:	a91a      	add	r1, sp, #104	; 0x68
 80023c0:	4630      	mov	r0, r6
 80023c2:	f005 f89f 	bl	8007504 <wc_AesCbcEncrypt>
        if (ret != 0)
 80023c6:	b128      	cbz	r0, 80023d4 <aes_test+0x174>
            ERROR_OUT(WC_TEST_RET_ENC_EC(ret), out);
 80023c8:	4240      	negs	r0, r0
 80023ca:	494f      	ldr	r1, [pc, #316]	; (8002508 <aes_test+0x2a8>)
 80023cc:	4c5d      	ldr	r4, [pc, #372]	; (8002544 <aes_test+0x2e4>)
 80023ce:	f3c0 000a 	ubfx	r0, r0, #0, #11
 80023d2:	e796      	b.n	8002302 <aes_test+0xa2>
        if (XMEMCMP(cipher, verify2, AES_BLOCK_SIZE))
 80023d4:	495c      	ldr	r1, [pc, #368]	; (8002548 <aes_test+0x2e8>)
 80023d6:	2210      	movs	r2, #16
 80023d8:	a81a      	add	r0, sp, #104	; 0x68
 80023da:	f018 fdf1 	bl	801afc0 <memcmp>
 80023de:	2800      	cmp	r0, #0
 80023e0:	f040 822b 	bne.w	800283a <aes_test+0x5da>
        ret = wc_AesCbcEncrypt(enc, cipher + AES_BLOCK_SIZE,
 80023e4:	4a59      	ldr	r2, [pc, #356]	; (800254c <aes_test+0x2ec>)
 80023e6:	2310      	movs	r3, #16
 80023e8:	a91e      	add	r1, sp, #120	; 0x78
 80023ea:	4630      	mov	r0, r6
 80023ec:	f005 f88a 	bl	8007504 <wc_AesCbcEncrypt>
        if (ret != 0)
 80023f0:	b128      	cbz	r0, 80023fe <aes_test+0x19e>
            ERROR_OUT(WC_TEST_RET_ENC_EC(ret), out);
 80023f2:	4240      	negs	r0, r0
 80023f4:	4944      	ldr	r1, [pc, #272]	; (8002508 <aes_test+0x2a8>)
 80023f6:	4c56      	ldr	r4, [pc, #344]	; (8002550 <aes_test+0x2f0>)
 80023f8:	f3c0 000a 	ubfx	r0, r0, #0, #11
 80023fc:	e781      	b.n	8002302 <aes_test+0xa2>
        if (XMEMCMP(cipher + AES_BLOCK_SIZE, verify2 + AES_BLOCK_SIZE,
 80023fe:	4955      	ldr	r1, [pc, #340]	; (8002554 <aes_test+0x2f4>)
 8002400:	2210      	movs	r2, #16
 8002402:	a81e      	add	r0, sp, #120	; 0x78
 8002404:	f018 fddc 	bl	801afc0 <memcmp>
 8002408:	2701      	movs	r7, #1
 800240a:	2800      	cmp	r0, #0
 800240c:	f040 8217 	bne.w	800283e <aes_test+0x5de>
        ret = wc_AesSetKey(dec, key2, sizeof(key2), iv2, AES_DECRYPTION);
 8002410:	4948      	ldr	r1, [pc, #288]	; (8002534 <aes_test+0x2d4>)
 8002412:	4b49      	ldr	r3, [pc, #292]	; (8002538 <aes_test+0x2d8>)
 8002414:	9700      	str	r7, [sp, #0]
 8002416:	2210      	movs	r2, #16
 8002418:	4628      	mov	r0, r5
 800241a:	f004 fe43 	bl	80070a4 <wc_AesSetKey>
        if (ret != 0)
 800241e:	4601      	mov	r1, r0
 8002420:	b128      	cbz	r0, 800242e <aes_test+0x1ce>
            ERROR_OUT(WC_TEST_RET_ENC_EC(ret), out);
 8002422:	4241      	negs	r1, r0
 8002424:	f3c1 000a 	ubfx	r0, r1, #0, #11
 8002428:	4c4b      	ldr	r4, [pc, #300]	; (8002558 <aes_test+0x2f8>)
 800242a:	4937      	ldr	r1, [pc, #220]	; (8002508 <aes_test+0x2a8>)
 800242c:	e748      	b.n	80022c0 <aes_test+0x60>
        XMEMSET(plain, 0, AES_BLOCK_SIZE * 2);
 800242e:	2220      	movs	r2, #32
 8002430:	a82a      	add	r0, sp, #168	; 0xa8
 8002432:	f018 fdfd 	bl	801b030 <memset>
        ret = wc_AesCbcDecrypt(dec, plain, verify2, AES_BLOCK_SIZE);
 8002436:	4a44      	ldr	r2, [pc, #272]	; (8002548 <aes_test+0x2e8>)
 8002438:	2310      	movs	r3, #16
 800243a:	a92a      	add	r1, sp, #168	; 0xa8
 800243c:	4628      	mov	r0, r5
 800243e:	f005 f88b 	bl	8007558 <wc_AesCbcDecrypt>
        if (ret != 0)
 8002442:	b128      	cbz	r0, 8002450 <aes_test+0x1f0>
            ERROR_OUT(WC_TEST_RET_ENC_EC(ret), out);
 8002444:	4240      	negs	r0, r0
 8002446:	4930      	ldr	r1, [pc, #192]	; (8002508 <aes_test+0x2a8>)
 8002448:	4c44      	ldr	r4, [pc, #272]	; (800255c <aes_test+0x2fc>)
 800244a:	f3c0 000a 	ubfx	r0, r0, #0, #11
 800244e:	e737      	b.n	80022c0 <aes_test+0x60>
        if (XMEMCMP(plain, msg2, AES_BLOCK_SIZE))
 8002450:	493b      	ldr	r1, [pc, #236]	; (8002540 <aes_test+0x2e0>)
 8002452:	2210      	movs	r2, #16
 8002454:	a82a      	add	r0, sp, #168	; 0xa8
 8002456:	f018 fdb3 	bl	801afc0 <memcmp>
 800245a:	2800      	cmp	r0, #0
 800245c:	f040 81f1 	bne.w	8002842 <aes_test+0x5e2>
        ret = wc_AesCbcDecrypt(dec, plain + AES_BLOCK_SIZE,
 8002460:	4a3c      	ldr	r2, [pc, #240]	; (8002554 <aes_test+0x2f4>)
 8002462:	2310      	movs	r3, #16
 8002464:	a92e      	add	r1, sp, #184	; 0xb8
 8002466:	4628      	mov	r0, r5
 8002468:	f005 f876 	bl	8007558 <wc_AesCbcDecrypt>
        if (ret != 0)
 800246c:	b128      	cbz	r0, 800247a <aes_test+0x21a>
            ERROR_OUT(WC_TEST_RET_ENC_EC(ret), out);
 800246e:	4240      	negs	r0, r0
 8002470:	4925      	ldr	r1, [pc, #148]	; (8002508 <aes_test+0x2a8>)
 8002472:	4c3b      	ldr	r4, [pc, #236]	; (8002560 <aes_test+0x300>)
 8002474:	f3c0 000a 	ubfx	r0, r0, #0, #11
 8002478:	e722      	b.n	80022c0 <aes_test+0x60>
        if (XMEMCMP(plain + AES_BLOCK_SIZE, msg2 + AES_BLOCK_SIZE,
 800247a:	4934      	ldr	r1, [pc, #208]	; (800254c <aes_test+0x2ec>)
 800247c:	2210      	movs	r2, #16
 800247e:	a82e      	add	r0, sp, #184	; 0xb8
 8002480:	f018 fd9e 	bl	801afc0 <memcmp>
 8002484:	2800      	cmp	r0, #0
 8002486:	f040 81de 	bne.w	8002846 <aes_test+0x5e6>
    byte   key16[] = { 0x30, 0x31, 0x32, 0x33, 0x34, 0x35, 0x36, 0x37,
 800248a:	4b36      	ldr	r3, [pc, #216]	; (8002564 <aes_test+0x304>)
 800248c:	aa03      	add	r2, sp, #12
 800248e:	f103 0710 	add.w	r7, r3, #16
 8002492:	4690      	mov	r8, r2
 8002494:	6818      	ldr	r0, [r3, #0]
 8002496:	6859      	ldr	r1, [r3, #4]
 8002498:	4614      	mov	r4, r2
 800249a:	c403      	stmia	r4!, {r0, r1}
 800249c:	3308      	adds	r3, #8
 800249e:	42bb      	cmp	r3, r7
 80024a0:	4622      	mov	r2, r4
 80024a2:	d1f7      	bne.n	8002494 <aes_test+0x234>
    byte   key24[] = { 0x30, 0x31, 0x32, 0x33, 0x34, 0x35, 0x36, 0x37,
 80024a4:	4b30      	ldr	r3, [pc, #192]	; (8002568 <aes_test+0x308>)
 80024a6:	aa0c      	add	r2, sp, #48	; 0x30
 80024a8:	f103 0718 	add.w	r7, r3, #24
 80024ac:	4691      	mov	r9, r2
 80024ae:	6818      	ldr	r0, [r3, #0]
 80024b0:	6859      	ldr	r1, [r3, #4]
 80024b2:	4614      	mov	r4, r2
 80024b4:	c403      	stmia	r4!, {r0, r1}
 80024b6:	3308      	adds	r3, #8
 80024b8:	42bb      	cmp	r3, r7
 80024ba:	4622      	mov	r2, r4
 80024bc:	d1f7      	bne.n	80024ae <aes_test+0x24e>
    byte   key32[] = { 0x30, 0x31, 0x32, 0x33, 0x34, 0x35, 0x36, 0x37,
 80024be:	4b2b      	ldr	r3, [pc, #172]	; (800256c <aes_test+0x30c>)
 80024c0:	aa12      	add	r2, sp, #72	; 0x48
 80024c2:	f103 0720 	add.w	r7, r3, #32
 80024c6:	4692      	mov	sl, r2
 80024c8:	6818      	ldr	r0, [r3, #0]
 80024ca:	6859      	ldr	r1, [r3, #4]
 80024cc:	4614      	mov	r4, r2
 80024ce:	c403      	stmia	r4!, {r0, r1}
 80024d0:	3308      	adds	r3, #8
 80024d2:	42bb      	cmp	r3, r7
 80024d4:	4622      	mov	r2, r4
 80024d6:	d1f7      	bne.n	80024c8 <aes_test+0x268>
    byte   iv[]    = "1234567890abcdef";
 80024d8:	4b25      	ldr	r3, [pc, #148]	; (8002570 <aes_test+0x310>)
 80024da:	aa07      	add	r2, sp, #28
 80024dc:	f103 0710 	add.w	r7, r3, #16
 80024e0:	4693      	mov	fp, r2
 80024e2:	6818      	ldr	r0, [r3, #0]
 80024e4:	6859      	ldr	r1, [r3, #4]
 80024e6:	4614      	mov	r4, r2
 80024e8:	c403      	stmia	r4!, {r0, r1}
 80024ea:	3308      	adds	r3, #8
 80024ec:	42bb      	cmp	r3, r7
 80024ee:	4622      	mov	r2, r4
 80024f0:	d1f7      	bne.n	80024e2 <aes_test+0x282>
 80024f2:	781b      	ldrb	r3, [r3, #0]
 80024f4:	7023      	strb	r3, [r4, #0]
    if ((aes = (Aes *)XMALLOC(sizeof *aes, HEAP_HINT, DYNAMIC_TYPE_AES)) == NULL)
 80024f6:	f44f 709c 	mov.w	r0, #312	; 0x138
 80024fa:	f018 fd51 	bl	801afa0 <malloc>
 80024fe:	4607      	mov	r7, r0
 8002500:	bbd0      	cbnz	r0, 8002578 <aes_test+0x318>
        return WC_TEST_RET_ENC_ERRNO;
 8002502:	4c1c      	ldr	r4, [pc, #112]	; (8002574 <aes_test+0x314>)
    dec_inited = 1;
 8002504:	2701      	movs	r7, #1
 8002506:	e6dd      	b.n	80022c4 <aes_test+0x64>
 8002508:	fffe7960 	.word	0xfffe7960
 800250c:	dfffd4d1 	.word	0xdfffd4d1
 8002510:	dfffd4cc 	.word	0xdfffd4cc
 8002514:	0801f0ba 	.word	0x0801f0ba
 8002518:	0801f1c7 	.word	0x0801f1c7
 800251c:	dfffd4c6 	.word	0xdfffd4c6
 8002520:	dfffd4c2 	.word	0xdfffd4c2
 8002524:	0801f243 	.word	0x0801f243
 8002528:	dfffd4b9 	.word	0xdfffd4b9
 800252c:	dfffd4b1 	.word	0xdfffd4b1
 8002530:	0801fc98 	.word	0x0801fc98
 8002534:	0801f1e3 	.word	0x0801f1e3
 8002538:	0801f136 	.word	0x0801f136
 800253c:	dfffd405 	.word	0xdfffd405
 8002540:	0801f25d 	.word	0x0801f25d
 8002544:	dfffd3fe 	.word	0xdfffd3fe
 8002548:	0801fcc0 	.word	0x0801fcc0
 800254c:	0801f26d 	.word	0x0801f26d
 8002550:	dfffd3f3 	.word	0xdfffd3f3
 8002554:	0801fcd0 	.word	0x0801fcd0
 8002558:	dfffd3eb 	.word	0xdfffd3eb
 800255c:	dfffd3e4 	.word	0xdfffd3e4
 8002560:	dfffd3da 	.word	0xdfffd3da
 8002564:	0801e2d1 	.word	0x0801e2d1
 8002568:	0801e2a8 	.word	0x0801e2a8
 800256c:	0801e2c1 	.word	0x0801e2c1
 8002570:	0801e2e2 	.word	0x0801e2e2
 8002574:	ffffdc0b 	.word	0xffffdc0b
    ret = wc_AesInit(NULL, HEAP_HINT, devId);
 8002578:	2100      	movs	r1, #0
 800257a:	f06f 0201 	mvn.w	r2, #1
 800257e:	4608      	mov	r0, r1
 8002580:	f006 fa5f 	bl	8008a42 <wc_AesInit>
    if (ret != BAD_FUNC_ARG)
 8002584:	f110 0fad 	cmn.w	r0, #173	; 0xad
 8002588:	d048      	beq.n	800261c <aes_test+0x3bc>
        ERROR_OUT(WC_TEST_RET_ENC_EC(ret), out);
 800258a:	4240      	negs	r0, r0
 800258c:	49af      	ldr	r1, [pc, #700]	; (800284c <aes_test+0x5ec>)
 800258e:	4cb0      	ldr	r4, [pc, #704]	; (8002850 <aes_test+0x5f0>)
 8002590:	f3c0 000a 	ubfx	r0, r0, #0, #11
        ERROR_OUT(WC_TEST_RET_ENC_EC(ret), out);
 8002594:	fb01 4400 	mla	r4, r1, r0, r4
    wc_AesFree(aes);
 8002598:	4638      	mov	r0, r7
 800259a:	f006 fa5a 	bl	8008a52 <wc_AesFree>
    XFREE(aes, HEAP_HINT, DYNAMIC_TYPE_AES);
 800259e:	4638      	mov	r0, r7
 80025a0:	f018 fd06 	bl	801afb0 <free>
    if (ret != 0)
 80025a4:	2c00      	cmp	r4, #0
 80025a6:	d1ad      	bne.n	8002504 <aes_test+0x2a4>
    byte key[] = "0123456789abcdef   ";  /* align */
 80025a8:	4baa      	ldr	r3, [pc, #680]	; (8002854 <aes_test+0x5f4>)
 80025aa:	464a      	mov	r2, r9
 80025ac:	f103 0710 	add.w	r7, r3, #16
 80025b0:	6818      	ldr	r0, [r3, #0]
 80025b2:	6859      	ldr	r1, [r3, #4]
 80025b4:	4614      	mov	r4, r2
 80025b6:	c403      	stmia	r4!, {r0, r1}
 80025b8:	3308      	adds	r3, #8
 80025ba:	42bb      	cmp	r3, r7
 80025bc:	4622      	mov	r2, r4
 80025be:	d1f7      	bne.n	80025b0 <aes_test+0x350>
 80025c0:	6818      	ldr	r0, [r3, #0]
    byte iv[]  = "1234567890abcdef   ";  /* align */
 80025c2:	4ba5      	ldr	r3, [pc, #660]	; (8002858 <aes_test+0x5f8>)
    byte key[] = "0123456789abcdef   ";  /* align */
 80025c4:	6020      	str	r0, [r4, #0]
    byte iv[]  = "1234567890abcdef   ";  /* align */
 80025c6:	4652      	mov	r2, sl
 80025c8:	f103 0710 	add.w	r7, r3, #16
 80025cc:	6818      	ldr	r0, [r3, #0]
 80025ce:	6859      	ldr	r1, [r3, #4]
 80025d0:	4614      	mov	r4, r2
 80025d2:	c403      	stmia	r4!, {r0, r1}
 80025d4:	3308      	adds	r3, #8
 80025d6:	42bb      	cmp	r3, r7
 80025d8:	4622      	mov	r2, r4
 80025da:	d1f7      	bne.n	80025cc <aes_test+0x36c>
 80025dc:	6818      	ldr	r0, [r3, #0]
 80025de:	6020      	str	r0, [r4, #0]
    XMEMSET(cipher, 0, AES_BLOCK_SIZE);
 80025e0:	2210      	movs	r2, #16
 80025e2:	2100      	movs	r1, #0
 80025e4:	4640      	mov	r0, r8
 80025e6:	f018 fd23 	bl	801b030 <memset>
    ret = wc_AesCbcEncryptWithKey(cipher, msg, AES_BLOCK_SIZE, key, 17, NULL);
 80025ea:	2711      	movs	r7, #17
    XMEMSET(plain, 0, AES_BLOCK_SIZE);
 80025ec:	2210      	movs	r2, #16
 80025ee:	2100      	movs	r1, #0
 80025f0:	a807      	add	r0, sp, #28
    ret = wc_AesCbcEncryptWithKey(cipher, msg, AES_BLOCK_SIZE, key, 17, NULL);
 80025f2:	2400      	movs	r4, #0
    XMEMSET(plain, 0, AES_BLOCK_SIZE);
 80025f4:	f018 fd1c 	bl	801b030 <memset>
    ret = wc_AesCbcEncryptWithKey(cipher, msg, AES_BLOCK_SIZE, key, 17, NULL);
 80025f8:	e9cd 7400 	strd	r7, r4, [sp]
 80025fc:	4997      	ldr	r1, [pc, #604]	; (800285c <aes_test+0x5fc>)
 80025fe:	464b      	mov	r3, r9
 8002600:	2210      	movs	r2, #16
 8002602:	4640      	mov	r0, r8
 8002604:	f018 f868 	bl	801a6d8 <wc_AesCbcEncryptWithKey>
    if (ret != BAD_FUNC_ARG)
 8002608:	f110 0fad 	cmn.w	r0, #173	; 0xad
 800260c:	f000 80d1 	beq.w	80027b2 <aes_test+0x552>
        return WC_TEST_RET_ENC_EC(ret);
 8002610:	4240      	negs	r0, r0
 8002612:	498e      	ldr	r1, [pc, #568]	; (800284c <aes_test+0x5ec>)
 8002614:	4c92      	ldr	r4, [pc, #584]	; (8002860 <aes_test+0x600>)
 8002616:	f3c0 000a 	ubfx	r0, r0, #0, #11
 800261a:	e672      	b.n	8002302 <aes_test+0xa2>
    ret = wc_AesInit(aes, HEAP_HINT, devId);
 800261c:	f06f 0201 	mvn.w	r2, #1
 8002620:	2100      	movs	r1, #0
 8002622:	4638      	mov	r0, r7
 8002624:	f006 fa0d 	bl	8008a42 <wc_AesInit>
    if (ret != 0)
 8002628:	4604      	mov	r4, r0
 800262a:	b128      	cbz	r0, 8002638 <aes_test+0x3d8>
        ERROR_OUT(WC_TEST_RET_ENC_EC(ret), out);
 800262c:	4244      	negs	r4, r0
 800262e:	f3c4 000a 	ubfx	r0, r4, #0, #11
 8002632:	4986      	ldr	r1, [pc, #536]	; (800284c <aes_test+0x5ec>)
 8002634:	4c8b      	ldr	r4, [pc, #556]	; (8002864 <aes_test+0x604>)
 8002636:	e7ad      	b.n	8002594 <aes_test+0x334>
    ret = wc_AesGetKeySize(NULL, NULL);
 8002638:	4601      	mov	r1, r0
 800263a:	f006 fa0b 	bl	8008a54 <wc_AesGetKeySize>
    if (ret != BAD_FUNC_ARG)
 800263e:	f110 0fad 	cmn.w	r0, #173	; 0xad
 8002642:	d005      	beq.n	8002650 <aes_test+0x3f0>
        ERROR_OUT(WC_TEST_RET_ENC_EC(ret), out);
 8002644:	4240      	negs	r0, r0
 8002646:	4981      	ldr	r1, [pc, #516]	; (800284c <aes_test+0x5ec>)
 8002648:	4c87      	ldr	r4, [pc, #540]	; (8002868 <aes_test+0x608>)
 800264a:	f3c0 000a 	ubfx	r0, r0, #0, #11
 800264e:	e7a1      	b.n	8002594 <aes_test+0x334>
    ret = wc_AesGetKeySize(aes, NULL);
 8002650:	4621      	mov	r1, r4
 8002652:	4638      	mov	r0, r7
 8002654:	f006 f9fe 	bl	8008a54 <wc_AesGetKeySize>
    if (ret != BAD_FUNC_ARG)
 8002658:	f110 0fad 	cmn.w	r0, #173	; 0xad
 800265c:	d005      	beq.n	800266a <aes_test+0x40a>
        ERROR_OUT(WC_TEST_RET_ENC_EC(ret), out);
 800265e:	4240      	negs	r0, r0
 8002660:	497a      	ldr	r1, [pc, #488]	; (800284c <aes_test+0x5ec>)
 8002662:	4c82      	ldr	r4, [pc, #520]	; (800286c <aes_test+0x60c>)
 8002664:	f3c0 000a 	ubfx	r0, r0, #0, #11
 8002668:	e794      	b.n	8002594 <aes_test+0x334>
    ret = wc_AesGetKeySize(NULL, &keySize);
 800266a:	a902      	add	r1, sp, #8
 800266c:	4620      	mov	r0, r4
 800266e:	f006 f9f1 	bl	8008a54 <wc_AesGetKeySize>
    if (ret != BAD_FUNC_ARG)
 8002672:	f110 0fad 	cmn.w	r0, #173	; 0xad
 8002676:	d005      	beq.n	8002684 <aes_test+0x424>
        ERROR_OUT(WC_TEST_RET_ENC_EC(ret), out);
 8002678:	4240      	negs	r0, r0
 800267a:	4974      	ldr	r1, [pc, #464]	; (800284c <aes_test+0x5ec>)
 800267c:	4c7c      	ldr	r4, [pc, #496]	; (8002870 <aes_test+0x610>)
 800267e:	f3c0 000a 	ubfx	r0, r0, #0, #11
 8002682:	e787      	b.n	8002594 <aes_test+0x334>
    ret = wc_AesSetKey(NULL, key16, sizeof(key16), iv, AES_ENCRYPTION);
 8002684:	9400      	str	r4, [sp, #0]
 8002686:	465b      	mov	r3, fp
 8002688:	2210      	movs	r2, #16
 800268a:	4641      	mov	r1, r8
 800268c:	4620      	mov	r0, r4
 800268e:	f004 fd09 	bl	80070a4 <wc_AesSetKey>
    if (ret != BAD_FUNC_ARG)
 8002692:	f110 0fad 	cmn.w	r0, #173	; 0xad
 8002696:	d005      	beq.n	80026a4 <aes_test+0x444>
        ERROR_OUT(WC_TEST_RET_ENC_EC(ret), out);
 8002698:	4240      	negs	r0, r0
 800269a:	496c      	ldr	r1, [pc, #432]	; (800284c <aes_test+0x5ec>)
 800269c:	4c75      	ldr	r4, [pc, #468]	; (8002874 <aes_test+0x614>)
 800269e:	f3c0 000a 	ubfx	r0, r0, #0, #11
 80026a2:	e777      	b.n	8002594 <aes_test+0x334>
    ret = wc_AesSetKey(aes, key16, sizeof(key16), NULL, AES_ENCRYPTION);
 80026a4:	9400      	str	r4, [sp, #0]
 80026a6:	4623      	mov	r3, r4
 80026a8:	2210      	movs	r2, #16
 80026aa:	4641      	mov	r1, r8
 80026ac:	4638      	mov	r0, r7
 80026ae:	f004 fcf9 	bl	80070a4 <wc_AesSetKey>
    if (ret != 0)
 80026b2:	b128      	cbz	r0, 80026c0 <aes_test+0x460>
        ERROR_OUT(WC_TEST_RET_ENC_EC(ret), out);
 80026b4:	4240      	negs	r0, r0
 80026b6:	4965      	ldr	r1, [pc, #404]	; (800284c <aes_test+0x5ec>)
 80026b8:	4c6f      	ldr	r4, [pc, #444]	; (8002878 <aes_test+0x618>)
 80026ba:	f3c0 000a 	ubfx	r0, r0, #0, #11
 80026be:	e769      	b.n	8002594 <aes_test+0x334>
    ret = wc_AesSetKey(aes, key32, sizeof(key32) - 1, iv, AES_ENCRYPTION);
 80026c0:	9000      	str	r0, [sp, #0]
 80026c2:	465b      	mov	r3, fp
 80026c4:	221f      	movs	r2, #31
 80026c6:	4651      	mov	r1, sl
 80026c8:	4638      	mov	r0, r7
 80026ca:	f004 fceb 	bl	80070a4 <wc_AesSetKey>
    if (ret != BAD_FUNC_ARG)
 80026ce:	f110 0fad 	cmn.w	r0, #173	; 0xad
 80026d2:	d005      	beq.n	80026e0 <aes_test+0x480>
        ERROR_OUT(WC_TEST_RET_ENC_EC(ret), out);
 80026d4:	4240      	negs	r0, r0
 80026d6:	495d      	ldr	r1, [pc, #372]	; (800284c <aes_test+0x5ec>)
 80026d8:	4c68      	ldr	r4, [pc, #416]	; (800287c <aes_test+0x61c>)
 80026da:	f3c0 000a 	ubfx	r0, r0, #0, #11
 80026de:	e759      	b.n	8002594 <aes_test+0x334>
    aes->rounds = 16;
 80026e0:	2410      	movs	r4, #16
 80026e2:	f8c7 40f0 	str.w	r4, [r7, #240]	; 0xf0
    ret = wc_AesGetKeySize(aes, &keySize);
 80026e6:	a902      	add	r1, sp, #8
 80026e8:	4638      	mov	r0, r7
 80026ea:	f006 f9b3 	bl	8008a54 <wc_AesGetKeySize>
    if (ret != BAD_FUNC_ARG)
 80026ee:	f110 0fad 	cmn.w	r0, #173	; 0xad
 80026f2:	d005      	beq.n	8002700 <aes_test+0x4a0>
        ERROR_OUT(WC_TEST_RET_ENC_EC(ret), out);
 80026f4:	4240      	negs	r0, r0
 80026f6:	4955      	ldr	r1, [pc, #340]	; (800284c <aes_test+0x5ec>)
 80026f8:	4c61      	ldr	r4, [pc, #388]	; (8002880 <aes_test+0x620>)
 80026fa:	f3c0 000a 	ubfx	r0, r0, #0, #11
 80026fe:	e749      	b.n	8002594 <aes_test+0x334>
    ret = wc_AesSetKey(aes, key16, sizeof(key16), iv, AES_ENCRYPTION);
 8002700:	2300      	movs	r3, #0
 8002702:	9300      	str	r3, [sp, #0]
 8002704:	4622      	mov	r2, r4
 8002706:	465b      	mov	r3, fp
 8002708:	4641      	mov	r1, r8
 800270a:	4638      	mov	r0, r7
 800270c:	f004 fcca 	bl	80070a4 <wc_AesSetKey>
    if (ret != 0)
 8002710:	b128      	cbz	r0, 800271e <aes_test+0x4be>
        ERROR_OUT(WC_TEST_RET_ENC_EC(ret), out);
 8002712:	4240      	negs	r0, r0
 8002714:	494d      	ldr	r1, [pc, #308]	; (800284c <aes_test+0x5ec>)
 8002716:	4c5b      	ldr	r4, [pc, #364]	; (8002884 <aes_test+0x624>)
 8002718:	f3c0 000a 	ubfx	r0, r0, #0, #11
 800271c:	e73a      	b.n	8002594 <aes_test+0x334>
    ret = wc_AesGetKeySize(aes, &keySize);
 800271e:	a902      	add	r1, sp, #8
 8002720:	4638      	mov	r0, r7
 8002722:	f006 f997 	bl	8008a54 <wc_AesGetKeySize>
    if (ret != 0 || keySize != sizeof(key16))
 8002726:	b910      	cbnz	r0, 800272e <aes_test+0x4ce>
 8002728:	9b02      	ldr	r3, [sp, #8]
 800272a:	2b10      	cmp	r3, #16
 800272c:	d005      	beq.n	800273a <aes_test+0x4da>
        ERROR_OUT(WC_TEST_RET_ENC_EC(ret), out);
 800272e:	4240      	negs	r0, r0
 8002730:	4946      	ldr	r1, [pc, #280]	; (800284c <aes_test+0x5ec>)
 8002732:	4c55      	ldr	r4, [pc, #340]	; (8002888 <aes_test+0x628>)
 8002734:	f3c0 000a 	ubfx	r0, r0, #0, #11
 8002738:	e72c      	b.n	8002594 <aes_test+0x334>
    ret = wc_AesSetKey(aes, key24, sizeof(key24), iv, AES_ENCRYPTION);
 800273a:	9000      	str	r0, [sp, #0]
 800273c:	465b      	mov	r3, fp
 800273e:	2218      	movs	r2, #24
 8002740:	4649      	mov	r1, r9
 8002742:	4638      	mov	r0, r7
 8002744:	f004 fcae 	bl	80070a4 <wc_AesSetKey>
    if (ret != 0)
 8002748:	b128      	cbz	r0, 8002756 <aes_test+0x4f6>
        ERROR_OUT(WC_TEST_RET_ENC_EC(ret), out);
 800274a:	4240      	negs	r0, r0
 800274c:	493f      	ldr	r1, [pc, #252]	; (800284c <aes_test+0x5ec>)
 800274e:	4c4f      	ldr	r4, [pc, #316]	; (800288c <aes_test+0x62c>)
 8002750:	f3c0 000a 	ubfx	r0, r0, #0, #11
 8002754:	e71e      	b.n	8002594 <aes_test+0x334>
    ret = wc_AesGetKeySize(aes, &keySize);
 8002756:	a902      	add	r1, sp, #8
 8002758:	4638      	mov	r0, r7
 800275a:	f006 f97b 	bl	8008a54 <wc_AesGetKeySize>
    if (ret != 0 || keySize != sizeof(key24))
 800275e:	b910      	cbnz	r0, 8002766 <aes_test+0x506>
 8002760:	9b02      	ldr	r3, [sp, #8]
 8002762:	2b18      	cmp	r3, #24
 8002764:	d005      	beq.n	8002772 <aes_test+0x512>
        ERROR_OUT(WC_TEST_RET_ENC_EC(ret), out);
 8002766:	4240      	negs	r0, r0
 8002768:	4938      	ldr	r1, [pc, #224]	; (800284c <aes_test+0x5ec>)
 800276a:	4c49      	ldr	r4, [pc, #292]	; (8002890 <aes_test+0x630>)
 800276c:	f3c0 000a 	ubfx	r0, r0, #0, #11
 8002770:	e710      	b.n	8002594 <aes_test+0x334>
    ret = wc_AesSetKey(aes, key32, sizeof(key32), iv, AES_ENCRYPTION);
 8002772:	9000      	str	r0, [sp, #0]
 8002774:	465b      	mov	r3, fp
 8002776:	2220      	movs	r2, #32
 8002778:	4651      	mov	r1, sl
 800277a:	4638      	mov	r0, r7
 800277c:	f004 fc92 	bl	80070a4 <wc_AesSetKey>
    if (ret != 0)
 8002780:	b128      	cbz	r0, 800278e <aes_test+0x52e>
        ERROR_OUT(WC_TEST_RET_ENC_EC(ret), out);
 8002782:	4240      	negs	r0, r0
 8002784:	4931      	ldr	r1, [pc, #196]	; (800284c <aes_test+0x5ec>)
 8002786:	4c43      	ldr	r4, [pc, #268]	; (8002894 <aes_test+0x634>)
 8002788:	f3c0 000a 	ubfx	r0, r0, #0, #11
 800278c:	e702      	b.n	8002594 <aes_test+0x334>
    ret = wc_AesGetKeySize(aes, &keySize);
 800278e:	a902      	add	r1, sp, #8
 8002790:	4638      	mov	r0, r7
 8002792:	f006 f95f 	bl	8008a54 <wc_AesGetKeySize>
    if (ret != 0 || keySize != sizeof(key32))
 8002796:	4604      	mov	r4, r0
 8002798:	b918      	cbnz	r0, 80027a2 <aes_test+0x542>
 800279a:	9b02      	ldr	r3, [sp, #8]
 800279c:	2b20      	cmp	r3, #32
 800279e:	f43f aefb 	beq.w	8002598 <aes_test+0x338>
        ERROR_OUT(WC_TEST_RET_ENC_EC(ret), out);
 80027a2:	492a      	ldr	r1, [pc, #168]	; (800284c <aes_test+0x5ec>)
 80027a4:	483c      	ldr	r0, [pc, #240]	; (8002898 <aes_test+0x638>)
 80027a6:	4264      	negs	r4, r4
 80027a8:	f3c4 040a 	ubfx	r4, r4, #0, #11
 80027ac:	fb01 0404 	mla	r4, r1, r4, r0
 80027b0:	e6f2      	b.n	8002598 <aes_test+0x338>
    ret = wc_AesCbcDecryptWithKey(plain, cipher, AES_BLOCK_SIZE, key, 17, NULL);
 80027b2:	e9cd 7400 	strd	r7, r4, [sp]
 80027b6:	464b      	mov	r3, r9
 80027b8:	2210      	movs	r2, #16
 80027ba:	4641      	mov	r1, r8
 80027bc:	a807      	add	r0, sp, #28
 80027be:	f017 ff4f 	bl	801a660 <wc_AesCbcDecryptWithKey>
    if (ret != BAD_FUNC_ARG)
 80027c2:	f110 0fad 	cmn.w	r0, #173	; 0xad
 80027c6:	d005      	beq.n	80027d4 <aes_test+0x574>
        return WC_TEST_RET_ENC_EC(ret);
 80027c8:	4240      	negs	r0, r0
 80027ca:	4920      	ldr	r1, [pc, #128]	; (800284c <aes_test+0x5ec>)
 80027cc:	4c33      	ldr	r4, [pc, #204]	; (800289c <aes_test+0x63c>)
 80027ce:	f3c0 000a 	ubfx	r0, r0, #0, #11
 80027d2:	e596      	b.n	8002302 <aes_test+0xa2>
    ret = wc_AesCbcEncryptWithKey(cipher, msg, AES_BLOCK_SIZE, key,
 80027d4:	2710      	movs	r7, #16
 80027d6:	4921      	ldr	r1, [pc, #132]	; (800285c <aes_test+0x5fc>)
 80027d8:	f8cd a004 	str.w	sl, [sp, #4]
 80027dc:	9700      	str	r7, [sp, #0]
 80027de:	464b      	mov	r3, r9
 80027e0:	463a      	mov	r2, r7
 80027e2:	4640      	mov	r0, r8
 80027e4:	f017 ff78 	bl	801a6d8 <wc_AesCbcEncryptWithKey>
    if (ret != 0)
 80027e8:	b128      	cbz	r0, 80027f6 <aes_test+0x596>
        return WC_TEST_RET_ENC_EC(ret);
 80027ea:	4240      	negs	r0, r0
 80027ec:	4917      	ldr	r1, [pc, #92]	; (800284c <aes_test+0x5ec>)
 80027ee:	4c2c      	ldr	r4, [pc, #176]	; (80028a0 <aes_test+0x640>)
 80027f0:	f3c0 000a 	ubfx	r0, r0, #0, #11
 80027f4:	e585      	b.n	8002302 <aes_test+0xa2>
    ret = wc_AesCbcDecryptWithKey(plain, cipher, AES_BLOCK_SIZE, key,
 80027f6:	e9cd 7a00 	strd	r7, sl, [sp]
 80027fa:	464b      	mov	r3, r9
 80027fc:	463a      	mov	r2, r7
 80027fe:	4641      	mov	r1, r8
 8002800:	a807      	add	r0, sp, #28
 8002802:	f017 ff2d 	bl	801a660 <wc_AesCbcDecryptWithKey>
    if (ret != 0)
 8002806:	b128      	cbz	r0, 8002814 <aes_test+0x5b4>
        return WC_TEST_RET_ENC_EC(ret);
 8002808:	4240      	negs	r0, r0
 800280a:	4910      	ldr	r1, [pc, #64]	; (800284c <aes_test+0x5ec>)
 800280c:	4c25      	ldr	r4, [pc, #148]	; (80028a4 <aes_test+0x644>)
 800280e:	f3c0 000a 	ubfx	r0, r0, #0, #11
 8002812:	e576      	b.n	8002302 <aes_test+0xa2>
    if (XMEMCMP(plain, msg, AES_BLOCK_SIZE) != 0)
 8002814:	4911      	ldr	r1, [pc, #68]	; (800285c <aes_test+0x5fc>)
 8002816:	463a      	mov	r2, r7
 8002818:	a807      	add	r0, sp, #28
 800281a:	f018 fbd1 	bl	801afc0 <memcmp>
        return WC_TEST_RET_ENC_NC;
 800281e:	4b22      	ldr	r3, [pc, #136]	; (80028a8 <aes_test+0x648>)
 8002820:	1e04      	subs	r4, r0, #0
 8002822:	bf18      	it	ne
 8002824:	461c      	movne	r4, r3
    if (ret != 0)
 8002826:	e66d      	b.n	8002504 <aes_test+0x2a4>
        ERROR_OUT(WC_TEST_RET_ENC_ERRNO, out);
 8002828:	4c20      	ldr	r4, [pc, #128]	; (80028ac <aes_test+0x64c>)
    if (dec) {
 800282a:	2800      	cmp	r0, #0
 800282c:	f47f ad55 	bne.w	80022da <aes_test+0x7a>
 8002830:	e556      	b.n	80022e0 <aes_test+0x80>
        ERROR_OUT(WC_TEST_RET_ENC_NC, out);
 8002832:	4c1f      	ldr	r4, [pc, #124]	; (80028b0 <aes_test+0x650>)
 8002834:	e666      	b.n	8002504 <aes_test+0x2a4>
        ERROR_OUT(WC_TEST_RET_ENC_NC, out);
 8002836:	4c1f      	ldr	r4, [pc, #124]	; (80028b4 <aes_test+0x654>)
 8002838:	e664      	b.n	8002504 <aes_test+0x2a4>
            ERROR_OUT(WC_TEST_RET_ENC_NC, out);
 800283a:	4c1f      	ldr	r4, [pc, #124]	; (80028b8 <aes_test+0x658>)
 800283c:	e662      	b.n	8002504 <aes_test+0x2a4>
            ERROR_OUT(WC_TEST_RET_ENC_NC, out);
 800283e:	4c1f      	ldr	r4, [pc, #124]	; (80028bc <aes_test+0x65c>)
 8002840:	e540      	b.n	80022c4 <aes_test+0x64>
            ERROR_OUT(WC_TEST_RET_ENC_NC, out);
 8002842:	4c1f      	ldr	r4, [pc, #124]	; (80028c0 <aes_test+0x660>)
 8002844:	e53e      	b.n	80022c4 <aes_test+0x64>
            ERROR_OUT(WC_TEST_RET_ENC_NC, out);
 8002846:	4c1f      	ldr	r4, [pc, #124]	; (80028c4 <aes_test+0x664>)
 8002848:	e65c      	b.n	8002504 <aes_test+0x2a4>
 800284a:	bf00      	nop
 800284c:	fffe7960 	.word	0xfffe7960
 8002850:	dfffdc02 	.word	0xdfffdc02
 8002854:	0801e2f3 	.word	0x0801e2f3
 8002858:	0801e307 	.word	0x0801e307
 800285c:	0801f22b 	.word	0x0801f22b
 8002860:	dfffd7e9 	.word	0xdfffd7e9
 8002864:	dfffdbfc 	.word	0xdfffdbfc
 8002868:	dfffdbf6 	.word	0xdfffdbf6
 800286c:	dfffdbf3 	.word	0xdfffdbf3
 8002870:	dfffdbf0 	.word	0xdfffdbf0
 8002874:	dfffdbec 	.word	0xdfffdbec
 8002878:	dfffdbe3 	.word	0xdfffdbe3
 800287c:	dfffdbe0 	.word	0xdfffdbe0
 8002880:	dfffdbd7 	.word	0xdfffdbd7
 8002884:	dfffdbcd 	.word	0xdfffdbcd
 8002888:	dfffdbc9 	.word	0xdfffdbc9
 800288c:	dfffdbbf 	.word	0xdfffdbbf
 8002890:	dfffdbbb 	.word	0xdfffdbbb
 8002894:	dfffdbb2 	.word	0xdfffdbb2
 8002898:	dfffdbae 	.word	0xdfffdbae
 800289c:	dfffd7e5 	.word	0xdfffd7e5
 80028a0:	dfffd7df 	.word	0xdfffd7df
 80028a4:	dfffd7da 	.word	0xdfffd7da
 80028a8:	ffffd7d8 	.word	0xffffd7d8
 80028ac:	ffffd4db 	.word	0xffffd4db
 80028b0:	ffffd4ae 	.word	0xffffd4ae
 80028b4:	ffffd4a9 	.word	0xffffd4a9
 80028b8:	ffffd3fb 	.word	0xffffd3fb
 80028bc:	ffffd3f0 	.word	0xffffd3f0
 80028c0:	ffffd3e2 	.word	0xffffd3e2
 80028c4:	ffffd3d7 	.word	0xffffd3d7
        ERROR_OUT(WC_TEST_RET_ENC_ERRNO, out);
 80028c8:	4c00      	ldr	r4, [pc, #0]	; (80028cc <aes_test+0x66c>)
 80028ca:	e4eb      	b.n	80022a4 <aes_test+0x44>
 80028cc:	ffffd4d7 	.word	0xffffd4d7

080028d0 <aes192_test>:
{
 80028d0:	b570      	push	{r4, r5, r6, lr}
    if ((enc = (Aes *)XMALLOC(sizeof *enc, HEAP_HINT, DYNAMIC_TYPE_AES)) == NULL)
 80028d2:	f44f 709c 	mov.w	r0, #312	; 0x138
{
 80028d6:	b08a      	sub	sp, #40	; 0x28
    if ((enc = (Aes *)XMALLOC(sizeof *enc, HEAP_HINT, DYNAMIC_TYPE_AES)) == NULL)
 80028d8:	f018 fb62 	bl	801afa0 <malloc>
 80028dc:	4606      	mov	r6, r0
 80028de:	2800      	cmp	r0, #0
 80028e0:	f000 8081 	beq.w	80029e6 <aes192_test+0x116>
    if ((dec = (Aes *)XMALLOC(sizeof *dec, HEAP_HINT, DYNAMIC_TYPE_AES)) == NULL)
 80028e4:	f44f 709c 	mov.w	r0, #312	; 0x138
 80028e8:	f018 fb5a 	bl	801afa0 <malloc>
 80028ec:	4605      	mov	r5, r0
 80028ee:	2800      	cmp	r0, #0
 80028f0:	d07b      	beq.n	80029ea <aes192_test+0x11a>
    ret = wc_AesInit(enc, HEAP_HINT, devId);
 80028f2:	2100      	movs	r1, #0
 80028f4:	f06f 0201 	mvn.w	r2, #1
 80028f8:	4630      	mov	r0, r6
 80028fa:	f006 f8a2 	bl	8008a42 <wc_AesInit>
    if (ret != 0)
 80028fe:	4601      	mov	r1, r0
 8002900:	b180      	cbz	r0, 8002924 <aes192_test+0x54>
        ERROR_OUT(WC_TEST_RET_ENC_EC(ret), out);
 8002902:	4241      	negs	r1, r0
 8002904:	4c3c      	ldr	r4, [pc, #240]	; (80029f8 <aes192_test+0x128>)
 8002906:	483d      	ldr	r0, [pc, #244]	; (80029fc <aes192_test+0x12c>)
 8002908:	f3c1 010a 	ubfx	r1, r1, #0, #11
        ERROR_OUT(WC_TEST_RET_ENC_EC(ret), out);
 800290c:	fb01 4400 	mla	r4, r1, r0, r4
        XFREE(enc, HEAP_HINT, DYNAMIC_TYPE_AES);
 8002910:	4630      	mov	r0, r6
 8002912:	f018 fb4d 	bl	801afb0 <free>
    if (dec)
 8002916:	b115      	cbz	r5, 800291e <aes192_test+0x4e>
        XFREE(dec, HEAP_HINT, DYNAMIC_TYPE_AES);
 8002918:	4628      	mov	r0, r5
 800291a:	f018 fb49 	bl	801afb0 <free>
}
 800291e:	4620      	mov	r0, r4
 8002920:	b00a      	add	sp, #40	; 0x28
 8002922:	bd70      	pop	{r4, r5, r6, pc}
    ret = wc_AesInit(dec, HEAP_HINT, devId);
 8002924:	f06f 0201 	mvn.w	r2, #1
 8002928:	4628      	mov	r0, r5
 800292a:	f006 f88a 	bl	8008a42 <wc_AesInit>
    if (ret != 0)
 800292e:	b128      	cbz	r0, 800293c <aes192_test+0x6c>
        ERROR_OUT(WC_TEST_RET_ENC_EC(ret), out);
 8002930:	4240      	negs	r0, r0
 8002932:	4932      	ldr	r1, [pc, #200]	; (80029fc <aes192_test+0x12c>)
 8002934:	4c32      	ldr	r4, [pc, #200]	; (8002a00 <aes192_test+0x130>)
 8002936:	f3c0 000a 	ubfx	r0, r0, #0, #11
 800293a:	e7e7      	b.n	800290c <aes192_test+0x3c>
    ret = wc_AesSetKey(enc, key, (int) sizeof(key), iv, AES_ENCRYPTION);
 800293c:	9000      	str	r0, [sp, #0]
 800293e:	4b31      	ldr	r3, [pc, #196]	; (8002a04 <aes192_test+0x134>)
 8002940:	4931      	ldr	r1, [pc, #196]	; (8002a08 <aes192_test+0x138>)
 8002942:	2218      	movs	r2, #24
 8002944:	4630      	mov	r0, r6
 8002946:	f004 fbad 	bl	80070a4 <wc_AesSetKey>
    if (ret != 0)
 800294a:	b128      	cbz	r0, 8002958 <aes192_test+0x88>
        ERROR_OUT(WC_TEST_RET_ENC_EC(ret), out);
 800294c:	4240      	negs	r0, r0
 800294e:	492b      	ldr	r1, [pc, #172]	; (80029fc <aes192_test+0x12c>)
 8002950:	4c2e      	ldr	r4, [pc, #184]	; (8002a0c <aes192_test+0x13c>)
 8002952:	f3c0 000a 	ubfx	r0, r0, #0, #11
 8002956:	e7d9      	b.n	800290c <aes192_test+0x3c>
    ret = wc_AesSetKey(dec, key, (int) sizeof(key), iv, AES_DECRYPTION);
 8002958:	2301      	movs	r3, #1
 800295a:	492b      	ldr	r1, [pc, #172]	; (8002a08 <aes192_test+0x138>)
 800295c:	9300      	str	r3, [sp, #0]
 800295e:	2218      	movs	r2, #24
 8002960:	4b28      	ldr	r3, [pc, #160]	; (8002a04 <aes192_test+0x134>)
 8002962:	4628      	mov	r0, r5
 8002964:	f004 fb9e 	bl	80070a4 <wc_AesSetKey>
    if (ret != 0)
 8002968:	4601      	mov	r1, r0
 800296a:	b128      	cbz	r0, 8002978 <aes192_test+0xa8>
        ERROR_OUT(WC_TEST_RET_ENC_EC(ret), out);
 800296c:	4241      	negs	r1, r0
 800296e:	4c28      	ldr	r4, [pc, #160]	; (8002a10 <aes192_test+0x140>)
 8002970:	4822      	ldr	r0, [pc, #136]	; (80029fc <aes192_test+0x12c>)
 8002972:	f3c1 010a 	ubfx	r1, r1, #0, #11
 8002976:	e7c9      	b.n	800290c <aes192_test+0x3c>
    XMEMSET(cipher, 0, AES_BLOCK_SIZE);
 8002978:	2210      	movs	r2, #16
 800297a:	a802      	add	r0, sp, #8
 800297c:	f018 fb58 	bl	801b030 <memset>
    ret = wc_AesCbcEncrypt(enc, cipher, msg, (int) sizeof(msg));
 8002980:	a902      	add	r1, sp, #8
 8002982:	4a24      	ldr	r2, [pc, #144]	; (8002a14 <aes192_test+0x144>)
 8002984:	2310      	movs	r3, #16
 8002986:	4630      	mov	r0, r6
 8002988:	f004 fdbc 	bl	8007504 <wc_AesCbcEncrypt>
    if (ret != 0)
 800298c:	4601      	mov	r1, r0
 800298e:	b128      	cbz	r0, 800299c <aes192_test+0xcc>
        ERROR_OUT(WC_TEST_RET_ENC_EC(ret), out);
 8002990:	4241      	negs	r1, r0
 8002992:	4c21      	ldr	r4, [pc, #132]	; (8002a18 <aes192_test+0x148>)
 8002994:	4819      	ldr	r0, [pc, #100]	; (80029fc <aes192_test+0x12c>)
 8002996:	f3c1 010a 	ubfx	r1, r1, #0, #11
 800299a:	e7b7      	b.n	800290c <aes192_test+0x3c>
    XMEMSET(plain, 0, AES_BLOCK_SIZE);
 800299c:	2210      	movs	r2, #16
 800299e:	a806      	add	r0, sp, #24
 80029a0:	f018 fb46 	bl	801b030 <memset>
    ret = wc_AesCbcDecrypt(dec, plain, cipher, (int) sizeof(cipher));
 80029a4:	2310      	movs	r3, #16
 80029a6:	aa02      	add	r2, sp, #8
 80029a8:	a906      	add	r1, sp, #24
 80029aa:	4628      	mov	r0, r5
 80029ac:	f004 fdd4 	bl	8007558 <wc_AesCbcDecrypt>
    if (ret != 0)
 80029b0:	b128      	cbz	r0, 80029be <aes192_test+0xee>
        ERROR_OUT(WC_TEST_RET_ENC_EC(ret), out);
 80029b2:	4240      	negs	r0, r0
 80029b4:	4911      	ldr	r1, [pc, #68]	; (80029fc <aes192_test+0x12c>)
 80029b6:	4c19      	ldr	r4, [pc, #100]	; (8002a1c <aes192_test+0x14c>)
 80029b8:	f3c0 000a 	ubfx	r0, r0, #0, #11
 80029bc:	e7a6      	b.n	800290c <aes192_test+0x3c>
    if (XMEMCMP(plain, msg, (int) sizeof(plain))) {
 80029be:	4915      	ldr	r1, [pc, #84]	; (8002a14 <aes192_test+0x144>)
 80029c0:	2210      	movs	r2, #16
 80029c2:	a806      	add	r0, sp, #24
 80029c4:	f018 fafc 	bl	801afc0 <memcmp>
 80029c8:	b988      	cbnz	r0, 80029ee <aes192_test+0x11e>
    if (XMEMCMP(cipher, verify, (int) sizeof(cipher)))
 80029ca:	4915      	ldr	r1, [pc, #84]	; (8002a20 <aes192_test+0x150>)
 80029cc:	2210      	movs	r2, #16
 80029ce:	a802      	add	r0, sp, #8
 80029d0:	f018 faf6 	bl	801afc0 <memcmp>
 80029d4:	4604      	mov	r4, r0
 80029d6:	b960      	cbnz	r0, 80029f2 <aes192_test+0x122>
    wc_AesFree(enc);
 80029d8:	4630      	mov	r0, r6
 80029da:	f006 f83a 	bl	8008a52 <wc_AesFree>
    wc_AesFree(dec);
 80029de:	4628      	mov	r0, r5
 80029e0:	f006 f837 	bl	8008a52 <wc_AesFree>
 80029e4:	e794      	b.n	8002910 <aes192_test+0x40>
        ERROR_OUT(WC_TEST_RET_ENC_ERRNO, out);
 80029e6:	4c0f      	ldr	r4, [pc, #60]	; (8002a24 <aes192_test+0x154>)
    return ret;
 80029e8:	e799      	b.n	800291e <aes192_test+0x4e>
        ERROR_OUT(WC_TEST_RET_ENC_ERRNO, out);
 80029ea:	4c0f      	ldr	r4, [pc, #60]	; (8002a28 <aes192_test+0x158>)
 80029ec:	e790      	b.n	8002910 <aes192_test+0x40>
        ERROR_OUT(WC_TEST_RET_ENC_NC, out);
 80029ee:	4c0f      	ldr	r4, [pc, #60]	; (8002a2c <aes192_test+0x15c>)
 80029f0:	e78e      	b.n	8002910 <aes192_test+0x40>
        ERROR_OUT(WC_TEST_RET_ENC_NC, out);
 80029f2:	4c0f      	ldr	r4, [pc, #60]	; (8002a30 <aes192_test+0x160>)
 80029f4:	e78c      	b.n	8002910 <aes192_test+0x40>
 80029f6:	bf00      	nop
 80029f8:	dfffd2fe 	.word	0xdfffd2fe
 80029fc:	fffe7960 	.word	0xfffe7960
 8002a00:	dfffd2fa 	.word	0xdfffd2fa
 8002a04:	20000092 	.word	0x20000092
 8002a08:	200000c2 	.word	0x200000c2
 8002a0c:	dfffd2f5 	.word	0xdfffd2f5
 8002a10:	dfffd2f1 	.word	0xdfffd2f1
 8002a14:	0801f21b 	.word	0x0801f21b
 8002a18:	dfffd2e8 	.word	0xdfffd2e8
 8002a1c:	dfffd2e0 	.word	0xdfffd2e0
 8002a20:	0801fc88 	.word	0x0801fc88
 8002a24:	ffffd307 	.word	0xffffd307
 8002a28:	ffffd304 	.word	0xffffd304
 8002a2c:	ffffd2de 	.word	0xffffd2de
 8002a30:	ffffd2d9 	.word	0xffffd2d9

08002a34 <aes256_test>:
{
 8002a34:	b570      	push	{r4, r5, r6, lr}
    if ((enc = (Aes *)XMALLOC(sizeof *enc, HEAP_HINT, DYNAMIC_TYPE_AES)) == NULL)
 8002a36:	f44f 709c 	mov.w	r0, #312	; 0x138
{
 8002a3a:	b08a      	sub	sp, #40	; 0x28
    if ((enc = (Aes *)XMALLOC(sizeof *enc, HEAP_HINT, DYNAMIC_TYPE_AES)) == NULL)
 8002a3c:	f018 fab0 	bl	801afa0 <malloc>
 8002a40:	4606      	mov	r6, r0
 8002a42:	2800      	cmp	r0, #0
 8002a44:	f000 8085 	beq.w	8002b52 <aes256_test+0x11e>
    if ((dec = (Aes *)XMALLOC(sizeof *dec, HEAP_HINT, DYNAMIC_TYPE_AES)) == NULL)
 8002a48:	f44f 709c 	mov.w	r0, #312	; 0x138
 8002a4c:	f018 faa8 	bl	801afa0 <malloc>
 8002a50:	4605      	mov	r5, r0
 8002a52:	2800      	cmp	r0, #0
 8002a54:	d07f      	beq.n	8002b56 <aes256_test+0x122>
    ret = wc_AesInit(enc, HEAP_HINT, devId);
 8002a56:	2100      	movs	r1, #0
 8002a58:	f06f 0201 	mvn.w	r2, #1
 8002a5c:	4630      	mov	r0, r6
 8002a5e:	f005 fff0 	bl	8008a42 <wc_AesInit>
    if (ret != 0)
 8002a62:	4601      	mov	r1, r0
 8002a64:	b138      	cbz	r0, 8002a76 <aes256_test+0x42>
        ERROR_OUT(WC_TEST_RET_ENC_EC(ret), out);
 8002a66:	4241      	negs	r1, r0
 8002a68:	4c3e      	ldr	r4, [pc, #248]	; (8002b64 <aes256_test+0x130>)
 8002a6a:	483f      	ldr	r0, [pc, #252]	; (8002b68 <aes256_test+0x134>)
 8002a6c:	f3c1 010a 	ubfx	r1, r1, #0, #11
        ERROR_OUT(WC_TEST_RET_ENC_EC(ret), out);
 8002a70:	fb01 4400 	mla	r4, r1, r0, r4
 8002a74:	e00e      	b.n	8002a94 <aes256_test+0x60>
    ret = wc_AesInit(dec, HEAP_HINT, devId);
 8002a76:	f06f 0201 	mvn.w	r2, #1
 8002a7a:	4628      	mov	r0, r5
 8002a7c:	f005 ffe1 	bl	8008a42 <wc_AesInit>
    if (ret != 0)
 8002a80:	b190      	cbz	r0, 8002aa8 <aes256_test+0x74>
        ERROR_OUT(WC_TEST_RET_ENC_EC(ret), out);
 8002a82:	4244      	negs	r4, r0
 8002a84:	4838      	ldr	r0, [pc, #224]	; (8002b68 <aes256_test+0x134>)
 8002a86:	f3c4 040a 	ubfx	r4, r4, #0, #11
 8002a8a:	4344      	muls	r4, r0
 8002a8c:	f104 4460 	add.w	r4, r4, #3758096384	; 0xe0000000
 8002a90:	f5a4 5436 	sub.w	r4, r4, #11648	; 0x2d80
        XFREE(enc, HEAP_HINT, DYNAMIC_TYPE_AES);
 8002a94:	4630      	mov	r0, r6
 8002a96:	f018 fa8b 	bl	801afb0 <free>
    if (dec)
 8002a9a:	b115      	cbz	r5, 8002aa2 <aes256_test+0x6e>
        XFREE(dec, HEAP_HINT, DYNAMIC_TYPE_AES);
 8002a9c:	4628      	mov	r0, r5
 8002a9e:	f018 fa87 	bl	801afb0 <free>
}
 8002aa2:	4620      	mov	r0, r4
 8002aa4:	b00a      	add	sp, #40	; 0x28
 8002aa6:	bd70      	pop	{r4, r5, r6, pc}
    ret = wc_AesSetKey(enc, key, keySz, iv, AES_ENCRYPTION);
 8002aa8:	9000      	str	r0, [sp, #0]
 8002aaa:	4b30      	ldr	r3, [pc, #192]	; (8002b6c <aes256_test+0x138>)
 8002aac:	4930      	ldr	r1, [pc, #192]	; (8002b70 <aes256_test+0x13c>)
 8002aae:	2220      	movs	r2, #32
 8002ab0:	4630      	mov	r0, r6
 8002ab2:	f004 faf7 	bl	80070a4 <wc_AesSetKey>
    if (ret != 0)
 8002ab6:	b128      	cbz	r0, 8002ac4 <aes256_test+0x90>
        ERROR_OUT(WC_TEST_RET_ENC_EC(ret), out);
 8002ab8:	4240      	negs	r0, r0
 8002aba:	492b      	ldr	r1, [pc, #172]	; (8002b68 <aes256_test+0x134>)
 8002abc:	4c2d      	ldr	r4, [pc, #180]	; (8002b74 <aes256_test+0x140>)
 8002abe:	f3c0 000a 	ubfx	r0, r0, #0, #11
 8002ac2:	e7d5      	b.n	8002a70 <aes256_test+0x3c>
    ret = wc_AesSetKey(dec, key, keySz, iv, AES_DECRYPTION);
 8002ac4:	2301      	movs	r3, #1
 8002ac6:	492a      	ldr	r1, [pc, #168]	; (8002b70 <aes256_test+0x13c>)
 8002ac8:	9300      	str	r3, [sp, #0]
 8002aca:	2220      	movs	r2, #32
 8002acc:	4b27      	ldr	r3, [pc, #156]	; (8002b6c <aes256_test+0x138>)
 8002ace:	4628      	mov	r0, r5
 8002ad0:	f004 fae8 	bl	80070a4 <wc_AesSetKey>
    if (ret != 0)
 8002ad4:	4601      	mov	r1, r0
 8002ad6:	b128      	cbz	r0, 8002ae4 <aes256_test+0xb0>
        ERROR_OUT(WC_TEST_RET_ENC_EC(ret), out);
 8002ad8:	4241      	negs	r1, r0
 8002ada:	4c27      	ldr	r4, [pc, #156]	; (8002b78 <aes256_test+0x144>)
 8002adc:	4822      	ldr	r0, [pc, #136]	; (8002b68 <aes256_test+0x134>)
 8002ade:	f3c1 010a 	ubfx	r1, r1, #0, #11
 8002ae2:	e7c5      	b.n	8002a70 <aes256_test+0x3c>
    XMEMSET(cipher, 0, AES_BLOCK_SIZE);
 8002ae4:	2210      	movs	r2, #16
 8002ae6:	a802      	add	r0, sp, #8
 8002ae8:	f018 faa2 	bl	801b030 <memset>
    ret = wc_AesCbcEncrypt(enc, cipher, msg, (int) sizeof(msg));
 8002aec:	a902      	add	r1, sp, #8
 8002aee:	4a23      	ldr	r2, [pc, #140]	; (8002b7c <aes256_test+0x148>)
 8002af0:	2310      	movs	r3, #16
 8002af2:	4630      	mov	r0, r6
 8002af4:	f004 fd06 	bl	8007504 <wc_AesCbcEncrypt>
    if (ret != 0)
 8002af8:	4601      	mov	r1, r0
 8002afa:	b128      	cbz	r0, 8002b08 <aes256_test+0xd4>
        ERROR_OUT(WC_TEST_RET_ENC_EC(ret), out);
 8002afc:	4241      	negs	r1, r0
 8002afe:	4c20      	ldr	r4, [pc, #128]	; (8002b80 <aes256_test+0x14c>)
 8002b00:	4819      	ldr	r0, [pc, #100]	; (8002b68 <aes256_test+0x134>)
 8002b02:	f3c1 010a 	ubfx	r1, r1, #0, #11
 8002b06:	e7b3      	b.n	8002a70 <aes256_test+0x3c>
    XMEMSET(plain, 0, AES_BLOCK_SIZE);
 8002b08:	2210      	movs	r2, #16
 8002b0a:	a806      	add	r0, sp, #24
 8002b0c:	f018 fa90 	bl	801b030 <memset>
    ret = wc_AesCbcDecrypt(dec, plain, cipher, (int) sizeof(cipher));
 8002b10:	2310      	movs	r3, #16
 8002b12:	aa02      	add	r2, sp, #8
 8002b14:	a906      	add	r1, sp, #24
 8002b16:	4628      	mov	r0, r5
 8002b18:	f004 fd1e 	bl	8007558 <wc_AesCbcDecrypt>
    if (ret != 0)
 8002b1c:	b128      	cbz	r0, 8002b2a <aes256_test+0xf6>
        ERROR_OUT(WC_TEST_RET_ENC_EC(ret), out);
 8002b1e:	4240      	negs	r0, r0
 8002b20:	4911      	ldr	r1, [pc, #68]	; (8002b68 <aes256_test+0x134>)
 8002b22:	4c18      	ldr	r4, [pc, #96]	; (8002b84 <aes256_test+0x150>)
 8002b24:	f3c0 000a 	ubfx	r0, r0, #0, #11
 8002b28:	e7a2      	b.n	8002a70 <aes256_test+0x3c>
    if (XMEMCMP(plain, msg, (int) sizeof(plain))) {
 8002b2a:	4914      	ldr	r1, [pc, #80]	; (8002b7c <aes256_test+0x148>)
 8002b2c:	2210      	movs	r2, #16
 8002b2e:	a806      	add	r0, sp, #24
 8002b30:	f018 fa46 	bl	801afc0 <memcmp>
 8002b34:	b988      	cbnz	r0, 8002b5a <aes256_test+0x126>
    if (XMEMCMP(cipher, verify, (int) sizeof(cipher)))
 8002b36:	4914      	ldr	r1, [pc, #80]	; (8002b88 <aes256_test+0x154>)
 8002b38:	2210      	movs	r2, #16
 8002b3a:	a802      	add	r0, sp, #8
 8002b3c:	f018 fa40 	bl	801afc0 <memcmp>
 8002b40:	4604      	mov	r4, r0
 8002b42:	b960      	cbnz	r0, 8002b5e <aes256_test+0x12a>
    wc_AesFree(enc);
 8002b44:	4630      	mov	r0, r6
 8002b46:	f005 ff84 	bl	8008a52 <wc_AesFree>
    wc_AesFree(dec);
 8002b4a:	4628      	mov	r0, r5
 8002b4c:	f005 ff81 	bl	8008a52 <wc_AesFree>
 8002b50:	e7a0      	b.n	8002a94 <aes256_test+0x60>
        ERROR_OUT(WC_TEST_RET_ENC_ERRNO, out);
 8002b52:	4c0e      	ldr	r4, [pc, #56]	; (8002b8c <aes256_test+0x158>)
    return ret;
 8002b54:	e7a5      	b.n	8002aa2 <aes256_test+0x6e>
        ERROR_OUT(WC_TEST_RET_ENC_ERRNO, out);
 8002b56:	4c0e      	ldr	r4, [pc, #56]	; (8002b90 <aes256_test+0x15c>)
 8002b58:	e79c      	b.n	8002a94 <aes256_test+0x60>
        ERROR_OUT(WC_TEST_RET_ENC_NC, out);
 8002b5a:	4c0e      	ldr	r4, [pc, #56]	; (8002b94 <aes256_test+0x160>)
 8002b5c:	e79a      	b.n	8002a94 <aes256_test+0x60>
        ERROR_OUT(WC_TEST_RET_ENC_NC, out);
 8002b5e:	4c0e      	ldr	r4, [pc, #56]	; (8002b98 <aes256_test+0x164>)
 8002b60:	e798      	b.n	8002a94 <aes256_test+0x60>
 8002b62:	bf00      	nop
 8002b64:	dfffd284 	.word	0xdfffd284
 8002b68:	fffe7960 	.word	0xfffe7960
 8002b6c:	20000082 	.word	0x20000082
 8002b70:	200000a2 	.word	0x200000a2
 8002b74:	dfffd27b 	.word	0xdfffd27b
 8002b78:	dfffd277 	.word	0xdfffd277
 8002b7c:	0801f20b 	.word	0x0801f20b
 8002b80:	dfffd26e 	.word	0xdfffd26e
 8002b84:	dfffd266 	.word	0xdfffd266
 8002b88:	0801fc78 	.word	0x0801fc78
 8002b8c:	ffffd28d 	.word	0xffffd28d
 8002b90:	ffffd28a 	.word	0xffffd28a
 8002b94:	ffffd264 	.word	0xffffd264
 8002b98:	ffffd25f 	.word	0xffffd25f

08002b9c <aesgcm_default_test>:
{
 8002b9c:	e92d 47f0 	stmdb	sp!, {r4, r5, r6, r7, r8, r9, sl, lr}
    byte key1[] = {
 8002ba0:	4b64      	ldr	r3, [pc, #400]	; (8002d34 <aesgcm_default_test+0x198>)
{
 8002ba2:	b0c2      	sub	sp, #264	; 0x108
    byte key1[] = {
 8002ba4:	aa12      	add	r2, sp, #72	; 0x48
 8002ba6:	f103 0510 	add.w	r5, r3, #16
 8002baa:	4617      	mov	r7, r2
 8002bac:	6818      	ldr	r0, [r3, #0]
 8002bae:	6859      	ldr	r1, [r3, #4]
 8002bb0:	4614      	mov	r4, r2
 8002bb2:	c403      	stmia	r4!, {r0, r1}
 8002bb4:	3308      	adds	r3, #8
 8002bb6:	42ab      	cmp	r3, r5
 8002bb8:	4622      	mov	r2, r4
 8002bba:	d1f7      	bne.n	8002bac <aesgcm_default_test+0x10>
    byte iv1[] = {
 8002bbc:	4a5e      	ldr	r2, [pc, #376]	; (8002d38 <aesgcm_default_test+0x19c>)
 8002bbe:	6810      	ldr	r0, [r2, #0]
 8002bc0:	6851      	ldr	r1, [r2, #4]
 8002bc2:	ab06      	add	r3, sp, #24
 8002bc4:	c303      	stmia	r3!, {r0, r1}
 8002bc6:	6890      	ldr	r0, [r2, #8]
 8002bc8:	6018      	str	r0, [r3, #0]
    ALIGN64 byte plain1[] = {
 8002bca:	4b5c      	ldr	r3, [pc, #368]	; (8002d3c <aesgcm_default_test+0x1a0>)
 8002bcc:	ac32      	add	r4, sp, #200	; 0xc8
 8002bce:	f103 0620 	add.w	r6, r3, #32
 8002bd2:	4622      	mov	r2, r4
 8002bd4:	6818      	ldr	r0, [r3, #0]
 8002bd6:	6859      	ldr	r1, [r3, #4]
 8002bd8:	4625      	mov	r5, r4
 8002bda:	c503      	stmia	r5!, {r0, r1}
 8002bdc:	3308      	adds	r3, #8
 8002bde:	42b3      	cmp	r3, r6
 8002be0:	462c      	mov	r4, r5
 8002be2:	d1f7      	bne.n	8002bd4 <aesgcm_default_test+0x38>
    byte aad1[] = {
 8002be4:	4b56      	ldr	r3, [pc, #344]	; (8002d40 <aesgcm_default_test+0x1a4>)
 8002be6:	ac16      	add	r4, sp, #88	; 0x58
 8002be8:	f103 0610 	add.w	r6, r3, #16
 8002bec:	46a6      	mov	lr, r4
 8002bee:	6818      	ldr	r0, [r3, #0]
 8002bf0:	6859      	ldr	r1, [r3, #4]
 8002bf2:	4625      	mov	r5, r4
 8002bf4:	c503      	stmia	r5!, {r0, r1}
 8002bf6:	3308      	adds	r3, #8
 8002bf8:	42b3      	cmp	r3, r6
 8002bfa:	462c      	mov	r4, r5
 8002bfc:	d1f7      	bne.n	8002bee <aesgcm_default_test+0x52>
    ALIGN64 byte cipher1[] = {
 8002bfe:	4b51      	ldr	r3, [pc, #324]	; (8002d44 <aesgcm_default_test+0x1a8>)
 8002c00:	ac3a      	add	r4, sp, #232	; 0xe8
 8002c02:	f103 0620 	add.w	r6, r3, #32
 8002c06:	46a4      	mov	ip, r4
 8002c08:	6818      	ldr	r0, [r3, #0]
 8002c0a:	6859      	ldr	r1, [r3, #4]
 8002c0c:	4625      	mov	r5, r4
 8002c0e:	c503      	stmia	r5!, {r0, r1}
 8002c10:	3308      	adds	r3, #8
 8002c12:	42b3      	cmp	r3, r6
 8002c14:	462c      	mov	r4, r5
 8002c16:	d1f7      	bne.n	8002c08 <aesgcm_default_test+0x6c>
    byte tag1[] = {
 8002c18:	4b4b      	ldr	r3, [pc, #300]	; (8002d48 <aesgcm_default_test+0x1ac>)
 8002c1a:	ac1a      	add	r4, sp, #104	; 0x68
 8002c1c:	f103 0610 	add.w	r6, r3, #16
 8002c20:	46a0      	mov	r8, r4
 8002c22:	6818      	ldr	r0, [r3, #0]
 8002c24:	6859      	ldr	r1, [r3, #4]
 8002c26:	4625      	mov	r5, r4
 8002c28:	c503      	stmia	r5!, {r0, r1}
 8002c2a:	3308      	adds	r3, #8
 8002c2c:	42b3      	cmp	r3, r6
 8002c2e:	462c      	mov	r4, r5
 8002c30:	d1f7      	bne.n	8002c22 <aesgcm_default_test+0x86>
    byte key2[] = {
 8002c32:	4b46      	ldr	r3, [pc, #280]	; (8002d4c <aesgcm_default_test+0x1b0>)
 8002c34:	ac1e      	add	r4, sp, #120	; 0x78
 8002c36:	f103 0910 	add.w	r9, r3, #16
 8002c3a:	4625      	mov	r5, r4
 8002c3c:	6818      	ldr	r0, [r3, #0]
 8002c3e:	6859      	ldr	r1, [r3, #4]
 8002c40:	4626      	mov	r6, r4
 8002c42:	c603      	stmia	r6!, {r0, r1}
 8002c44:	3308      	adds	r3, #8
 8002c46:	454b      	cmp	r3, r9
 8002c48:	4634      	mov	r4, r6
 8002c4a:	d1f7      	bne.n	8002c3c <aesgcm_default_test+0xa0>
    byte iv2[] = {
 8002c4c:	4c40      	ldr	r4, [pc, #256]	; (8002d50 <aesgcm_default_test+0x1b4>)
 8002c4e:	6820      	ldr	r0, [r4, #0]
 8002c50:	6861      	ldr	r1, [r4, #4]
 8002c52:	ab09      	add	r3, sp, #36	; 0x24
 8002c54:	c303      	stmia	r3!, {r0, r1}
 8002c56:	68a0      	ldr	r0, [r4, #8]
 8002c58:	6018      	str	r0, [r3, #0]
    ALIGN64 byte plain2[] = {
 8002c5a:	4b3e      	ldr	r3, [pc, #248]	; (8002d54 <aesgcm_default_test+0x1b8>)
 8002c5c:	ae22      	add	r6, sp, #136	; 0x88
 8002c5e:	f103 0910 	add.w	r9, r3, #16
 8002c62:	6818      	ldr	r0, [r3, #0]
 8002c64:	6859      	ldr	r1, [r3, #4]
 8002c66:	4634      	mov	r4, r6
 8002c68:	c403      	stmia	r4!, {r0, r1}
 8002c6a:	3308      	adds	r3, #8
 8002c6c:	454b      	cmp	r3, r9
 8002c6e:	4626      	mov	r6, r4
 8002c70:	d1f7      	bne.n	8002c62 <aesgcm_default_test+0xc6>
    ALIGN64 byte cipher2[] = {
 8002c72:	4b39      	ldr	r3, [pc, #228]	; (8002d58 <aesgcm_default_test+0x1bc>)
 8002c74:	ae26      	add	r6, sp, #152	; 0x98
 8002c76:	f103 0910 	add.w	r9, r3, #16
 8002c7a:	6818      	ldr	r0, [r3, #0]
 8002c7c:	6859      	ldr	r1, [r3, #4]
 8002c7e:	4634      	mov	r4, r6
 8002c80:	c403      	stmia	r4!, {r0, r1}
 8002c82:	3308      	adds	r3, #8
 8002c84:	454b      	cmp	r3, r9
 8002c86:	4626      	mov	r6, r4
 8002c88:	d1f7      	bne.n	8002c7a <aesgcm_default_test+0xde>
    byte tag2[] = {
 8002c8a:	4b34      	ldr	r3, [pc, #208]	; (8002d5c <aesgcm_default_test+0x1c0>)
 8002c8c:	ac2a      	add	r4, sp, #168	; 0xa8
 8002c8e:	f103 0a10 	add.w	sl, r3, #16
 8002c92:	4626      	mov	r6, r4
 8002c94:	6818      	ldr	r0, [r3, #0]
 8002c96:	6859      	ldr	r1, [r3, #4]
 8002c98:	46a1      	mov	r9, r4
 8002c9a:	e8a9 0003 	stmia.w	r9!, {r0, r1}
 8002c9e:	3308      	adds	r3, #8
 8002ca0:	4553      	cmp	r3, sl
 8002ca2:	464c      	mov	r4, r9
 8002ca4:	d1f6      	bne.n	8002c94 <aesgcm_default_test+0xf8>
    byte key3[] = {
 8002ca6:	4b2e      	ldr	r3, [pc, #184]	; (8002d60 <aesgcm_default_test+0x1c4>)
 8002ca8:	f10d 09b8 	add.w	r9, sp, #184	; 0xb8
 8002cac:	f103 0a10 	add.w	sl, r3, #16
 8002cb0:	6818      	ldr	r0, [r3, #0]
 8002cb2:	6859      	ldr	r1, [r3, #4]
 8002cb4:	464c      	mov	r4, r9
 8002cb6:	c403      	stmia	r4!, {r0, r1}
 8002cb8:	3308      	adds	r3, #8
 8002cba:	4553      	cmp	r3, sl
 8002cbc:	46a1      	mov	r9, r4
 8002cbe:	d1f7      	bne.n	8002cb0 <aesgcm_default_test+0x114>
    byte iv3[] = {
 8002cc0:	4c28      	ldr	r4, [pc, #160]	; (8002d64 <aesgcm_default_test+0x1c8>)
 8002cc2:	6820      	ldr	r0, [r4, #0]
 8002cc4:	6861      	ldr	r1, [r4, #4]
