
Build/WolfCryptBench.elf:     file format elf32-littlearm


Disassembly of section .text:

08000000 <main>:

static func_args args = { 0 } ;
#endif

int main(void)
{
 8000000:	b510      	push	{r4, lr}
    int ret;
#ifndef NO_CRYPT_BENCHMARK
	wolfCrypt_Init();

	printf("\nBenchmark Test\n");
	benchmark_test(&args);
 8000002:	4c09      	ldr	r4, [pc, #36]	; (8000028 <main+0x28>)
	wolfCrypt_Init();
 8000004:	f012 f8b4 	bl	8012170 <wolfCrypt_Init>
	printf("\nBenchmark Test\n");
 8000008:	4808      	ldr	r0, [pc, #32]	; (800002c <main+0x2c>)
 800000a:	f013 f9e7 	bl	80133dc <iprintf>
	benchmark_test(&args);
 800000e:	4620      	mov	r0, r4
 8000010:	f001 fd60 	bl	8001ad4 <benchmark_test>
    ret = args.return_code;
 8000014:	68a4      	ldr	r4, [r4, #8]
	printf("Benchmark Test: Return code %d\n", ret);
 8000016:	4806      	ldr	r0, [pc, #24]	; (8000030 <main+0x30>)
 8000018:	4621      	mov	r1, r4
 800001a:	f013 f9df 	bl	80133dc <iprintf>

	wolfCrypt_Cleanup();
 800001e:	f012 f8b1 	bl	8012184 <wolfCrypt_Cleanup>
#else
    ret = NOT_COMPILED_IN;
#endif
	return ret;
}
 8000022:	4620      	mov	r0, r4
 8000024:	bd10      	pop	{r4, pc}
 8000026:	bf00      	nop
 8000028:	20000140 	.word	0x20000140
 800002c:	08014288 	.word	0x08014288
 8000030:	08014299 	.word	0x08014299

08000034 <current_time>:
#ifndef NO_CRYPT_BENCHMARK
/* This is used by wolfCrypt benchmark tool only */
double current_time(int reset)
{
    double timeNow;
    int timeMs = gTimeMs;
 8000034:	4b0d      	ldr	r3, [pc, #52]	; (800006c <current_time+0x38>)
{
 8000036:	e92d 41f0 	stmdb	sp!, {r4, r5, r6, r7, r8, lr}
    int timeMs = gTimeMs;
 800003a:	f8d3 8000 	ldr.w	r8, [r3]
    (void)reset;
    timeNow = (timeMs / 1000); // sec
 800003e:	f44f 777a 	mov.w	r7, #1000	; 0x3e8
 8000042:	fb98 f6f7 	sdiv	r6, r8, r7
 8000046:	4630      	mov	r0, r6
 8000048:	f012 fa6e 	bl	8012528 <__aeabi_i2d>
 800004c:	4604      	mov	r4, r0
    timeNow += (double)(timeMs % 1000) / 1000; // ms
 800004e:	fb07 8016 	mls	r0, r7, r6, r8
    timeNow = (timeMs / 1000); // sec
 8000052:	460d      	mov	r5, r1
    timeNow += (double)(timeMs % 1000) / 1000; // ms
 8000054:	f012 fa68 	bl	8012528 <__aeabi_i2d>
 8000058:	4b05      	ldr	r3, [pc, #20]	; (8000070 <current_time+0x3c>)
 800005a:	2200      	movs	r2, #0
 800005c:	f012 fbf8 	bl	8012850 <__aeabi_ddiv>
 8000060:	4622      	mov	r2, r4
 8000062:	462b      	mov	r3, r5
 8000064:	f012 f914 	bl	8012290 <__adddf3>
    return timeNow;
}
 8000068:	e8bd 81f0 	ldmia.w	sp!, {r4, r5, r6, r7, r8, pc}
 800006c:	20000150 	.word	0x20000150
 8000070:	408f4000 	.word	0x408f4000

08000074 <hw_rand>:
static unsigned int gCounter;
unsigned int hw_rand(void)
{
    #warning Must implement your own random source

    return ++gCounter;
 8000074:	4b02      	ldr	r3, [pc, #8]	; (8000080 <hw_rand+0xc>)
 8000076:	6818      	ldr	r0, [r3, #0]
 8000078:	3001      	adds	r0, #1
 800007a:	6018      	str	r0, [r3, #0]
}
 800007c:	4770      	bx	lr
 800007e:	bf00      	nop
 8000080:	2000014c 	.word	0x2000014c

08000084 <my_rng_gen_block>:
{
    return hw_rand();
}

int my_rng_gen_block(unsigned char* output, unsigned int sz)
{
 8000084:	b570      	push	{r4, r5, r6, lr}
    uint32_t i = 0;
 8000086:	2200      	movs	r2, #0
{
 8000088:	4604      	mov	r4, r0

    while (i < sz)
 800008a:	428a      	cmp	r2, r1
 800008c:	d301      	bcc.n	8000092 <my_rng_gen_block+0xe>
            i += sizeof(CUSTOM_RAND_TYPE);
        }
    }

    return 0;
}
 800008e:	2000      	movs	r0, #0
 8000090:	bd70      	pop	{r4, r5, r6, pc}
        if( (i + sizeof(CUSTOM_RAND_TYPE)) > sz ||
 8000092:	1d15      	adds	r5, r2, #4
 8000094:	428d      	cmp	r5, r1
            ((uint32_t)&output[i] % sizeof(CUSTOM_RAND_TYPE)) != 0
 8000096:	eb04 0602 	add.w	r6, r4, r2
        if( (i + sizeof(CUSTOM_RAND_TYPE)) > sz ||
 800009a:	d801      	bhi.n	80000a0 <my_rng_gen_block+0x1c>
 800009c:	07b3      	lsls	r3, r6, #30
 800009e:	d005      	beq.n	80000ac <my_rng_gen_block+0x28>
    return hw_rand();
 80000a0:	f7ff ffe8 	bl	8000074 <hw_rand>
            output[i++] = (unsigned char)my_rng_seed_gen();
 80000a4:	1c55      	adds	r5, r2, #1
 80000a6:	7030      	strb	r0, [r6, #0]
{
 80000a8:	462a      	mov	r2, r5
 80000aa:	e7ee      	b.n	800008a <my_rng_gen_block+0x6>
    return hw_rand();
 80000ac:	f7ff ffe2 	bl	8000074 <hw_rand>
            *((CUSTOM_RAND_TYPE*)&output[i]) = my_rng_seed_gen();
 80000b0:	6030      	str	r0, [r6, #0]
            i += sizeof(CUSTOM_RAND_TYPE);
 80000b2:	e7f9      	b.n	80000a8 <my_rng_gen_block+0x24>

080000b4 <memcpy32>:
extern uint32_t __heap_end__[];

/* Copy memory: src=Source, dst_beg=Destination Begin, dst_end=Destination End */
void memcpy32(uint32_t* src, uint32_t* dst_beg, uint32_t* dst_end)
{
    while (dst_beg < dst_end) {
 80000b4:	428a      	cmp	r2, r1
 80000b6:	d800      	bhi.n	80000ba <memcpy32+0x6>
        *dst_beg++ = *src++;
    }
}
 80000b8:	4770      	bx	lr
        *dst_beg++ = *src++;
 80000ba:	f850 3b04 	ldr.w	r3, [r0], #4
 80000be:	f841 3b04 	str.w	r3, [r1], #4
 80000c2:	e7f7      	b.n	80000b4 <memcpy32>

080000c4 <meminit32>:
/* Zero address in range */
void meminit32(uint32_t* start, uint32_t* end)
{
    while (start < end) {
        *start++ = 0;
 80000c4:	2300      	movs	r3, #0
    while (start < end) {
 80000c6:	4288      	cmp	r0, r1
 80000c8:	d300      	bcc.n	80000cc <meminit32+0x8>
    }
}
 80000ca:	4770      	bx	lr
        *start++ = 0;
 80000cc:	f840 3b04 	str.w	r3, [r0], #4
 80000d0:	e7f9      	b.n	80000c6 <meminit32+0x2>
	...

080000d4 <reset_handler>:
#endif /* USE_WOLF_ARM_STARTUP */

/* Entry Point */
void reset_handler(void)
{
 80000d4:	b508      	push	{r3, lr}
#ifdef USE_WOLF_ARM_STARTUP
    /* Init sections */
    memcpy32(__data_load_start__, __data_start__, __data_end__);
 80000d6:	4a09      	ldr	r2, [pc, #36]	; (80000fc <reset_handler+0x28>)
 80000d8:	4909      	ldr	r1, [pc, #36]	; (8000100 <reset_handler+0x2c>)
 80000da:	480a      	ldr	r0, [pc, #40]	; (8000104 <reset_handler+0x30>)
 80000dc:	f7ff ffea 	bl	80000b4 <memcpy32>
    meminit32(__bss_start__, __bss_end__);
 80000e0:	4909      	ldr	r1, [pc, #36]	; (8000108 <reset_handler+0x34>)
 80000e2:	480a      	ldr	r0, [pc, #40]	; (800010c <reset_handler+0x38>)
 80000e4:	f7ff ffee 	bl	80000c4 <meminit32>

    /* Init heap */
    __heap_start__[0] = 0;
 80000e8:	4b09      	ldr	r3, [pc, #36]	; (8000110 <reset_handler+0x3c>)
 80000ea:	2200      	movs	r2, #0
 80000ec:	601a      	str	r2, [r3, #0]
    __heap_start__[1] = ((uintptr_t)__heap_end__ - (uintptr_t)__heap_start__);
 80000ee:	4a09      	ldr	r2, [pc, #36]	; (8000114 <reset_handler+0x40>)
 80000f0:	1ad2      	subs	r2, r2, r3
 80000f2:	605a      	str	r2, [r3, #4]
#endif /* USE_WOLF_ARM_STARTUP */

    /* Start main */
    extern int main(void);
    main();
 80000f4:	f7ff ff84 	bl	8000000 <main>

    /* Application has ended, so busy wait */
    while(1);
 80000f8:	e7fe      	b.n	80000f8 <reset_handler+0x24>
 80000fa:	bf00      	nop
 80000fc:	080143c8 	.word	0x080143c8
 8000100:	08014288 	.word	0x08014288
 8000104:	08014288 	.word	0x08014288
 8000108:	200001ac 	.word	0x200001ac
 800010c:	20000140 	.word	0x20000140
 8000110:	200001ac 	.word	0x200001ac
 8000114:	200001ac 	.word	0x200001ac

08000118 <bench_stats_start>:
#endif
    INIT_CYCLE_COUNTER
}

static WC_INLINE void bench_stats_start(int* count, double* start)
{
 8000118:	b510      	push	{r4, lr}
    *count = 0;
 800011a:	2300      	movs	r3, #0
 800011c:	6003      	str	r3, [r0, #0]
    *start = current_time(1);
 800011e:	2001      	movs	r0, #1
{
 8000120:	460c      	mov	r4, r1
    *start = current_time(1);
 8000122:	f7ff ff87 	bl	8000034 <current_time>
 8000126:	e9c4 0100 	strd	r0, r1, [r4]

    BEGIN_ESP_CYCLES
#else
    BEGIN_INTEL_CYCLES
#endif
}
 800012a:	bd10      	pop	{r4, pc}

0800012c <bench_stats_check>:
        bench_stats_start(count, start);                                       \
    } while (0)
#endif

static WC_INLINE int bench_stats_check(double start)
{
 800012c:	b538      	push	{r3, r4, r5, lr}
 800012e:	4604      	mov	r4, r0
 8000130:	460d      	mov	r5, r1
    return ((current_time(0) - start) < BENCH_MIN_RUNTIME_SEC);
 8000132:	2000      	movs	r0, #0
 8000134:	f7ff ff7e 	bl	8000034 <current_time>
 8000138:	4622      	mov	r2, r4
 800013a:	462b      	mov	r3, r5
 800013c:	f012 f8a6 	bl	801228c <__aeabi_dsub>
 8000140:	4b03      	ldr	r3, [pc, #12]	; (8000150 <bench_stats_check+0x24>)
 8000142:	2200      	movs	r2, #0
 8000144:	f012 fccc 	bl	8012ae0 <__aeabi_dcmplt>
}
 8000148:	3800      	subs	r0, #0
 800014a:	bf18      	it	ne
 800014c:	2001      	movne	r0, #1
 800014e:	bd38      	pop	{r3, r4, r5, pc}
 8000150:	3ff00000 	.word	0x3ff00000

08000154 <bench_stats_asym_finish_ex.constprop.0>:
#ifdef BENCH_ASYM
#if defined(HAVE_ECC) || !defined(NO_RSA) || !defined(NO_DH) || \
    defined(HAVE_CURVE25519) || defined(HAVE_ED25519) || \
    defined(HAVE_CURVE448) || defined(HAVE_ED448) || \
    defined(WOLFSSL_HAVE_KYBER)
static void bench_stats_asym_finish_ex(const char* algo, int strength,
 8000154:	e92d 4ff0 	stmdb	sp!, {r4, r5, r6, r7, r8, r9, sl, fp, lr}
 8000158:	b0db      	sub	sp, #364	; 0x16c
 800015a:	4605      	mov	r5, r0
 800015c:	460f      	mov	r7, r1
 800015e:	4616      	mov	r6, r2
    const char* kOpsSec = "Ops/Sec";
#endif
    char msg[256];
    static int asym_header_printed = 0;

    XMEMSET(msg, 0, sizeof(msg));
 8000160:	2100      	movs	r1, #0
 8000162:	f44f 7280 	mov.w	r2, #256	; 0x100
 8000166:	a81a      	add	r0, sp, #104	; 0x68
static void bench_stats_asym_finish_ex(const char* algo, int strength,
 8000168:	461c      	mov	r4, r3
    XMEMSET(msg, 0, sizeof(msg));
 800016a:	f013 f851 	bl	8013210 <memset>

    total = current_time(0) - start;
 800016e:	2000      	movs	r0, #0
 8000170:	f7ff ff60 	bl	8000034 <current_time>
 8000174:	e9dd 2364 	ldrd	r2, r3, [sp, #400]	; 0x190
 8000178:	f012 f888 	bl	801228c <__aeabi_dsub>
        END_INTEL_CYCLES
    #endif
#endif

    /* some sanity checks on the final numbers */
    if (count > 0) {
 800017c:	2c00      	cmp	r4, #0
    total = current_time(0) - start;
 800017e:	4680      	mov	r8, r0
 8000180:	4689      	mov	r9, r1
    if (count > 0) {
 8000182:	dd5b      	ble.n	800023c <bench_stats_asym_finish_ex.constprop.0+0xe8>
        each  = total / count; /* per second  */
 8000184:	4620      	mov	r0, r4
 8000186:	f012 f9cf 	bl	8012528 <__aeabi_i2d>
 800018a:	4602      	mov	r2, r0
 800018c:	460b      	mov	r3, r1
 800018e:	4640      	mov	r0, r8
 8000190:	4649      	mov	r1, r9
 8000192:	f012 fb5d 	bl	8012850 <__aeabi_ddiv>
 8000196:	4682      	mov	sl, r0
 8000198:	468b      	mov	fp, r1
    else {
        count = 0;
        each = 0;
    }

    if (total > 0) {
 800019a:	2200      	movs	r2, #0
 800019c:	2300      	movs	r3, #0
 800019e:	4640      	mov	r0, r8
 80001a0:	4649      	mov	r1, r9
 80001a2:	f012 fcbb 	bl	8012b1c <__aeabi_dcmpgt>
 80001a6:	2800      	cmp	r0, #0
 80001a8:	d04e      	beq.n	8000248 <bench_stats_asym_finish_ex.constprop.0+0xf4>
        opsSec = count / total;    /* ops second */
 80001aa:	4620      	mov	r0, r4
 80001ac:	f012 f9bc 	bl	8012528 <__aeabi_i2d>
 80001b0:	4642      	mov	r2, r8
 80001b2:	464b      	mov	r3, r9
 80001b4:	f012 fb4c 	bl	8012850 <__aeabi_ddiv>
 80001b8:	e9cd 0116 	strd	r0, r1, [sp, #88]	; 0x58
    }
    else {
        opsSec = 0;
    }

    milliEach = each * 1000;   /* milliseconds */
 80001bc:	4b38      	ldr	r3, [pc, #224]	; (80002a0 <bench_stats_asym_finish_ex.constprop.0+0x14c>)
 80001be:	4650      	mov	r0, sl
 80001c0:	4659      	mov	r1, fp
 80001c2:	2200      	movs	r2, #0
 80001c4:	f012 fa1a 	bl	80125fc <__aeabi_dmul>

    SLEEP_ON_ERROR(ret);
    /* format and print to terminal */
    if (csv_format == 1) {
 80001c8:	4b36      	ldr	r3, [pc, #216]	; (80002a4 <bench_stats_asym_finish_ex.constprop.0+0x150>)
 80001ca:	681b      	ldr	r3, [r3, #0]
 80001cc:	2b01      	cmp	r3, #1
    milliEach = each * 1000;   /* milliseconds */
 80001ce:	4682      	mov	sl, r0
 80001d0:	468b      	mov	fp, r1
    if (csv_format == 1) {
 80001d2:	d13e      	bne.n	8000252 <bench_stats_asym_finish_ex.constprop.0+0xfe>
        /* only print out header once */
        if (asym_header_printed == 0) {
 80001d4:	4c34      	ldr	r4, [pc, #208]	; (80002a8 <bench_stats_asym_finish_ex.constprop.0+0x154>)
 80001d6:	6822      	ldr	r2, [r4, #0]
 80001d8:	b952      	cbnz	r2, 80001f0 <bench_stats_asym_finish_ex.constprop.0+0x9c>
    #else
            printf("%s", "\"asym\",Algorithm,key size,operation,avg ms,ops/sec,"
                   "ops,secs\n");
    #endif
#else
            printf("\n%sAsymmetric Ciphers:\n\n", info_prefix);
 80001da:	4934      	ldr	r1, [pc, #208]	; (80002ac <bench_stats_asym_finish_ex.constprop.0+0x158>)
 80001dc:	4834      	ldr	r0, [pc, #208]	; (80002b0 <bench_stats_asym_finish_ex.constprop.0+0x15c>)
 80001de:	9319      	str	r3, [sp, #100]	; 0x64
 80001e0:	f013 f8fc 	bl	80133dc <iprintf>
            printf("%sAlgorithm,key size,operation,avg ms,ops/sec,\n",
 80001e4:	4931      	ldr	r1, [pc, #196]	; (80002ac <bench_stats_asym_finish_ex.constprop.0+0x158>)
 80001e6:	4833      	ldr	r0, [pc, #204]	; (80002b4 <bench_stats_asym_finish_ex.constprop.0+0x160>)
 80001e8:	f013 f8f8 	bl	80133dc <iprintf>
                   info_prefix);
#endif
            asym_header_printed = 1;
 80001ec:	9b19      	ldr	r3, [sp, #100]	; 0x64
 80001ee:	6023      	str	r3, [r4, #0]
                        FLT_FMT_PREC_ARGS(3, milliEach),
                        FLT_FMT_PREC_ARGS(3, opsSec),
                        count, FLT_FMT_ARGS(total));
    #endif
#else
        (void)XSNPRINTF(msg, sizeof(msg), "%s,%d,%s%s," FLT_FMT_PREC ","
 80001f0:	e9dd 3416 	ldrd	r3, r4, [sp, #88]	; 0x58
 80001f4:	e9cd 3408 	strd	r3, r4, [sp, #32]
 80001f8:	2303      	movs	r3, #3
 80001fa:	9306      	str	r3, [sp, #24]
 80001fc:	9303      	str	r3, [sp, #12]
 80001fe:	4b2e      	ldr	r3, [pc, #184]	; (80002b8 <bench_stats_asym_finish_ex.constprop.0+0x164>)
 8000200:	4a2e      	ldr	r2, [pc, #184]	; (80002bc <bench_stats_asym_finish_ex.constprop.0+0x168>)
 8000202:	9700      	str	r7, [sp, #0]
 8000204:	e9cd 6301 	strd	r6, r3, [sp, #4]
 8000208:	e9cd ab04 	strd	sl, fp, [sp, #16]
 800020c:	462b      	mov	r3, r5
 800020e:	f44f 7180 	mov.w	r1, #256	; 0x100
 8000212:	a81a      	add	r0, sp, #104	; 0x68
 8000214:	f013 f90a 	bl	801342c <sniprintf>
                        FLT_FMT_PREC2_ARGS(5, 3, total), word[1], word[2],
                        FLT_FMT_PREC2_ARGS(5, 3, milliEach),
                        FLT_FMT_PREC_ARGS(3, opsSec), word[3]);
#endif
    }
    printf("%s", msg);
 8000218:	4829      	ldr	r0, [pc, #164]	; (80002c0 <bench_stats_asym_finish_ex.constprop.0+0x16c>)
 800021a:	a91a      	add	r1, sp, #104	; 0x68
 800021c:	f013 f8de 	bl	80133dc <iprintf>

    /* show errors */
    if (ret < 0) {
 8000220:	9b66      	ldr	r3, [sp, #408]	; 0x198
 8000222:	2b00      	cmp	r3, #0
 8000224:	da07      	bge.n	8000236 <bench_stats_asym_finish_ex.constprop.0+0xe2>
        printf("%sBenchmark %s %s %d failed: %d\n",
 8000226:	e9cd 7300 	strd	r7, r3, [sp]
 800022a:	4926      	ldr	r1, [pc, #152]	; (80002c4 <bench_stats_asym_finish_ex.constprop.0+0x170>)
 800022c:	4826      	ldr	r0, [pc, #152]	; (80002c8 <bench_stats_asym_finish_ex.constprop.0+0x174>)
 800022e:	4633      	mov	r3, r6
 8000230:	462a      	mov	r2, r5
 8000232:	f013 f8d3 	bl	80133dc <iprintf>
    (void)ret;

    RESTORE_VECTOR_REGISTERS();

    TEST_SLEEP();
} /* bench_stats_asym_finish_ex */
 8000236:	b05b      	add	sp, #364	; 0x16c
 8000238:	e8bd 8ff0 	ldmia.w	sp!, {r4, r5, r6, r7, r8, r9, sl, fp, pc}
        each = 0;
 800023c:	f04f 0a00 	mov.w	sl, #0
 8000240:	f04f 0b00 	mov.w	fp, #0
        count = 0;
 8000244:	2400      	movs	r4, #0
 8000246:	e7a8      	b.n	800019a <bench_stats_asym_finish_ex.constprop.0+0x46>
        opsSec = 0;
 8000248:	2200      	movs	r2, #0
 800024a:	2300      	movs	r3, #0
 800024c:	e9cd 2316 	strd	r2, r3, [sp, #88]	; 0x58
 8000250:	e7b4      	b.n	80001bc <bench_stats_asym_finish_ex.constprop.0+0x68>
        (void)XSNPRINTF(msg, sizeof(msg),
 8000252:	4b1e      	ldr	r3, [pc, #120]	; (80002cc <bench_stats_asym_finish_ex.constprop.0+0x178>)
 8000254:	68da      	ldr	r2, [r3, #12]
 8000256:	9214      	str	r2, [sp, #80]	; 0x50
 8000258:	e9dd 1216 	ldrd	r1, r2, [sp, #88]	; 0x58
 800025c:	e9cd ab0e 	strd	sl, fp, [sp, #56]	; 0x38
 8000260:	e9cd 1212 	strd	r1, r2, [sp, #72]	; 0x48
 8000264:	2203      	movs	r2, #3
 8000266:	2105      	movs	r1, #5
 8000268:	9210      	str	r2, [sp, #64]	; 0x40
 800026a:	920d      	str	r2, [sp, #52]	; 0x34
 800026c:	910c      	str	r1, [sp, #48]	; 0x30
 800026e:	6898      	ldr	r0, [r3, #8]
 8000270:	900b      	str	r0, [sp, #44]	; 0x2c
 8000272:	6858      	ldr	r0, [r3, #4]
 8000274:	900a      	str	r0, [sp, #40]	; 0x28
 8000276:	e9cd 1206 	strd	r1, r2, [sp, #24]
 800027a:	e9cd 8908 	strd	r8, r9, [sp, #32]
 800027e:	681b      	ldr	r3, [r3, #0]
 8000280:	4a13      	ldr	r2, [pc, #76]	; (80002d0 <bench_stats_asym_finish_ex.constprop.0+0x17c>)
 8000282:	e9cd 4304 	strd	r4, r3, [sp, #16]
 8000286:	4b0c      	ldr	r3, [pc, #48]	; (80002b8 <bench_stats_asym_finish_ex.constprop.0+0x164>)
 8000288:	e9cd 7600 	strd	r7, r6, [sp]
 800028c:	e9cd 3302 	strd	r3, r3, [sp, #8]
 8000290:	f44f 7180 	mov.w	r1, #256	; 0x100
 8000294:	462b      	mov	r3, r5
 8000296:	a81a      	add	r0, sp, #104	; 0x68
 8000298:	f013 f8c8 	bl	801342c <sniprintf>
 800029c:	e7bc      	b.n	8000218 <bench_stats_asym_finish_ex.constprop.0+0xc4>
 800029e:	bf00      	nop
 80002a0:	408f4000 	.word	0x408f4000
 80002a4:	20000180 	.word	0x20000180
 80002a8:	20000158 	.word	0x20000158
 80002ac:	08014d89 	.word	0x08014d89
 80002b0:	080142b9 	.word	0x080142b9
 80002b4:	080142d2 	.word	0x080142d2
 80002b8:	080142d1 	.word	0x080142d1
 80002bc:	08014302 	.word	0x08014302
 80002c0:	08014354 	.word	0x08014354
 80002c4:	08014d88 	.word	0x08014d88
 80002c8:	08014357 	.word	0x08014357
 80002cc:	200000a8 	.word	0x200000a8
 80002d0:	08014319 	.word	0x08014319
 80002d4:	00000000 	.word	0x00000000

080002d8 <bench_stats_sym_finish.constprop.0>:
static void bench_stats_sym_finish(const char* desc, int useDeviceID,
 80002d8:	e92d 4ff0 	stmdb	sp!, {r4, r5, r6, r7, r8, r9, sl, fp, lr}
 80002dc:	b0bb      	sub	sp, #236	; 0xec
 80002de:	460c      	mov	r4, r1
 80002e0:	4692      	mov	sl, r2
    XMEMSET(msg, 0, sizeof(msg));
 80002e2:	2100      	movs	r1, #0
 80002e4:	2296      	movs	r2, #150	; 0x96
static void bench_stats_sym_finish(const char* desc, int useDeviceID,
 80002e6:	4606      	mov	r6, r0
    XMEMSET(msg, 0, sizeof(msg));
 80002e8:	a814      	add	r0, sp, #80	; 0x50
 80002ea:	f012 ff91 	bl	8013210 <memset>
    total = current_time(0) - start;
 80002ee:	2000      	movs	r0, #0
 80002f0:	f7ff fea0 	bl	8000034 <current_time>
 80002f4:	e9dd 2344 	ldrd	r2, r3, [sp, #272]	; 0x110
 80002f8:	f011 ffc8 	bl	801228c <__aeabi_dsub>
 80002fc:	4680      	mov	r8, r0
    double total, persec = 0, blocks = (double)count;
 80002fe:	4620      	mov	r0, r4
    total = current_time(0) - start;
 8000300:	4689      	mov	r9, r1
    double total, persec = 0, blocks = (double)count;
 8000302:	f012 f911 	bl	8012528 <__aeabi_i2d>
 8000306:	4604      	mov	r4, r0
    blocks *= countSz;
 8000308:	4650      	mov	r0, sl
    double total, persec = 0, blocks = (double)count;
 800030a:	460d      	mov	r5, r1
    blocks *= countSz;
 800030c:	f012 f8fc 	bl	8012508 <__aeabi_ui2d>
    if (csv_format == 1) {
 8000310:	f8df b194 	ldr.w	fp, [pc, #404]	; 80004a8 <bench_stats_sym_finish.constprop.0+0x1d0>
    blocks *= countSz;
 8000314:	4602      	mov	r2, r0
 8000316:	460b      	mov	r3, r1
 8000318:	4620      	mov	r0, r4
 800031a:	4629      	mov	r1, r5
 800031c:	f012 f96e 	bl	80125fc <__aeabi_dmul>
    if (csv_format == 1) {
 8000320:	f8db 7000 	ldr.w	r7, [fp]
 8000324:	2f01      	cmp	r7, #1
    blocks *= countSz;
 8000326:	4604      	mov	r4, r0
 8000328:	460d      	mov	r5, r1
    if (csv_format == 1) {
 800032a:	d10c      	bne.n	8000346 <bench_stats_sym_finish.constprop.0+0x6e>
        if (sym_header_printed == 0) {
 800032c:	f8df a17c 	ldr.w	sl, [pc, #380]	; 80004ac <bench_stats_sym_finish.constprop.0+0x1d4>
 8000330:	f8da 2000 	ldr.w	r2, [sl]
 8000334:	b93a      	cbnz	r2, 8000346 <bench_stats_sym_finish.constprop.0+0x6e>
            printf("\n\nSymmetric Ciphers:\n\n");
 8000336:	485e      	ldr	r0, [pc, #376]	; (80004b0 <bench_stats_sym_finish.constprop.0+0x1d8>)
 8000338:	f013 f850 	bl	80133dc <iprintf>
            printf("Algorithm,"
 800033c:	485d      	ldr	r0, [pc, #372]	; (80004b4 <bench_stats_sym_finish.constprop.0+0x1dc>)
 800033e:	f013 f84d 	bl	80133dc <iprintf>
            sym_header_printed = 1;
 8000342:	f8ca 7000 	str.w	r7, [sl]
    if (base2) {
 8000346:	4b5c      	ldr	r3, [pc, #368]	; (80004b8 <bench_stats_sym_finish.constprop.0+0x1e0>)
 8000348:	681b      	ldr	r3, [r3, #0]
 800034a:	2b00      	cmp	r3, #0
 800034c:	d059      	beq.n	8000402 <bench_stats_sym_finish.constprop.0+0x12a>
    if (*blocks > (1024UL * 1024UL)) {
 800034e:	2200      	movs	r2, #0
 8000350:	4b5a      	ldr	r3, [pc, #360]	; (80004bc <bench_stats_sym_finish.constprop.0+0x1e4>)
 8000352:	4620      	mov	r0, r4
 8000354:	4629      	mov	r1, r5
 8000356:	f012 fbe1 	bl	8012b1c <__aeabi_dcmpgt>
        *blocks /= (1024UL * 1024UL);
 800035a:	2200      	movs	r2, #0
    if (*blocks > (1024UL * 1024UL)) {
 800035c:	2800      	cmp	r0, #0
 800035e:	d03f      	beq.n	80003e0 <bench_stats_sym_finish.constprop.0+0x108>
        *blocks /= (1024UL * 1024UL);
 8000360:	4620      	mov	r0, r4
 8000362:	4629      	mov	r1, r5
 8000364:	4b56      	ldr	r3, [pc, #344]	; (80004c0 <bench_stats_sym_finish.constprop.0+0x1e8>)
        rt = "MiB";
 8000366:	f8df a15c 	ldr.w	sl, [pc, #348]	; 80004c4 <bench_stats_sym_finish.constprop.0+0x1ec>
        *blocks /= (1024UL * 1024UL);
 800036a:	f012 f947 	bl	80125fc <__aeabi_dmul>
 800036e:	4604      	mov	r4, r0
 8000370:	460d      	mov	r5, r1
    if (total > 0) {
 8000372:	2200      	movs	r2, #0
 8000374:	2300      	movs	r3, #0
 8000376:	4640      	mov	r0, r8
 8000378:	4649      	mov	r1, r9
 800037a:	f012 fbcf 	bl	8012b1c <__aeabi_dcmpgt>
 800037e:	2800      	cmp	r0, #0
 8000380:	d068      	beq.n	8000454 <bench_stats_sym_finish.constprop.0+0x17c>
        persec = (1 / total) * blocks;
 8000382:	4642      	mov	r2, r8
 8000384:	464b      	mov	r3, r9
 8000386:	4950      	ldr	r1, [pc, #320]	; (80004c8 <bench_stats_sym_finish.constprop.0+0x1f0>)
 8000388:	2000      	movs	r0, #0
 800038a:	f012 fa61 	bl	8012850 <__aeabi_ddiv>
 800038e:	4622      	mov	r2, r4
 8000390:	462b      	mov	r3, r5
 8000392:	f012 f933 	bl	80125fc <__aeabi_dmul>
    if (csv_format == 1) {
 8000396:	f8db 3000 	ldr.w	r3, [fp]
 800039a:	2b01      	cmp	r3, #1
 800039c:	d15d      	bne.n	800045a <bench_stats_sym_finish.constprop.0+0x182>
        (void)XSNPRINTF(msg, sizeof(msg), "%s," FLT_FMT ",", desc,
 800039e:	e9cd 0100 	strd	r0, r1, [sp]
 80003a2:	4a4a      	ldr	r2, [pc, #296]	; (80004cc <bench_stats_sym_finish.constprop.0+0x1f4>)
 80003a4:	4633      	mov	r3, r6
 80003a6:	2196      	movs	r1, #150	; 0x96
 80003a8:	a814      	add	r0, sp, #80	; 0x50
 80003aa:	f013 f83f 	bl	801342c <sniprintf>
        SHOW_INTEL_CYCLES(msg, sizeof(msg), (unsigned)countSz);
 80003ae:	a814      	add	r0, sp, #80	; 0x50
 80003b0:	f013 f8b3 	bl	801351a <strlen>
 80003b4:	f100 03e8 	add.w	r3, r0, #232	; 0xe8
 80003b8:	eb0d 0003 	add.w	r0, sp, r3
 80003bc:	230a      	movs	r3, #10
 80003be:	f800 3c98 	strb.w	r3, [r0, #-152]
    printf("%s", msg);
 80003c2:	a914      	add	r1, sp, #80	; 0x50
 80003c4:	4842      	ldr	r0, [pc, #264]	; (80004d0 <bench_stats_sym_finish.constprop.0+0x1f8>)
 80003c6:	f013 f809 	bl	80133dc <iprintf>
    if (ret < 0) {
 80003ca:	9b46      	ldr	r3, [sp, #280]	; 0x118
 80003cc:	2b00      	cmp	r3, #0
 80003ce:	da04      	bge.n	80003da <bench_stats_sym_finish.constprop.0+0x102>
        printf("%sBenchmark %s failed: %d\n", err_prefix, desc, ret);
 80003d0:	4940      	ldr	r1, [pc, #256]	; (80004d4 <bench_stats_sym_finish.constprop.0+0x1fc>)
 80003d2:	4841      	ldr	r0, [pc, #260]	; (80004d8 <bench_stats_sym_finish.constprop.0+0x200>)
 80003d4:	4632      	mov	r2, r6
 80003d6:	f013 f801 	bl	80133dc <iprintf>
} /* bench_stats_sym_finish */
 80003da:	b03b      	add	sp, #236	; 0xec
 80003dc:	e8bd 8ff0 	ldmia.w	sp!, {r4, r5, r6, r7, r8, r9, sl, fp, pc}
    else if (*blocks > 1024) {
 80003e0:	4b3e      	ldr	r3, [pc, #248]	; (80004dc <bench_stats_sym_finish.constprop.0+0x204>)
 80003e2:	4620      	mov	r0, r4
 80003e4:	4629      	mov	r1, r5
 80003e6:	f012 fb99 	bl	8012b1c <__aeabi_dcmpgt>
 80003ea:	b380      	cbz	r0, 800044e <bench_stats_sym_finish.constprop.0+0x176>
        *blocks /= 1024;
 80003ec:	4620      	mov	r0, r4
 80003ee:	4629      	mov	r1, r5
 80003f0:	4b3b      	ldr	r3, [pc, #236]	; (80004e0 <bench_stats_sym_finish.constprop.0+0x208>)
        rt = "KiB";
 80003f2:	f8df a0f0 	ldr.w	sl, [pc, #240]	; 80004e4 <bench_stats_sym_finish.constprop.0+0x20c>
        *blocks /= 1024;
 80003f6:	2200      	movs	r2, #0
 80003f8:	f012 f900 	bl	80125fc <__aeabi_dmul>
 80003fc:	4604      	mov	r4, r0
 80003fe:	460d      	mov	r5, r1
        rt = "KiB";
 8000400:	e7b7      	b.n	8000372 <bench_stats_sym_finish.constprop.0+0x9a>
    if (*blocks > (1000UL * 1000UL)) {
 8000402:	a327      	add	r3, pc, #156	; (adr r3, 80004a0 <bench_stats_sym_finish.constprop.0+0x1c8>)
 8000404:	e9d3 2300 	ldrd	r2, r3, [r3]
 8000408:	4620      	mov	r0, r4
 800040a:	4629      	mov	r1, r5
 800040c:	f012 fb86 	bl	8012b1c <__aeabi_dcmpgt>
 8000410:	b158      	cbz	r0, 800042a <bench_stats_sym_finish.constprop.0+0x152>
        *blocks /= (1000UL * 1000UL);
 8000412:	4620      	mov	r0, r4
 8000414:	4629      	mov	r1, r5
 8000416:	a322      	add	r3, pc, #136	; (adr r3, 80004a0 <bench_stats_sym_finish.constprop.0+0x1c8>)
 8000418:	e9d3 2300 	ldrd	r2, r3, [r3]
 800041c:	f012 fa18 	bl	8012850 <__aeabi_ddiv>
        rt = "MB";
 8000420:	f8df a0c4 	ldr.w	sl, [pc, #196]	; 80004e8 <bench_stats_sym_finish.constprop.0+0x210>
        *blocks /= (1000UL * 1000UL);
 8000424:	4604      	mov	r4, r0
 8000426:	460d      	mov	r5, r1
        rt = "MB";
 8000428:	e7a3      	b.n	8000372 <bench_stats_sym_finish.constprop.0+0x9a>
    else if (*blocks > 1000) {
 800042a:	4b30      	ldr	r3, [pc, #192]	; (80004ec <bench_stats_sym_finish.constprop.0+0x214>)
 800042c:	2200      	movs	r2, #0
 800042e:	4620      	mov	r0, r4
 8000430:	4629      	mov	r1, r5
 8000432:	f012 fb73 	bl	8012b1c <__aeabi_dcmpgt>
 8000436:	b150      	cbz	r0, 800044e <bench_stats_sym_finish.constprop.0+0x176>
        *blocks /= 1000; /* make KB */
 8000438:	4620      	mov	r0, r4
 800043a:	4629      	mov	r1, r5
 800043c:	4b2b      	ldr	r3, [pc, #172]	; (80004ec <bench_stats_sym_finish.constprop.0+0x214>)
        rt = "KB";
 800043e:	f8df a0b0 	ldr.w	sl, [pc, #176]	; 80004f0 <bench_stats_sym_finish.constprop.0+0x218>
        *blocks /= 1000; /* make KB */
 8000442:	2200      	movs	r2, #0
 8000444:	f012 fa04 	bl	8012850 <__aeabi_ddiv>
 8000448:	4604      	mov	r4, r0
 800044a:	460d      	mov	r5, r1
        rt = "KB";
 800044c:	e791      	b.n	8000372 <bench_stats_sym_finish.constprop.0+0x9a>
        rt = "bytes";
 800044e:	f8df a0a4 	ldr.w	sl, [pc, #164]	; 80004f4 <bench_stats_sym_finish.constprop.0+0x21c>
 8000452:	e78e      	b.n	8000372 <bench_stats_sym_finish.constprop.0+0x9a>
    double total, persec = 0, blocks = (double)count;
 8000454:	2000      	movs	r0, #0
 8000456:	2100      	movs	r1, #0
 8000458:	e79d      	b.n	8000396 <bench_stats_sym_finish.constprop.0+0xbe>
        (void)XSNPRINTF(msg, sizeof(msg),
 800045a:	2303      	movs	r3, #3
 800045c:	2208      	movs	r2, #8
 800045e:	e9cd 230d 	strd	r2, r3, [sp, #52]	; 0x34
 8000462:	e9cd 0110 	strd	r0, r1, [sp, #64]	; 0x40
 8000466:	4a24      	ldr	r2, [pc, #144]	; (80004f8 <bench_stats_sym_finish.constprop.0+0x220>)
 8000468:	f8cd a048 	str.w	sl, [sp, #72]	; 0x48
 800046c:	6851      	ldr	r1, [r2, #4]
 800046e:	9309      	str	r3, [sp, #36]	; 0x24
 8000470:	e9cd 890a 	strd	r8, r9, [sp, #40]	; 0x28
 8000474:	2305      	movs	r3, #5
 8000476:	910c      	str	r1, [sp, #48]	; 0x30
 8000478:	9308      	str	r3, [sp, #32]
 800047a:	6812      	ldr	r2, [r2, #0]
 800047c:	e9cd a206 	strd	sl, r2, [sp, #24]
 8000480:	2200      	movs	r2, #0
 8000482:	e9cd 3201 	strd	r3, r2, [sp, #4]
 8000486:	4b1d      	ldr	r3, [pc, #116]	; (80004fc <bench_stats_sym_finish.constprop.0+0x224>)
 8000488:	9300      	str	r3, [sp, #0]
 800048a:	e9cd 4504 	strd	r4, r5, [sp, #16]
 800048e:	4a1c      	ldr	r2, [pc, #112]	; (8000500 <bench_stats_sym_finish.constprop.0+0x228>)
 8000490:	4633      	mov	r3, r6
 8000492:	2196      	movs	r1, #150	; 0x96
 8000494:	a814      	add	r0, sp, #80	; 0x50
 8000496:	f012 ffc9 	bl	801342c <sniprintf>
 800049a:	e788      	b.n	80003ae <bench_stats_sym_finish.constprop.0+0xd6>
 800049c:	f3af 8000 	nop.w
 80004a0:	00000000 	.word	0x00000000
 80004a4:	412e8480 	.word	0x412e8480
 80004a8:	20000180 	.word	0x20000180
 80004ac:	20000190 	.word	0x20000190
 80004b0:	0801438c 	.word	0x0801438c
 80004b4:	080143a3 	.word	0x080143a3
 80004b8:	20000008 	.word	0x20000008
 80004bc:	41300000 	.word	0x41300000
 80004c0:	3eb00000 	.word	0x3eb00000
 80004c4:	08014388 	.word	0x08014388
 80004c8:	3ff00000 	.word	0x3ff00000
 80004cc:	080143b5 	.word	0x080143b5
 80004d0:	08014354 	.word	0x08014354
 80004d4:	08014d88 	.word	0x08014d88
 80004d8:	080143e5 	.word	0x080143e5
 80004dc:	40900000 	.word	0x40900000
 80004e0:	3f500000 	.word	0x3f500000
 80004e4:	08014378 	.word	0x08014378
 80004e8:	08014382 	.word	0x08014382
 80004ec:	408f4000 	.word	0x408f4000
 80004f0:	08014385 	.word	0x08014385
 80004f4:	0801437c 	.word	0x0801437c
 80004f8:	20000088 	.word	0x20000088
 80004fc:	080142d1 	.word	0x080142d1
 8000500:	080143bc 	.word	0x080143bc

08000504 <bench_hmac.constprop.0>:

#endif /* HAVE_SCRYPT */

#ifndef NO_HMAC

static void bench_hmac(int useDeviceID, int type, int digestSz,
 8000504:	e92d 43f0 	stmdb	sp!, {r4, r5, r6, r7, r8, r9, lr}
                       const byte* key, word32 keySz, const char* label)
{
    Hmac   hmac[BENCH_MAX_PENDING];
    double start;
    int    ret = 0, i, count = 0, times, pending = 0;
 8000508:	f04f 0800 	mov.w	r8, #0
static void bench_hmac(int useDeviceID, int type, int digestSz,
 800050c:	f5ad 7d23 	sub.w	sp, sp, #652	; 0x28c
 8000510:	460c      	mov	r4, r1
 8000512:	4615      	mov	r5, r2
#endif

    (void)digestSz;

    /* clear for done cleanup */
    XMEMSET(hmac, 0, sizeof(hmac));
 8000514:	4641      	mov	r1, r8
 8000516:	f44f 720a 	mov.w	r2, #552	; 0x228
 800051a:	a818      	add	r0, sp, #96	; 0x60
static void bench_hmac(int useDeviceID, int type, int digestSz,
 800051c:	461f      	mov	r7, r3
 800051e:	9eaa      	ldr	r6, [sp, #680]	; 0x2a8
    int    ret = 0, i, count = 0, times, pending = 0;
 8000520:	f8cd 8014 	str.w	r8, [sp, #20]
    XMEMSET(hmac, 0, sizeof(hmac));
 8000524:	f012 fe74 	bl	8013210 <memset>

    /* init keys */
    for (i = 0; i < BENCH_MAX_PENDING; i++) {
        ret = wc_HmacInit(&hmac[i], HEAP_HINT,
 8000528:	f06f 0201 	mvn.w	r2, #1
 800052c:	4641      	mov	r1, r8
 800052e:	a818      	add	r0, sp, #96	; 0x60
 8000530:	f006 fd4e 	bl	8006fd0 <wc_HmacInit>
                useDeviceID ? devId : INVALID_DEVID);
        if (ret != 0) {
 8000534:	4602      	mov	r2, r0
 8000536:	b150      	cbz	r0, 800054e <bench_hmac.constprop.0+0x4a>
            printf("wc_HmacInit failed for %s, ret = %d\n", label, ret);
 8000538:	4824      	ldr	r0, [pc, #144]	; (80005cc <bench_hmac.constprop.0+0xc8>)
 800053a:	4631      	mov	r1, r6
            goto exit;
        }

        ret = wc_HmacSetKey(&hmac[i], type, key, keySz);
        if (ret != 0) {
            printf("wc_HmacSetKey failed for %s, ret = %d\n", label, ret);
 800053c:	f012 ff4e 	bl	80133dc <iprintf>
    bench_stats_sym_finish(label, useDeviceID, count, bench_size, start, ret);

exit:

    for (i = 0; i < BENCH_MAX_PENDING; i++) {
        wc_HmacFree(&hmac[i]);
 8000540:	a818      	add	r0, sp, #96	; 0x60
 8000542:	f006 fd57 	bl	8006ff4 <wc_HmacFree>
    }

#ifdef WOLFSSL_ASYNC_CRYPT
    WC_FREE_ARRAY(digest, BENCH_MAX_PENDING, HEAP_HINT);
#endif
}
 8000546:	f50d 7d23 	add.w	sp, sp, #652	; 0x28c
 800054a:	e8bd 83f0 	ldmia.w	sp!, {r4, r5, r6, r7, r8, r9, pc}
        ret = wc_HmacSetKey(&hmac[i], type, key, keySz);
 800054e:	462a      	mov	r2, r5
 8000550:	463b      	mov	r3, r7
 8000552:	4621      	mov	r1, r4
 8000554:	a818      	add	r0, sp, #96	; 0x60
 8000556:	f006 fd69 	bl	800702c <wc_HmacSetKey>
        if (ret != 0) {
 800055a:	4602      	mov	r2, r0
 800055c:	b110      	cbz	r0, 8000564 <bench_hmac.constprop.0+0x60>
            printf("wc_HmacSetKey failed for %s, ret = %d\n", label, ret);
 800055e:	481c      	ldr	r0, [pc, #112]	; (80005d0 <bench_hmac.constprop.0+0xcc>)
 8000560:	4631      	mov	r1, r6
 8000562:	e7eb      	b.n	800053c <bench_hmac.constprop.0+0x38>
    bench_stats_start(&count, &start);
 8000564:	a906      	add	r1, sp, #24
 8000566:	a805      	add	r0, sp, #20
 8000568:	f7ff fdd6 	bl	8000118 <bench_stats_start>
        for (times = 0; times < numBlocks || pending > 0; ) {
 800056c:	4f19      	ldr	r7, [pc, #100]	; (80005d4 <bench_hmac.constprop.0+0xd0>)
                    ret = wc_HmacUpdate(&hmac[i], bench_plain, bench_size);
 800056e:	f8df 8068 	ldr.w	r8, [pc, #104]	; 80005d8 <bench_hmac.constprop.0+0xd4>
 8000572:	f8df 9068 	ldr.w	r9, [pc, #104]	; 80005dc <bench_hmac.constprop.0+0xd8>
        for (times = 0; times < numBlocks || pending > 0; ) {
 8000576:	2500      	movs	r5, #0
 8000578:	683b      	ldr	r3, [r7, #0]
 800057a:	42ab      	cmp	r3, r5
 800057c:	dc1a      	bgt.n	80005b4 <bench_hmac.constprop.0+0xb0>
        count += times;
 800057e:	9b05      	ldr	r3, [sp, #20]
                    ret = wc_HmacFinal(&hmac[i], digest[i]);
 8000580:	a908      	add	r1, sp, #32
        count += times;
 8000582:	442b      	add	r3, r5
                    ret = wc_HmacFinal(&hmac[i], digest[i]);
 8000584:	a818      	add	r0, sp, #96	; 0x60
        count += times;
 8000586:	9305      	str	r3, [sp, #20]
                    ret = wc_HmacFinal(&hmac[i], digest[i]);
 8000588:	f006 fcb2 	bl	8006ef0 <wc_HmacFinal>
        if (*ret >= 0) {
 800058c:	1e04      	subs	r4, r0, #0
 800058e:	db05      	blt.n	800059c <bench_hmac.constprop.0+0x98>
    } while (bench_stats_check(start));
 8000590:	e9dd 0106 	ldrd	r0, r1, [sp, #24]
 8000594:	f7ff fdca 	bl	800012c <bench_stats_check>
 8000598:	2800      	cmp	r0, #0
 800059a:	d1ea      	bne.n	8000572 <bench_hmac.constprop.0+0x6e>
    bench_stats_sym_finish(label, useDeviceID, count, bench_size, start, ret);
 800059c:	e9dd 2306 	ldrd	r2, r3, [sp, #24]
 80005a0:	e9cd 2300 	strd	r2, r3, [sp]
 80005a4:	4b0c      	ldr	r3, [pc, #48]	; (80005d8 <bench_hmac.constprop.0+0xd4>)
 80005a6:	9402      	str	r4, [sp, #8]
 80005a8:	681a      	ldr	r2, [r3, #0]
 80005aa:	9905      	ldr	r1, [sp, #20]
 80005ac:	4630      	mov	r0, r6
 80005ae:	f7ff fe93 	bl	80002d8 <bench_stats_sym_finish.constprop.0>
 80005b2:	e7c5      	b.n	8000540 <bench_hmac.constprop.0+0x3c>
                    ret = wc_HmacUpdate(&hmac[i], bench_plain, bench_size);
 80005b4:	f8d8 2000 	ldr.w	r2, [r8]
 80005b8:	f8d9 1000 	ldr.w	r1, [r9]
 80005bc:	a818      	add	r0, sp, #96	; 0x60
 80005be:	f006 fc65 	bl	8006e8c <wc_HmacUpdate>
        if (*ret >= 0) {
 80005c2:	1e04      	subs	r4, r0, #0
 80005c4:	dbea      	blt.n	800059c <bench_hmac.constprop.0+0x98>
            (*times)++;
 80005c6:	3501      	adds	r5, #1
            for (i = 0; i < BENCH_MAX_PENDING; i++) {
 80005c8:	e7d6      	b.n	8000578 <bench_hmac.constprop.0+0x74>
 80005ca:	bf00      	nop
 80005cc:	08014400 	.word	0x08014400
 80005d0:	08014425 	.word	0x08014425
 80005d4:	200000d8 	.word	0x200000d8
 80005d8:	200000d0 	.word	0x200000d0
 80005dc:	2000017c 	.word	0x2000017c

080005e0 <bench_aesgcm_internal.constprop.0>:
static void bench_aesgcm_internal(int useDeviceID,
 80005e0:	e92d 4ff0 	stmdb	sp!, {r4, r5, r6, r7, r8, r9, sl, fp, lr}
 80005e4:	f5ad 7d77 	sub.w	sp, sp, #988	; 0x3dc
    int    ret = 0, i, count = 0, times, pending = 0;
 80005e8:	2600      	movs	r6, #0
    WC_DECLARE_VAR(bench_additional, byte, AES_AUTH_ADD_SZ, HEAP_HINT);
 80005ea:	200d      	movs	r0, #13
static void bench_aesgcm_internal(int useDeviceID,
 80005ec:	460f      	mov	r7, r1
 80005ee:	4690      	mov	r8, r2
 80005f0:	4699      	mov	r9, r3
    int    ret = 0, i, count = 0, times, pending = 0;
 80005f2:	9609      	str	r6, [sp, #36]	; 0x24
    WC_DECLARE_VAR(bench_additional, byte, AES_AUTH_ADD_SZ, HEAP_HINT);
 80005f4:	f012 fdd4 	bl	80131a0 <malloc>
 80005f8:	4604      	mov	r4, r0
    WC_DECLARE_VAR(bench_tag, byte, AES_AUTH_TAG_SZ, HEAP_HINT);
 80005fa:	2010      	movs	r0, #16
 80005fc:	f012 fdd0 	bl	80131a0 <malloc>
 8000600:	4605      	mov	r5, r0
    if (bench_additional == NULL || bench_tag == NULL) {
 8000602:	b104      	cbz	r4, 8000606 <bench_aesgcm_internal.constprop.0+0x26>
 8000604:	b9a0      	cbnz	r0, 8000630 <bench_aesgcm_internal.constprop.0+0x50>
        printf("bench_aesgcm_internal malloc failed\n");
 8000606:	486b      	ldr	r0, [pc, #428]	; (80007b4 <bench_aesgcm_internal.constprop.0+0x1d4>)
 8000608:	f012 fee8 	bl	80133dc <iprintf>
        wc_AesFree(&dec[i]);
 800060c:	a85a      	add	r0, sp, #360	; 0x168
 800060e:	f003 ffaa 	bl	8004566 <wc_AesFree>
        wc_AesFree(&enc[i]);
 8000612:	a80c      	add	r0, sp, #48	; 0x30
 8000614:	f003 ffa7 	bl	8004566 <wc_AesFree>
    WC_FREE_VAR(bench_additional, HEAP_HINT);
 8000618:	b114      	cbz	r4, 8000620 <bench_aesgcm_internal.constprop.0+0x40>
 800061a:	4620      	mov	r0, r4
 800061c:	f012 fdc8 	bl	80131b0 <free>
    WC_FREE_VAR(bench_tag, HEAP_HINT);
 8000620:	b115      	cbz	r5, 8000628 <bench_aesgcm_internal.constprop.0+0x48>
 8000622:	4628      	mov	r0, r5
 8000624:	f012 fdc4 	bl	80131b0 <free>
}
 8000628:	f50d 7d77 	add.w	sp, sp, #988	; 0x3dc
 800062c:	e8bd 8ff0 	ldmia.w	sp!, {r4, r5, r6, r7, r8, r9, sl, fp, pc}
    XMEMSET(enc, 0, sizeof(enc));
 8000630:	f44f 729c 	mov.w	r2, #312	; 0x138
 8000634:	4631      	mov	r1, r6
 8000636:	a80c      	add	r0, sp, #48	; 0x30
 8000638:	f012 fdea 	bl	8013210 <memset>
        XMEMSET(bench_additional, 0, AES_AUTH_ADD_SZ);
 800063c:	220d      	movs	r2, #13
 800063e:	4631      	mov	r1, r6
 8000640:	4620      	mov	r0, r4
 8000642:	f012 fde5 	bl	8013210 <memset>
        XMEMSET(bench_tag, 0, AES_AUTH_TAG_SZ);
 8000646:	2210      	movs	r2, #16
 8000648:	4631      	mov	r1, r6
 800064a:	4628      	mov	r0, r5
 800064c:	f012 fde0 	bl	8013210 <memset>
        if ((ret = wc_AesInit(&enc[i], HEAP_HINT,
 8000650:	f06f 0201 	mvn.w	r2, #1
 8000654:	4631      	mov	r1, r6
 8000656:	a80c      	add	r0, sp, #48	; 0x30
 8000658:	f003 ff7d 	bl	8004556 <wc_AesInit>
 800065c:	4683      	mov	fp, r0
 800065e:	b110      	cbz	r0, 8000666 <bench_aesgcm_internal.constprop.0+0x86>
            printf("AesInit failed, ret = %d\n", ret);
 8000660:	4855      	ldr	r0, [pc, #340]	; (80007b8 <bench_aesgcm_internal.constprop.0+0x1d8>)
 8000662:	4659      	mov	r1, fp
 8000664:	e008      	b.n	8000678 <bench_aesgcm_internal.constprop.0+0x98>
        ret = wc_AesGcmSetKey(&enc[i], key, keySz);
 8000666:	4642      	mov	r2, r8
 8000668:	4639      	mov	r1, r7
 800066a:	a80c      	add	r0, sp, #48	; 0x30
 800066c:	f003 fd64 	bl	8004138 <wc_AesGcmSetKey>
        if (ret != 0) {
 8000670:	4683      	mov	fp, r0
 8000672:	b158      	cbz	r0, 800068c <bench_aesgcm_internal.constprop.0+0xac>
            printf("AesGcmSetKey failed, ret = %d\n", ret);
 8000674:	4601      	mov	r1, r0
 8000676:	4851      	ldr	r0, [pc, #324]	; (80007bc <bench_aesgcm_internal.constprop.0+0x1dc>)
 8000678:	f012 feb0 	bl	80133dc <iprintf>
    if (ret < 0) {
 800067c:	f1bb 0f00 	cmp.w	fp, #0
 8000680:	dac4      	bge.n	800060c <bench_aesgcm_internal.constprop.0+0x2c>
        printf("bench_aesgcm failed: %d\n", ret);
 8000682:	4659      	mov	r1, fp
 8000684:	484e      	ldr	r0, [pc, #312]	; (80007c0 <bench_aesgcm_internal.constprop.0+0x1e0>)
 8000686:	f012 fea9 	bl	80133dc <iprintf>
 800068a:	e7bf      	b.n	800060c <bench_aesgcm_internal.constprop.0+0x2c>
    bench_stats_start(&count, &start);
 800068c:	a90a      	add	r1, sp, #40	; 0x28
 800068e:	a809      	add	r0, sp, #36	; 0x24
        for (times = 0; times < numBlocks || pending > 0; ) {
 8000690:	f8df a130 	ldr.w	sl, [pc, #304]	; 80007c4 <bench_aesgcm_internal.constprop.0+0x1e4>
    bench_stats_start(&count, &start);
 8000694:	f7ff fd40 	bl	8000118 <bench_stats_start>
 8000698:	465b      	mov	r3, fp
                    ret = wc_AesGcmEncrypt(&enc[i], bench_cipher,
 800069a:	f8df b12c 	ldr.w	fp, [pc, #300]	; 80007c8 <bench_aesgcm_internal.constprop.0+0x1e8>
        for (times = 0; times < numBlocks || pending > 0; ) {
 800069e:	2600      	movs	r6, #0
 80006a0:	f8da 2000 	ldr.w	r2, [sl]
 80006a4:	42b2      	cmp	r2, r6
 80006a6:	dc6e      	bgt.n	8000786 <bench_aesgcm_internal.constprop.0+0x1a6>
        count += times;
 80006a8:	9a09      	ldr	r2, [sp, #36]	; 0x24
 80006aa:	9307      	str	r3, [sp, #28]
 80006ac:	4432      	add	r2, r6
    } while (bench_stats_check(start));
 80006ae:	e9dd 010a 	ldrd	r0, r1, [sp, #40]	; 0x28
        count += times;
 80006b2:	9209      	str	r2, [sp, #36]	; 0x24
    } while (bench_stats_check(start));
 80006b4:	f7ff fd3a 	bl	800012c <bench_stats_check>
 80006b8:	9b07      	ldr	r3, [sp, #28]
 80006ba:	2800      	cmp	r0, #0
 80006bc:	d1ed      	bne.n	800069a <bench_aesgcm_internal.constprop.0+0xba>
    bench_stats_sym_finish(encLabel, useDeviceID, count, bench_size,
 80006be:	9302      	str	r3, [sp, #8]
 80006c0:	e9dd 230a 	ldrd	r2, r3, [sp, #40]	; 0x28
 80006c4:	e9cd 2300 	strd	r2, r3, [sp]
 80006c8:	f8df a100 	ldr.w	sl, [pc, #256]	; 80007cc <bench_aesgcm_internal.constprop.0+0x1ec>
 80006cc:	9909      	ldr	r1, [sp, #36]	; 0x24
 80006ce:	f8da 2000 	ldr.w	r2, [sl]
 80006d2:	f8dd 0400 	ldr.w	r0, [sp, #1024]	; 0x400
 80006d6:	f7ff fdff 	bl	80002d8 <bench_stats_sym_finish.constprop.0>
    XMEMSET(dec, 0, sizeof(dec));
 80006da:	f44f 721c 	mov.w	r2, #624	; 0x270
 80006de:	2100      	movs	r1, #0
 80006e0:	a85a      	add	r0, sp, #360	; 0x168
 80006e2:	f012 fd95 	bl	8013210 <memset>
        if ((ret = wc_AesInit(&dec[i], HEAP_HINT,
 80006e6:	f06f 0201 	mvn.w	r2, #1
 80006ea:	2100      	movs	r1, #0
 80006ec:	a85a      	add	r0, sp, #360	; 0x168
 80006ee:	f003 ff32 	bl	8004556 <wc_AesInit>
 80006f2:	4683      	mov	fp, r0
 80006f4:	2800      	cmp	r0, #0
 80006f6:	d1b3      	bne.n	8000660 <bench_aesgcm_internal.constprop.0+0x80>
        ret = wc_AesGcmSetKey(&dec[i], key, keySz);
 80006f8:	4642      	mov	r2, r8
 80006fa:	4639      	mov	r1, r7
 80006fc:	a85a      	add	r0, sp, #360	; 0x168
 80006fe:	f003 fd1b 	bl	8004138 <wc_AesGcmSetKey>
        if (ret != 0) {
 8000702:	4606      	mov	r6, r0
 8000704:	b128      	cbz	r0, 8000712 <bench_aesgcm_internal.constprop.0+0x132>
            printf("AesGcmSetKey failed, ret = %d\n", ret);
 8000706:	4601      	mov	r1, r0
 8000708:	482c      	ldr	r0, [pc, #176]	; (80007bc <bench_aesgcm_internal.constprop.0+0x1dc>)
 800070a:	f012 fe67 	bl	80133dc <iprintf>
            goto exit;
 800070e:	46b3      	mov	fp, r6
 8000710:	e7b4      	b.n	800067c <bench_aesgcm_internal.constprop.0+0x9c>
    bench_stats_start(&count, &start);
 8000712:	a90a      	add	r1, sp, #40	; 0x28
 8000714:	a809      	add	r0, sp, #36	; 0x24
 8000716:	f7ff fcff 	bl	8000118 <bench_stats_start>
        for (times = 0; times < numBlocks || pending > 0; ) {
 800071a:	4f2a      	ldr	r7, [pc, #168]	; (80007c4 <bench_aesgcm_internal.constprop.0+0x1e4>)
                    ret = wc_AesGcmDecrypt(&dec[i], bench_plain,
 800071c:	f8df 80b0 	ldr.w	r8, [pc, #176]	; 80007d0 <bench_aesgcm_internal.constprop.0+0x1f0>
        for (times = 0; times < numBlocks || pending > 0; ) {
 8000720:	2600      	movs	r6, #0
 8000722:	683a      	ldr	r2, [r7, #0]
 8000724:	42b2      	cmp	r2, r6
 8000726:	dc16      	bgt.n	8000756 <bench_aesgcm_internal.constprop.0+0x176>
        count += times;
 8000728:	9a09      	ldr	r2, [sp, #36]	; 0x24
    } while (bench_stats_check(start));
 800072a:	e9dd 010a 	ldrd	r0, r1, [sp, #40]	; 0x28
        count += times;
 800072e:	4432      	add	r2, r6
 8000730:	9209      	str	r2, [sp, #36]	; 0x24
    } while (bench_stats_check(start));
 8000732:	f7ff fcfb 	bl	800012c <bench_stats_check>
 8000736:	2800      	cmp	r0, #0
 8000738:	d1f2      	bne.n	8000720 <bench_aesgcm_internal.constprop.0+0x140>
    bench_stats_sym_finish(decLabel, useDeviceID, count, bench_size,
 800073a:	e9dd 010a 	ldrd	r0, r1, [sp, #40]	; 0x28
 800073e:	e9cd 0100 	strd	r0, r1, [sp]
 8000742:	f8cd b008 	str.w	fp, [sp, #8]
 8000746:	f8da 2000 	ldr.w	r2, [sl]
 800074a:	9909      	ldr	r1, [sp, #36]	; 0x24
 800074c:	f8dd 0404 	ldr.w	r0, [sp, #1028]	; 0x404
 8000750:	f7ff fdc2 	bl	80002d8 <bench_stats_sym_finish.constprop.0>
 8000754:	e792      	b.n	800067c <bench_aesgcm_internal.constprop.0+0x9c>
                    ret = wc_AesGcmDecrypt(&dec[i], bench_plain,
 8000756:	4b1f      	ldr	r3, [pc, #124]	; (80007d4 <bench_aesgcm_internal.constprop.0+0x1f4>)
 8000758:	491b      	ldr	r1, [pc, #108]	; (80007c8 <bench_aesgcm_internal.constprop.0+0x1e8>)
 800075a:	681b      	ldr	r3, [r3, #0]
 800075c:	e9cd 4304 	strd	r4, r3, [sp, #16]
 8000760:	2310      	movs	r3, #16
 8000762:	e9cd 5302 	strd	r5, r3, [sp, #8]
 8000766:	230c      	movs	r3, #12
 8000768:	e9cd 9300 	strd	r9, r3, [sp]
 800076c:	a85a      	add	r0, sp, #360	; 0x168
 800076e:	f8da 3000 	ldr.w	r3, [sl]
 8000772:	f8d8 2000 	ldr.w	r2, [r8]
 8000776:	6809      	ldr	r1, [r1, #0]
 8000778:	f003 fe36 	bl	80043e8 <wc_AesGcmDecrypt>
        if (*ret >= 0) {
 800077c:	f1b0 0b00 	subs.w	fp, r0, #0
 8000780:	dbdb      	blt.n	800073a <bench_aesgcm_internal.constprop.0+0x15a>
            (*times)++;
 8000782:	3601      	adds	r6, #1
            for (i = 0; i < BENCH_MAX_PENDING; i++) {
 8000784:	e7cd      	b.n	8000722 <bench_aesgcm_internal.constprop.0+0x142>
                    ret = wc_AesGcmEncrypt(&enc[i], bench_cipher,
 8000786:	4b13      	ldr	r3, [pc, #76]	; (80007d4 <bench_aesgcm_internal.constprop.0+0x1f4>)
 8000788:	4911      	ldr	r1, [pc, #68]	; (80007d0 <bench_aesgcm_internal.constprop.0+0x1f0>)
 800078a:	681b      	ldr	r3, [r3, #0]
 800078c:	e9cd 4304 	strd	r4, r3, [sp, #16]
 8000790:	2310      	movs	r3, #16
 8000792:	e9cd 5302 	strd	r5, r3, [sp, #8]
 8000796:	230c      	movs	r3, #12
 8000798:	e9cd 9300 	strd	r9, r3, [sp]
 800079c:	4b0b      	ldr	r3, [pc, #44]	; (80007cc <bench_aesgcm_internal.constprop.0+0x1ec>)
 800079e:	f8db 2000 	ldr.w	r2, [fp]
 80007a2:	681b      	ldr	r3, [r3, #0]
 80007a4:	6809      	ldr	r1, [r1, #0]
 80007a6:	a80c      	add	r0, sp, #48	; 0x30
 80007a8:	f003 fd96 	bl	80042d8 <wc_AesGcmEncrypt>
        if (*ret >= 0) {
 80007ac:	1e03      	subs	r3, r0, #0
 80007ae:	db86      	blt.n	80006be <bench_aesgcm_internal.constprop.0+0xde>
            (*times)++;
 80007b0:	3601      	adds	r6, #1
            for (i = 0; i < BENCH_MAX_PENDING; i++) {
 80007b2:	e775      	b.n	80006a0 <bench_aesgcm_internal.constprop.0+0xc0>
 80007b4:	0801444c 	.word	0x0801444c
 80007b8:	08014471 	.word	0x08014471
 80007bc:	0801448b 	.word	0x0801448b
 80007c0:	080144aa 	.word	0x080144aa
 80007c4:	200000d8 	.word	0x200000d8
 80007c8:	2000017c 	.word	0x2000017c
 80007cc:	200000d0 	.word	0x200000d0
 80007d0:	20000160 	.word	0x20000160
 80007d4:	20000000 	.word	0x20000000

080007d8 <bench_aesgcm>:
{
 80007d8:	b5f7      	push	{r0, r1, r2, r4, r5, r6, r7, lr}
                          AES_GCM_STRING(128, enc), AES_GCM_STRING(128, dec));
 80007da:	4d25      	ldr	r5, [pc, #148]	; (8000870 <bench_aesgcm+0x98>)
    bench_aesgcm_internal(useDeviceID, bench_key, 16, bench_iv, 12,
 80007dc:	4f25      	ldr	r7, [pc, #148]	; (8000874 <bench_aesgcm+0x9c>)
 80007de:	4e26      	ldr	r6, [pc, #152]	; (8000878 <bench_aesgcm+0xa0>)
                          AES_GCM_STRING(128, enc), AES_GCM_STRING(128, dec));
 80007e0:	682a      	ldr	r2, [r5, #0]
    bench_aesgcm_internal(useDeviceID, bench_key, 16, bench_iv, 12,
 80007e2:	6839      	ldr	r1, [r7, #0]
 80007e4:	6833      	ldr	r3, [r6, #0]
{
 80007e6:	4604      	mov	r4, r0
    bench_aesgcm_internal(useDeviceID, bench_key, 16, bench_iv, 12,
 80007e8:	2a00      	cmp	r2, #0
 80007ea:	d038      	beq.n	800085e <bench_aesgcm+0x86>
                          AES_GCM_STRING(128, enc), AES_GCM_STRING(128, dec));
 80007ec:	4823      	ldr	r0, [pc, #140]	; (800087c <bench_aesgcm+0xa4>)
 80007ee:	f8df c090 	ldr.w	ip, [pc, #144]	; 8000880 <bench_aesgcm+0xa8>
 80007f2:	2a0d      	cmp	r2, #13
 80007f4:	4a23      	ldr	r2, [pc, #140]	; (8000884 <bench_aesgcm+0xac>)
 80007f6:	bf18      	it	ne
 80007f8:	4602      	movne	r2, r0
 80007fa:	4823      	ldr	r0, [pc, #140]	; (8000888 <bench_aesgcm+0xb0>)
 80007fc:	bf18      	it	ne
 80007fe:	4660      	movne	r0, ip
    bench_aesgcm_internal(useDeviceID, bench_key, 16, bench_iv, 12,
 8000800:	e9cd 2000 	strd	r2, r0, [sp]
 8000804:	2210      	movs	r2, #16
 8000806:	4620      	mov	r0, r4
 8000808:	f7ff feea 	bl	80005e0 <bench_aesgcm_internal.constprop.0>
                          AES_GCM_STRING(192, enc), AES_GCM_STRING(192, dec));
 800080c:	682a      	ldr	r2, [r5, #0]
    bench_aesgcm_internal(useDeviceID, bench_key, 24, bench_iv, 12,
 800080e:	6839      	ldr	r1, [r7, #0]
 8000810:	6833      	ldr	r3, [r6, #0]
 8000812:	b33a      	cbz	r2, 8000864 <bench_aesgcm+0x8c>
                          AES_GCM_STRING(192, enc), AES_GCM_STRING(192, dec));
 8000814:	481d      	ldr	r0, [pc, #116]	; (800088c <bench_aesgcm+0xb4>)
 8000816:	f8df c078 	ldr.w	ip, [pc, #120]	; 8000890 <bench_aesgcm+0xb8>
 800081a:	2a0d      	cmp	r2, #13
 800081c:	4a1d      	ldr	r2, [pc, #116]	; (8000894 <bench_aesgcm+0xbc>)
 800081e:	bf08      	it	eq
 8000820:	4602      	moveq	r2, r0
 8000822:	481d      	ldr	r0, [pc, #116]	; (8000898 <bench_aesgcm+0xc0>)
 8000824:	bf08      	it	eq
 8000826:	4660      	moveq	r0, ip
    bench_aesgcm_internal(useDeviceID, bench_key, 24, bench_iv, 12,
 8000828:	e9cd 2000 	strd	r2, r0, [sp]
 800082c:	2218      	movs	r2, #24
 800082e:	4620      	mov	r0, r4
 8000830:	f7ff fed6 	bl	80005e0 <bench_aesgcm_internal.constprop.0>
                          AES_GCM_STRING(256, enc), AES_GCM_STRING(256, dec));
 8000834:	682a      	ldr	r2, [r5, #0]
    bench_aesgcm_internal(useDeviceID, bench_key, 32, bench_iv, 12,
 8000836:	6839      	ldr	r1, [r7, #0]
 8000838:	6833      	ldr	r3, [r6, #0]
 800083a:	b1b2      	cbz	r2, 800086a <bench_aesgcm+0x92>
                          AES_GCM_STRING(256, enc), AES_GCM_STRING(256, dec));
 800083c:	4817      	ldr	r0, [pc, #92]	; (800089c <bench_aesgcm+0xc4>)
 800083e:	4d18      	ldr	r5, [pc, #96]	; (80008a0 <bench_aesgcm+0xc8>)
 8000840:	2a0d      	cmp	r2, #13
 8000842:	4a18      	ldr	r2, [pc, #96]	; (80008a4 <bench_aesgcm+0xcc>)
 8000844:	bf08      	it	eq
 8000846:	4602      	moveq	r2, r0
 8000848:	4817      	ldr	r0, [pc, #92]	; (80008a8 <bench_aesgcm+0xd0>)
 800084a:	bf08      	it	eq
 800084c:	4628      	moveq	r0, r5
    bench_aesgcm_internal(useDeviceID, bench_key, 32, bench_iv, 12,
 800084e:	e9cd 2000 	strd	r2, r0, [sp]
 8000852:	2220      	movs	r2, #32
 8000854:	4620      	mov	r0, r4
 8000856:	f7ff fec3 	bl	80005e0 <bench_aesgcm_internal.constprop.0>
}
 800085a:	b003      	add	sp, #12
 800085c:	bdf0      	pop	{r4, r5, r6, r7, pc}
    bench_aesgcm_internal(useDeviceID, bench_key, 16, bench_iv, 12,
 800085e:	4a13      	ldr	r2, [pc, #76]	; (80008ac <bench_aesgcm+0xd4>)
 8000860:	4813      	ldr	r0, [pc, #76]	; (80008b0 <bench_aesgcm+0xd8>)
 8000862:	e7cd      	b.n	8000800 <bench_aesgcm+0x28>
    bench_aesgcm_internal(useDeviceID, bench_key, 24, bench_iv, 12,
 8000864:	4a13      	ldr	r2, [pc, #76]	; (80008b4 <bench_aesgcm+0xdc>)
 8000866:	4814      	ldr	r0, [pc, #80]	; (80008b8 <bench_aesgcm+0xe0>)
 8000868:	e7de      	b.n	8000828 <bench_aesgcm+0x50>
    bench_aesgcm_internal(useDeviceID, bench_key, 32, bench_iv, 12,
 800086a:	4a14      	ldr	r2, [pc, #80]	; (80008bc <bench_aesgcm+0xe4>)
 800086c:	4814      	ldr	r0, [pc, #80]	; (80008c0 <bench_aesgcm+0xe8>)
 800086e:	e7ee      	b.n	800084e <bench_aesgcm+0x76>
 8000870:	20000000 	.word	0x20000000
 8000874:	20000170 	.word	0x20000170
 8000878:	2000016c 	.word	0x2000016c
 800087c:	08014511 	.word	0x08014511
 8000880:	08014528 	.word	0x08014528
 8000884:	080144f1 	.word	0x080144f1
 8000888:	08014501 	.word	0x08014501
 800088c:	0801459b 	.word	0x0801459b
 8000890:	080145ab 	.word	0x080145ab
 8000894:	0801456d 	.word	0x0801456d
 8000898:	08014584 	.word	0x08014584
 800089c:	08014617 	.word	0x08014617
 80008a0:	08014627 	.word	0x08014627
 80008a4:	080145e9 	.word	0x080145e9
 80008a8:	08014600 	.word	0x08014600
 80008ac:	080144c3 	.word	0x080144c3
 80008b0:	080144da 	.word	0x080144da
 80008b4:	0801453f 	.word	0x0801453f
 80008b8:	08014556 	.word	0x08014556
 80008bc:	080145bb 	.word	0x080145bb
 80008c0:	080145d2 	.word	0x080145d2

080008c4 <bench_aescbc_internal>:
{
 80008c4:	e92d 47f0 	stmdb	sp!, {r4, r5, r6, r7, r8, r9, sl, lr}
    int    ret = 0, i, count = 0, times, pending = 0;
 80008c8:	2400      	movs	r4, #0
{
 80008ca:	b0d6      	sub	sp, #344	; 0x158
 80008cc:	460d      	mov	r5, r1
 80008ce:	4690      	mov	r8, r2
    XMEMSET(enc, 0, sizeof(enc));
 80008d0:	4621      	mov	r1, r4
 80008d2:	f44f 729c 	mov.w	r2, #312	; 0x138
 80008d6:	a808      	add	r0, sp, #32
{
 80008d8:	4699      	mov	r9, r3
    int    ret = 0, i, count = 0, times, pending = 0;
 80008da:	9405      	str	r4, [sp, #20]
    XMEMSET(enc, 0, sizeof(enc));
 80008dc:	f012 fc98 	bl	8013210 <memset>
        if ((ret = wc_AesInit(&enc[i], HEAP_HINT,
 80008e0:	4621      	mov	r1, r4
 80008e2:	f06f 0201 	mvn.w	r2, #1
 80008e6:	a808      	add	r0, sp, #32
 80008e8:	f003 fe35 	bl	8004556 <wc_AesInit>
 80008ec:	4601      	mov	r1, r0
 80008ee:	b140      	cbz	r0, 8000902 <bench_aescbc_internal+0x3e>
            printf("AesInit failed, ret = %d\n", ret);
 80008f0:	483c      	ldr	r0, [pc, #240]	; (80009e4 <bench_aescbc_internal+0x120>)
            printf("AesSetKey failed, ret = %d\n", ret);
 80008f2:	f012 fd73 	bl	80133dc <iprintf>
        wc_AesFree(&enc[i]);
 80008f6:	a808      	add	r0, sp, #32
 80008f8:	f003 fe35 	bl	8004566 <wc_AesFree>
}
 80008fc:	b056      	add	sp, #344	; 0x158
 80008fe:	e8bd 87f0 	ldmia.w	sp!, {r4, r5, r6, r7, r8, r9, sl, pc}
        ret = wc_AesSetKey(&enc[i], key, keySz, iv, AES_ENCRYPTION);
 8000902:	9000      	str	r0, [sp, #0]
 8000904:	464b      	mov	r3, r9
 8000906:	4642      	mov	r2, r8
 8000908:	4629      	mov	r1, r5
 800090a:	a808      	add	r0, sp, #32
 800090c:	f002 fa88 	bl	8002e20 <wc_AesSetKey>
        if (ret != 0) {
 8000910:	4604      	mov	r4, r0
 8000912:	b110      	cbz	r0, 800091a <bench_aescbc_internal+0x56>
            printf("AesSetKey failed, ret = %d\n", ret);
 8000914:	4834      	ldr	r0, [pc, #208]	; (80009e8 <bench_aescbc_internal+0x124>)
 8000916:	4621      	mov	r1, r4
 8000918:	e7eb      	b.n	80008f2 <bench_aescbc_internal+0x2e>
    bench_stats_start(&count, &start);
 800091a:	a906      	add	r1, sp, #24
 800091c:	a805      	add	r0, sp, #20
 800091e:	f7ff fbfb 	bl	8000118 <bench_stats_start>
        for (times = 0; times < numBlocks || pending > 0; ) {
 8000922:	4f32      	ldr	r7, [pc, #200]	; (80009ec <bench_aescbc_internal+0x128>)
                    ret = wc_AesCbcEncrypt(&enc[i], bench_plain, bench_cipher,
 8000924:	f8df a0c8 	ldr.w	sl, [pc, #200]	; 80009f0 <bench_aescbc_internal+0x12c>
        for (times = 0; times < numBlocks || pending > 0; ) {
 8000928:	2600      	movs	r6, #0
 800092a:	683b      	ldr	r3, [r7, #0]
 800092c:	42b3      	cmp	r3, r6
 800092e:	dc4c      	bgt.n	80009ca <bench_aescbc_internal+0x106>
        count += times;
 8000930:	9b05      	ldr	r3, [sp, #20]
    } while (bench_stats_check(start));
 8000932:	e9dd 0106 	ldrd	r0, r1, [sp, #24]
        count += times;
 8000936:	4433      	add	r3, r6
 8000938:	9305      	str	r3, [sp, #20]
    } while (bench_stats_check(start));
 800093a:	f7ff fbf7 	bl	800012c <bench_stats_check>
 800093e:	2800      	cmp	r0, #0
 8000940:	d1f2      	bne.n	8000928 <bench_aescbc_internal+0x64>
    bench_stats_sym_finish(encLabel, useDeviceID, count,
 8000942:	e9dd 2306 	ldrd	r2, r3, [sp, #24]
 8000946:	e9cd 2300 	strd	r2, r3, [sp]
 800094a:	4e29      	ldr	r6, [pc, #164]	; (80009f0 <bench_aescbc_internal+0x12c>)
 800094c:	9402      	str	r4, [sp, #8]
 800094e:	6832      	ldr	r2, [r6, #0]
 8000950:	9905      	ldr	r1, [sp, #20]
 8000952:	985e      	ldr	r0, [sp, #376]	; 0x178
 8000954:	f7ff fcc0 	bl	80002d8 <bench_stats_sym_finish.constprop.0>
    if (ret < 0) {
 8000958:	2c00      	cmp	r4, #0
 800095a:	dbcc      	blt.n	80008f6 <bench_aescbc_internal+0x32>
        ret = wc_AesSetKey(&enc[i], key, keySz, iv, AES_DECRYPTION);
 800095c:	2301      	movs	r3, #1
 800095e:	9300      	str	r3, [sp, #0]
 8000960:	4642      	mov	r2, r8
 8000962:	464b      	mov	r3, r9
 8000964:	4629      	mov	r1, r5
 8000966:	a808      	add	r0, sp, #32
 8000968:	f002 fa5a 	bl	8002e20 <wc_AesSetKey>
        if (ret != 0) {
 800096c:	4604      	mov	r4, r0
 800096e:	2800      	cmp	r0, #0
 8000970:	d1d0      	bne.n	8000914 <bench_aescbc_internal+0x50>
    bench_stats_start(&count, &start);
 8000972:	a906      	add	r1, sp, #24
 8000974:	a805      	add	r0, sp, #20
 8000976:	f7ff fbcf 	bl	8000118 <bench_stats_start>
                    ret = wc_AesCbcDecrypt(&enc[i], bench_cipher, bench_plain,
 800097a:	f8df 8078 	ldr.w	r8, [pc, #120]	; 80009f4 <bench_aescbc_internal+0x130>
 800097e:	f8df 9078 	ldr.w	r9, [pc, #120]	; 80009f8 <bench_aescbc_internal+0x134>
        for (times = 0; times < numBlocks || pending > 0; ) {
 8000982:	2500      	movs	r5, #0
 8000984:	683b      	ldr	r3, [r7, #0]
 8000986:	42ab      	cmp	r3, r5
 8000988:	dc13      	bgt.n	80009b2 <bench_aescbc_internal+0xee>
        count += times;
 800098a:	9b05      	ldr	r3, [sp, #20]
    } while (bench_stats_check(start));
 800098c:	e9dd 0106 	ldrd	r0, r1, [sp, #24]
        count += times;
 8000990:	442b      	add	r3, r5
 8000992:	9305      	str	r3, [sp, #20]
    } while (bench_stats_check(start));
 8000994:	f7ff fbca 	bl	800012c <bench_stats_check>
 8000998:	2800      	cmp	r0, #0
 800099a:	d1f2      	bne.n	8000982 <bench_aescbc_internal+0xbe>
    bench_stats_sym_finish(decLabel, useDeviceID, count, bench_size,
 800099c:	e9dd 2306 	ldrd	r2, r3, [sp, #24]
 80009a0:	e9cd 2300 	strd	r2, r3, [sp]
 80009a4:	9402      	str	r4, [sp, #8]
 80009a6:	6832      	ldr	r2, [r6, #0]
 80009a8:	9905      	ldr	r1, [sp, #20]
 80009aa:	985f      	ldr	r0, [sp, #380]	; 0x17c
 80009ac:	f7ff fc94 	bl	80002d8 <bench_stats_sym_finish.constprop.0>
 80009b0:	e7a1      	b.n	80008f6 <bench_aescbc_internal+0x32>
                    ret = wc_AesCbcDecrypt(&enc[i], bench_cipher, bench_plain,
 80009b2:	6833      	ldr	r3, [r6, #0]
 80009b4:	f8d8 2000 	ldr.w	r2, [r8]
 80009b8:	f8d9 1000 	ldr.w	r1, [r9]
 80009bc:	a808      	add	r0, sp, #32
 80009be:	f002 fc89 	bl	80032d4 <wc_AesCbcDecrypt>
        if (*ret >= 0) {
 80009c2:	1e04      	subs	r4, r0, #0
 80009c4:	dbea      	blt.n	800099c <bench_aescbc_internal+0xd8>
            (*times)++;
 80009c6:	3501      	adds	r5, #1
            for (i = 0; i < BENCH_MAX_PENDING; i++) {
 80009c8:	e7dc      	b.n	8000984 <bench_aescbc_internal+0xc0>
                    ret = wc_AesCbcEncrypt(&enc[i], bench_plain, bench_cipher,
 80009ca:	4a0b      	ldr	r2, [pc, #44]	; (80009f8 <bench_aescbc_internal+0x134>)
 80009cc:	4909      	ldr	r1, [pc, #36]	; (80009f4 <bench_aescbc_internal+0x130>)
 80009ce:	f8da 3000 	ldr.w	r3, [sl]
 80009d2:	6812      	ldr	r2, [r2, #0]
 80009d4:	6809      	ldr	r1, [r1, #0]
 80009d6:	a808      	add	r0, sp, #32
 80009d8:	f002 fc52 	bl	8003280 <wc_AesCbcEncrypt>
        if (*ret >= 0) {
 80009dc:	1e04      	subs	r4, r0, #0
 80009de:	dbb0      	blt.n	8000942 <bench_aescbc_internal+0x7e>
            (*times)++;
 80009e0:	3601      	adds	r6, #1
            for (i = 0; i < BENCH_MAX_PENDING; i++) {
 80009e2:	e7a2      	b.n	800092a <bench_aescbc_internal+0x66>
 80009e4:	08014471 	.word	0x08014471
 80009e8:	08014637 	.word	0x08014637
 80009ec:	200000d8 	.word	0x200000d8
 80009f0:	200000d0 	.word	0x200000d0
 80009f4:	2000017c 	.word	0x2000017c
 80009f8:	20000160 	.word	0x20000160

080009fc <benchmark_init>:
{
 80009fc:	b513      	push	{r0, r1, r4, lr}
    if (gBenchStaticInit == 0 || force) {
 80009fe:	4923      	ldr	r1, [pc, #140]	; (8000a8c <benchmark_init+0x90>)
 8000a00:	680b      	ldr	r3, [r1, #0]
 8000a02:	bb13      	cbnz	r3, 8000a4a <benchmark_init+0x4e>
        gBenchStaticInit = 1;
 8000a04:	2201      	movs	r2, #1
 8000a06:	600a      	str	r2, [r1, #0]
        numBlocks  = NUM_BLOCKS;
 8000a08:	4921      	ldr	r1, [pc, #132]	; (8000a90 <benchmark_init+0x94>)
 8000a0a:	2019      	movs	r0, #25
 8000a0c:	6008      	str	r0, [r1, #0]
        bench_size = BENCH_SIZE;
 8000a0e:	4921      	ldr	r1, [pc, #132]	; (8000a94 <benchmark_init+0x98>)
 8000a10:	f44f 6080 	mov.w	r0, #1024	; 0x400
 8000a14:	6008      	str	r0, [r1, #0]
        aesAuthAddSz    = AES_AUTH_ADD_SZ;
 8000a16:	4920      	ldr	r1, [pc, #128]	; (8000a98 <benchmark_init+0x9c>)
 8000a18:	200d      	movs	r0, #13
 8000a1a:	6008      	str	r0, [r1, #0]
        aes_aad_options = AES_AAD_OPTIONS_DEFAULT;
 8000a1c:	491f      	ldr	r1, [pc, #124]	; (8000a9c <benchmark_init+0xa0>)
 8000a1e:	2003      	movs	r0, #3
 8000a20:	6008      	str	r0, [r1, #0]
        aes_aad_size    = 0;
 8000a22:	491f      	ldr	r1, [pc, #124]	; (8000aa0 <benchmark_init+0xa4>)
 8000a24:	600b      	str	r3, [r1, #0]
        base2 = 1;
 8000a26:	491f      	ldr	r1, [pc, #124]	; (8000aa4 <benchmark_init+0xa8>)
 8000a28:	600a      	str	r2, [r1, #0]
        digest_stream = 1;
 8000a2a:	491f      	ldr	r1, [pc, #124]	; (8000aa8 <benchmark_init+0xac>)
 8000a2c:	600a      	str	r2, [r1, #0]
        bench_all = 1;
 8000a2e:	491f      	ldr	r1, [pc, #124]	; (8000aac <benchmark_init+0xb0>)
 8000a30:	600a      	str	r2, [r1, #0]
        bench_cipher_algs = 0;
 8000a32:	4a1f      	ldr	r2, [pc, #124]	; (8000ab0 <benchmark_init+0xb4>)
 8000a34:	6013      	str	r3, [r2, #0]
        bench_digest_algs = 0;
 8000a36:	4a1f      	ldr	r2, [pc, #124]	; (8000ab4 <benchmark_init+0xb8>)
 8000a38:	6013      	str	r3, [r2, #0]
        bench_mac_algs = 0;
 8000a3a:	4a1f      	ldr	r2, [pc, #124]	; (8000ab8 <benchmark_init+0xbc>)
 8000a3c:	6013      	str	r3, [r2, #0]
        bench_asym_algs = 0;
 8000a3e:	4a1f      	ldr	r2, [pc, #124]	; (8000abc <benchmark_init+0xc0>)
 8000a40:	6013      	str	r3, [r2, #0]
        bench_other_algs = 0;
 8000a42:	4a1f      	ldr	r2, [pc, #124]	; (8000ac0 <benchmark_init+0xc4>)
 8000a44:	6013      	str	r3, [r2, #0]
        csv_format = 0;
 8000a46:	4a1f      	ldr	r2, [pc, #124]	; (8000ac4 <benchmark_init+0xc8>)
 8000a48:	6013      	str	r3, [r2, #0]
    if ((ret = wolfCrypt_Init()) != 0) {
 8000a4a:	f011 fb91 	bl	8012170 <wolfCrypt_Init>
 8000a4e:	4604      	mov	r4, r0
 8000a50:	b140      	cbz	r0, 8000a64 <benchmark_init+0x68>
        printf("%swolfCrypt_Init failed %d\n", err_prefix, ret);
 8000a52:	4602      	mov	r2, r0
 8000a54:	491c      	ldr	r1, [pc, #112]	; (8000ac8 <benchmark_init+0xcc>)
 8000a56:	481d      	ldr	r0, [pc, #116]	; (8000acc <benchmark_init+0xd0>)
 8000a58:	f012 fcc0 	bl	80133dc <iprintf>
        return EXIT_FAILURE;
 8000a5c:	2401      	movs	r4, #1
}
 8000a5e:	4620      	mov	r0, r4
 8000a60:	b002      	add	sp, #8
 8000a62:	bd10      	pop	{r4, pc}
    printf("%swolfCrypt Benchmark (block bytes %d, min " FLT_FMT_PREC " sec each)\n",
 8000a64:	4b1a      	ldr	r3, [pc, #104]	; (8000ad0 <benchmark_init+0xd4>)
 8000a66:	491b      	ldr	r1, [pc, #108]	; (8000ad4 <benchmark_init+0xd8>)
 8000a68:	481b      	ldr	r0, [pc, #108]	; (8000ad8 <benchmark_init+0xdc>)
 8000a6a:	2200      	movs	r2, #0
 8000a6c:	e9cd 2300 	strd	r2, r3, [sp]
 8000a70:	4a08      	ldr	r2, [pc, #32]	; (8000a94 <benchmark_init+0x98>)
 8000a72:	2301      	movs	r3, #1
 8000a74:	6812      	ldr	r2, [r2, #0]
 8000a76:	f012 fcb1 	bl	80133dc <iprintf>
    if (csv_format == 1) {
 8000a7a:	4b12      	ldr	r3, [pc, #72]	; (8000ac4 <benchmark_init+0xc8>)
 8000a7c:	681b      	ldr	r3, [r3, #0]
 8000a7e:	2b01      	cmp	r3, #1
 8000a80:	d1ed      	bne.n	8000a5e <benchmark_init+0x62>
        printf("This format allows you to easily copy "
 8000a82:	4816      	ldr	r0, [pc, #88]	; (8000adc <benchmark_init+0xe0>)
 8000a84:	f012 fcaa 	bl	80133dc <iprintf>
 8000a88:	e7e9      	b.n	8000a5e <benchmark_init+0x62>
 8000a8a:	bf00      	nop
 8000a8c:	20000184 	.word	0x20000184
 8000a90:	200000d8 	.word	0x200000d8
 8000a94:	200000d0 	.word	0x200000d0
 8000a98:	20000000 	.word	0x20000000
 8000a9c:	20000004 	.word	0x20000004
 8000aa0:	20000154 	.word	0x20000154
 8000aa4:	20000008 	.word	0x20000008
 8000aa8:	200000d4 	.word	0x200000d4
 8000aac:	2000000c 	.word	0x2000000c
 8000ab0:	20000164 	.word	0x20000164
 8000ab4:	20000168 	.word	0x20000168
 8000ab8:	20000174 	.word	0x20000174
 8000abc:	2000015c 	.word	0x2000015c
 8000ac0:	20000178 	.word	0x20000178
 8000ac4:	20000180 	.word	0x20000180
 8000ac8:	08014d88 	.word	0x08014d88
 8000acc:	08014653 	.word	0x08014653
 8000ad0:	3ff00000 	.word	0x3ff00000
 8000ad4:	08014d89 	.word	0x08014d89
 8000ad8:	0801466f 	.word	0x0801466f
 8000adc:	080146aa 	.word	0x080146aa

08000ae0 <benchmark_free>:
{
 8000ae0:	b510      	push	{r4, lr}
    if ((ret = wolfCrypt_Cleanup()) != 0) {
 8000ae2:	f011 fb4f 	bl	8012184 <wolfCrypt_Cleanup>
 8000ae6:	4604      	mov	r4, r0
 8000ae8:	b120      	cbz	r0, 8000af4 <benchmark_free+0x14>
        printf("%serror %d with wolfCrypt_Cleanup\n", err_prefix, ret);
 8000aea:	4602      	mov	r2, r0
 8000aec:	4902      	ldr	r1, [pc, #8]	; (8000af8 <benchmark_free+0x18>)
 8000aee:	4803      	ldr	r0, [pc, #12]	; (8000afc <benchmark_free+0x1c>)
 8000af0:	f012 fc74 	bl	80133dc <iprintf>
}
 8000af4:	4620      	mov	r0, r4
 8000af6:	bd10      	pop	{r4, pc}
 8000af8:	08014d88 	.word	0x08014d88
 8000afc:	080146ea 	.word	0x080146ea

08000b00 <bench_rng>:
{
 8000b00:	e92d 47f0 	stmdb	sp!, {r4, r5, r6, r7, r8, r9, sl, lr}
 8000b04:	b08a      	sub	sp, #40	; 0x28
    ret = wc_InitRng_ex(&myrng, HEAP_HINT, devId);
 8000b06:	f06f 0201 	mvn.w	r2, #1
 8000b0a:	2100      	movs	r1, #0
 8000b0c:	a808      	add	r0, sp, #32
 8000b0e:	f006 fb17 	bl	8007140 <wc_InitRng_ex>
    if (ret < 0) {
 8000b12:	1e04      	subs	r4, r0, #0
 8000b14:	da06      	bge.n	8000b24 <bench_rng+0x24>
        printf("InitRNG failed %d\n", ret);
 8000b16:	4823      	ldr	r0, [pc, #140]	; (8000ba4 <bench_rng+0xa4>)
 8000b18:	4621      	mov	r1, r4
 8000b1a:	f012 fc5f 	bl	80133dc <iprintf>
}
 8000b1e:	b00a      	add	sp, #40	; 0x28
 8000b20:	e8bd 87f0 	ldmia.w	sp!, {r4, r5, r6, r7, r8, r9, sl, pc}
    bench_stats_start(&count, &start);
 8000b24:	a906      	add	r1, sp, #24
 8000b26:	a805      	add	r0, sp, #20
 8000b28:	f7ff faf6 	bl	8000118 <bench_stats_start>
        for (i = 0; i < numBlocks; i++) {
 8000b2c:	f8df 8078 	ldr.w	r8, [pc, #120]	; 8000ba8 <bench_rng+0xa8>
                ret = wc_RNG_GenerateBlock(&myrng, &bench_plain[pos],
 8000b30:	f8df 9078 	ldr.w	r9, [pc, #120]	; 8000bac <bench_rng+0xac>
        for (i = 0; i < numBlocks; i++) {
 8000b34:	2500      	movs	r5, #0
 8000b36:	f8d8 3000 	ldr.w	r3, [r8]
 8000b3a:	42ab      	cmp	r3, r5
 8000b3c:	dc17      	bgt.n	8000b6e <bench_rng+0x6e>
        count += i;
 8000b3e:	9b05      	ldr	r3, [sp, #20]
    } while (bench_stats_check(start));
 8000b40:	e9dd 0106 	ldrd	r0, r1, [sp, #24]
        count += i;
 8000b44:	442b      	add	r3, r5
 8000b46:	9305      	str	r3, [sp, #20]
    } while (bench_stats_check(start));
 8000b48:	f7ff faf0 	bl	800012c <bench_stats_check>
 8000b4c:	2800      	cmp	r0, #0
 8000b4e:	d1f1      	bne.n	8000b34 <bench_rng+0x34>
    bench_stats_sym_finish("RNG", 0, count, bench_size, start, ret);
 8000b50:	e9dd 2306 	ldrd	r2, r3, [sp, #24]
 8000b54:	e9cd 2300 	strd	r2, r3, [sp]
 8000b58:	4b15      	ldr	r3, [pc, #84]	; (8000bb0 <bench_rng+0xb0>)
 8000b5a:	9402      	str	r4, [sp, #8]
 8000b5c:	681a      	ldr	r2, [r3, #0]
 8000b5e:	9905      	ldr	r1, [sp, #20]
 8000b60:	4814      	ldr	r0, [pc, #80]	; (8000bb4 <bench_rng+0xb4>)
 8000b62:	f7ff fbb9 	bl	80002d8 <bench_stats_sym_finish.constprop.0>
    wc_FreeRng(&myrng);
 8000b66:	a808      	add	r0, sp, #32
 8000b68:	f006 fb06 	bl	8007178 <wc_FreeRng>
 8000b6c:	e7d7      	b.n	8000b1e <bench_rng+0x1e>
            remain = (int)bench_size;
 8000b6e:	4b10      	ldr	r3, [pc, #64]	; (8000bb0 <bench_rng+0xb0>)
 8000b70:	681e      	ldr	r6, [r3, #0]
            pos = 0;
 8000b72:	2700      	movs	r7, #0
            while (remain > 0) {
 8000b74:	2e00      	cmp	r6, #0
 8000b76:	dc01      	bgt.n	8000b7c <bench_rng+0x7c>
        for (i = 0; i < numBlocks; i++) {
 8000b78:	3501      	adds	r5, #1
 8000b7a:	e7dc      	b.n	8000b36 <bench_rng+0x36>
                if (len > RNG_MAX_BLOCK_LEN)
 8000b7c:	f5b6 3f80 	cmp.w	r6, #65536	; 0x10000
                ret = wc_RNG_GenerateBlock(&myrng, &bench_plain[pos],
 8000b80:	f8d9 1000 	ldr.w	r1, [r9]
 8000b84:	46b2      	mov	sl, r6
 8000b86:	bfa8      	it	ge
 8000b88:	f44f 3a80 	movge.w	sl, #65536	; 0x10000
 8000b8c:	4652      	mov	r2, sl
 8000b8e:	4439      	add	r1, r7
 8000b90:	a808      	add	r0, sp, #32
 8000b92:	f006 fadc 	bl	800714e <wc_RNG_GenerateBlock>
                if (ret < 0)
 8000b96:	1e04      	subs	r4, r0, #0
 8000b98:	dbda      	blt.n	8000b50 <bench_rng+0x50>
                remain -= len;
 8000b9a:	eba6 060a 	sub.w	r6, r6, sl
                pos += len;
 8000b9e:	4457      	add	r7, sl
 8000ba0:	e7e8      	b.n	8000b74 <bench_rng+0x74>
 8000ba2:	bf00      	nop
 8000ba4:	0801470d 	.word	0x0801470d
 8000ba8:	200000d8 	.word	0x200000d8
 8000bac:	2000017c 	.word	0x2000017c
 8000bb0:	200000d0 	.word	0x200000d0
 8000bb4:	08014720 	.word	0x08014720

08000bb8 <bench_aescbc>:
{
 8000bb8:	b573      	push	{r0, r1, r4, r5, r6, lr}
    bench_aescbc_internal(useDeviceID, bench_key, 16, bench_iv,
 8000bba:	4b11      	ldr	r3, [pc, #68]	; (8000c00 <bench_aescbc+0x48>)
 8000bbc:	4e11      	ldr	r6, [pc, #68]	; (8000c04 <bench_aescbc+0x4c>)
 8000bbe:	4d12      	ldr	r5, [pc, #72]	; (8000c08 <bench_aescbc+0x50>)
 8000bc0:	9301      	str	r3, [sp, #4]
 8000bc2:	4b12      	ldr	r3, [pc, #72]	; (8000c0c <bench_aescbc+0x54>)
 8000bc4:	6829      	ldr	r1, [r5, #0]
 8000bc6:	9300      	str	r3, [sp, #0]
 8000bc8:	2210      	movs	r2, #16
 8000bca:	6833      	ldr	r3, [r6, #0]
{
 8000bcc:	4604      	mov	r4, r0
    bench_aescbc_internal(useDeviceID, bench_key, 16, bench_iv,
 8000bce:	f7ff fe79 	bl	80008c4 <bench_aescbc_internal>
    bench_aescbc_internal(useDeviceID, bench_key, 24, bench_iv,
 8000bd2:	4b0f      	ldr	r3, [pc, #60]	; (8000c10 <bench_aescbc+0x58>)
 8000bd4:	9301      	str	r3, [sp, #4]
 8000bd6:	4b0f      	ldr	r3, [pc, #60]	; (8000c14 <bench_aescbc+0x5c>)
 8000bd8:	6829      	ldr	r1, [r5, #0]
 8000bda:	9300      	str	r3, [sp, #0]
 8000bdc:	4620      	mov	r0, r4
 8000bde:	6833      	ldr	r3, [r6, #0]
 8000be0:	2218      	movs	r2, #24
 8000be2:	f7ff fe6f 	bl	80008c4 <bench_aescbc_internal>
    bench_aescbc_internal(useDeviceID, bench_key, 32, bench_iv,
 8000be6:	4b0c      	ldr	r3, [pc, #48]	; (8000c18 <bench_aescbc+0x60>)
 8000be8:	9301      	str	r3, [sp, #4]
 8000bea:	4b0c      	ldr	r3, [pc, #48]	; (8000c1c <bench_aescbc+0x64>)
 8000bec:	9300      	str	r3, [sp, #0]
 8000bee:	6829      	ldr	r1, [r5, #0]
 8000bf0:	6833      	ldr	r3, [r6, #0]
 8000bf2:	2220      	movs	r2, #32
 8000bf4:	4620      	mov	r0, r4
 8000bf6:	f7ff fe65 	bl	80008c4 <bench_aescbc_internal>
}
 8000bfa:	b002      	add	sp, #8
 8000bfc:	bd70      	pop	{r4, r5, r6, pc}
 8000bfe:	bf00      	nop
 8000c00:	08014724 	.word	0x08014724
 8000c04:	2000016c 	.word	0x2000016c
 8000c08:	20000170 	.word	0x20000170
 8000c0c:	08014734 	.word	0x08014734
 8000c10:	08014744 	.word	0x08014744
 8000c14:	08014754 	.word	0x08014754
 8000c18:	08014764 	.word	0x08014764
 8000c1c:	08014774 	.word	0x08014774

08000c20 <bench_gmac>:
{
 8000c20:	e92d 43f0 	stmdb	sp!, {r4, r5, r6, r7, r8, r9, lr}
    XMEMSET(bench_plain, 0, bench_size);
 8000c24:	4d27      	ldr	r5, [pc, #156]	; (8000cc4 <bench_gmac+0xa4>)
 8000c26:	4e28      	ldr	r6, [pc, #160]	; (8000cc8 <bench_gmac+0xa8>)
 8000c28:	682a      	ldr	r2, [r5, #0]
 8000c2a:	6830      	ldr	r0, [r6, #0]
        ret = wc_GmacUpdate(&gmac, bench_iv, 12, bench_plain, bench_size,
 8000c2c:	f8df 809c 	ldr.w	r8, [pc, #156]	; 8000ccc <bench_gmac+0xac>
{
 8000c30:	b0db      	sub	sp, #364	; 0x16c
    int ret, count = 0;
 8000c32:	2400      	movs	r4, #0
    XMEMSET(bench_plain, 0, bench_size);
 8000c34:	4621      	mov	r1, r4
    XMEMSET(tag, 0, sizeof(tag));
 8000c36:	af08      	add	r7, sp, #32
    int ret, count = 0;
 8000c38:	9405      	str	r4, [sp, #20]
    XMEMSET(bench_plain, 0, bench_size);
 8000c3a:	f012 fae9 	bl	8013210 <memset>
    XMEMSET(tag, 0, sizeof(tag));
 8000c3e:	2210      	movs	r2, #16
 8000c40:	4621      	mov	r1, r4
 8000c42:	4638      	mov	r0, r7
 8000c44:	f012 fae4 	bl	8013210 <memset>
    XMEMSET(&gmac, 0, sizeof(Gmac)); /* clear context */
 8000c48:	f44f 729c 	mov.w	r2, #312	; 0x138
 8000c4c:	4621      	mov	r1, r4
 8000c4e:	a80c      	add	r0, sp, #48	; 0x30
 8000c50:	f012 fade 	bl	8013210 <memset>
    (void)wc_AesInit((Aes*)&gmac, HEAP_HINT,
 8000c54:	f06f 0201 	mvn.w	r2, #1
 8000c58:	4621      	mov	r1, r4
 8000c5a:	a80c      	add	r0, sp, #48	; 0x30
 8000c5c:	f003 fc7b 	bl	8004556 <wc_AesInit>
    wc_GmacSetKey(&gmac, bench_key, 16);
 8000c60:	4b1b      	ldr	r3, [pc, #108]	; (8000cd0 <bench_gmac+0xb0>)
 8000c62:	2210      	movs	r2, #16
 8000c64:	6819      	ldr	r1, [r3, #0]
 8000c66:	a80c      	add	r0, sp, #48	; 0x30
 8000c68:	f003 fc58 	bl	800451c <wc_GmacSetKey>
    bench_stats_start(&count, &start);
 8000c6c:	a906      	add	r1, sp, #24
 8000c6e:	a805      	add	r0, sp, #20
 8000c70:	f7ff fa52 	bl	8000118 <bench_stats_start>
        ret = wc_GmacUpdate(&gmac, bench_iv, 12, bench_plain, bench_size,
 8000c74:	f04f 0910 	mov.w	r9, #16
 8000c78:	682b      	ldr	r3, [r5, #0]
 8000c7a:	f8d8 1000 	ldr.w	r1, [r8]
 8000c7e:	9300      	str	r3, [sp, #0]
 8000c80:	e9cd 7901 	strd	r7, r9, [sp, #4]
 8000c84:	6833      	ldr	r3, [r6, #0]
 8000c86:	220c      	movs	r2, #12
 8000c88:	a80c      	add	r0, sp, #48	; 0x30
 8000c8a:	f003 fc4e 	bl	800452a <wc_GmacUpdate>
        count++;
 8000c8e:	9b05      	ldr	r3, [sp, #20]
        ret = wc_GmacUpdate(&gmac, bench_iv, 12, bench_plain, bench_size,
 8000c90:	4604      	mov	r4, r0
        count++;
 8000c92:	3301      	adds	r3, #1
    } while (bench_stats_check(start));
 8000c94:	e9dd 0106 	ldrd	r0, r1, [sp, #24]
        count++;
 8000c98:	9305      	str	r3, [sp, #20]
    } while (bench_stats_check(start));
 8000c9a:	f7ff fa47 	bl	800012c <bench_stats_check>
 8000c9e:	2800      	cmp	r0, #0
 8000ca0:	d1ea      	bne.n	8000c78 <bench_gmac+0x58>
    wc_AesFree((Aes*)&gmac);
 8000ca2:	a80c      	add	r0, sp, #48	; 0x30
 8000ca4:	f003 fc5f 	bl	8004566 <wc_AesFree>
    bench_stats_sym_finish(gmacStr, 0, count, bench_size, start, ret);
 8000ca8:	e9dd 2306 	ldrd	r2, r3, [sp, #24]
 8000cac:	9905      	ldr	r1, [sp, #20]
 8000cae:	4809      	ldr	r0, [pc, #36]	; (8000cd4 <bench_gmac+0xb4>)
 8000cb0:	9402      	str	r4, [sp, #8]
 8000cb2:	e9cd 2300 	strd	r2, r3, [sp]
 8000cb6:	682a      	ldr	r2, [r5, #0]
 8000cb8:	f7ff fb0e 	bl	80002d8 <bench_stats_sym_finish.constprop.0>
}
 8000cbc:	b05b      	add	sp, #364	; 0x16c
 8000cbe:	e8bd 83f0 	ldmia.w	sp!, {r4, r5, r6, r7, r8, r9, pc}
 8000cc2:	bf00      	nop
 8000cc4:	200000d0 	.word	0x200000d0
 8000cc8:	2000017c 	.word	0x2000017c
 8000ccc:	2000016c 	.word	0x2000016c
 8000cd0:	20000170 	.word	0x20000170
 8000cd4:	08014784 	.word	0x08014784

08000cd8 <bench_des>:
{
 8000cd8:	e92d 41f0 	stmdb	sp!, {r4, r5, r6, r7, r8, lr}
    int    ret = 0, i, count = 0, times, pending = 0;
 8000cdc:	2400      	movs	r4, #0
{
 8000cde:	b0ee      	sub	sp, #440	; 0x1b8
    XMEMSET(enc, 0, sizeof(enc));
 8000ce0:	f44f 72ca 	mov.w	r2, #404	; 0x194
 8000ce4:	4621      	mov	r1, r4
 8000ce6:	a809      	add	r0, sp, #36	; 0x24
    int    ret = 0, i, count = 0, times, pending = 0;
 8000ce8:	9405      	str	r4, [sp, #20]
    XMEMSET(enc, 0, sizeof(enc));
 8000cea:	f012 fa91 	bl	8013210 <memset>
        if ((ret = wc_Des3Init(&enc[i], HEAP_HINT,
 8000cee:	f06f 0201 	mvn.w	r2, #1
 8000cf2:	4621      	mov	r1, r4
 8000cf4:	a809      	add	r0, sp, #36	; 0x24
 8000cf6:	f003 fee0 	bl	8004aba <wc_Des3Init>
 8000cfa:	4603      	mov	r3, r0
 8000cfc:	b148      	cbz	r0, 8000d12 <bench_des+0x3a>
            printf("Des3Init failed, ret = %d\n", ret);
 8000cfe:	4601      	mov	r1, r0
 8000d00:	4820      	ldr	r0, [pc, #128]	; (8000d84 <bench_des+0xac>)
            printf("Des3_SetKey failed, ret = %d\n", ret);
 8000d02:	f012 fb6b 	bl	80133dc <iprintf>
        wc_Des3Free(&enc[i]);
 8000d06:	a809      	add	r0, sp, #36	; 0x24
 8000d08:	f003 fedf 	bl	8004aca <wc_Des3Free>
}
 8000d0c:	b06e      	add	sp, #440	; 0x1b8
 8000d0e:	e8bd 81f0 	ldmia.w	sp!, {r4, r5, r6, r7, r8, pc}
        ret = wc_Des3_SetKey(&enc[i], bench_key, bench_iv, DES_ENCRYPTION);
 8000d12:	4a1d      	ldr	r2, [pc, #116]	; (8000d88 <bench_des+0xb0>)
 8000d14:	491d      	ldr	r1, [pc, #116]	; (8000d8c <bench_des+0xb4>)
 8000d16:	6812      	ldr	r2, [r2, #0]
 8000d18:	6809      	ldr	r1, [r1, #0]
 8000d1a:	a809      	add	r0, sp, #36	; 0x24
 8000d1c:	f003 fe8c 	bl	8004a38 <wc_Des3_SetKey>
        if (ret != 0) {
 8000d20:	4604      	mov	r4, r0
 8000d22:	b110      	cbz	r0, 8000d2a <bench_des+0x52>
            printf("Des3_SetKey failed, ret = %d\n", ret);
 8000d24:	4601      	mov	r1, r0
 8000d26:	481a      	ldr	r0, [pc, #104]	; (8000d90 <bench_des+0xb8>)
 8000d28:	e7eb      	b.n	8000d02 <bench_des+0x2a>
    bench_stats_start(&count, &start);
 8000d2a:	a906      	add	r1, sp, #24
 8000d2c:	a805      	add	r0, sp, #20
 8000d2e:	f7ff f9f3 	bl	8000118 <bench_stats_start>
        for (times = 0; times < numBlocks || pending > 0; ) {
 8000d32:	4e18      	ldr	r6, [pc, #96]	; (8000d94 <bench_des+0xbc>)
                    ret = wc_Des3_CbcEncrypt(&enc[i],
 8000d34:	4f18      	ldr	r7, [pc, #96]	; (8000d98 <bench_des+0xc0>)
 8000d36:	f8df 8064 	ldr.w	r8, [pc, #100]	; 8000d9c <bench_des+0xc4>
        for (times = 0; times < numBlocks || pending > 0; ) {
 8000d3a:	2500      	movs	r5, #0
 8000d3c:	6833      	ldr	r3, [r6, #0]
 8000d3e:	42ab      	cmp	r3, r5
 8000d40:	dc14      	bgt.n	8000d6c <bench_des+0x94>
        count += times;
 8000d42:	9b05      	ldr	r3, [sp, #20]
    } while (bench_stats_check(start));
 8000d44:	e9dd 0106 	ldrd	r0, r1, [sp, #24]
        count += times;
 8000d48:	442b      	add	r3, r5
 8000d4a:	9305      	str	r3, [sp, #20]
    } while (bench_stats_check(start));
 8000d4c:	f7ff f9ee 	bl	800012c <bench_stats_check>
 8000d50:	2800      	cmp	r0, #0
 8000d52:	d1f0      	bne.n	8000d36 <bench_des+0x5e>
    bench_stats_sym_finish("3DES", useDeviceID, count, bench_size, start, ret);
 8000d54:	e9dd 2306 	ldrd	r2, r3, [sp, #24]
 8000d58:	e9cd 2300 	strd	r2, r3, [sp]
 8000d5c:	4b0e      	ldr	r3, [pc, #56]	; (8000d98 <bench_des+0xc0>)
 8000d5e:	9402      	str	r4, [sp, #8]
 8000d60:	681a      	ldr	r2, [r3, #0]
 8000d62:	9905      	ldr	r1, [sp, #20]
 8000d64:	480e      	ldr	r0, [pc, #56]	; (8000da0 <bench_des+0xc8>)
 8000d66:	f7ff fab7 	bl	80002d8 <bench_stats_sym_finish.constprop.0>
 8000d6a:	e7cc      	b.n	8000d06 <bench_des+0x2e>
                    ret = wc_Des3_CbcEncrypt(&enc[i],
 8000d6c:	490d      	ldr	r1, [pc, #52]	; (8000da4 <bench_des+0xcc>)
 8000d6e:	683b      	ldr	r3, [r7, #0]
 8000d70:	f8d8 2000 	ldr.w	r2, [r8]
 8000d74:	6809      	ldr	r1, [r1, #0]
 8000d76:	a809      	add	r0, sp, #36	; 0x24
 8000d78:	f003 fe28 	bl	80049cc <wc_Des3_CbcEncrypt>
        if (*ret >= 0) {
 8000d7c:	1e04      	subs	r4, r0, #0
 8000d7e:	dbe9      	blt.n	8000d54 <bench_des+0x7c>
            (*times)++;
 8000d80:	3501      	adds	r5, #1
            for (i = 0; i < BENCH_MAX_PENDING; i++) {
 8000d82:	e7db      	b.n	8000d3c <bench_des+0x64>
 8000d84:	0801478f 	.word	0x0801478f
 8000d88:	2000016c 	.word	0x2000016c
 8000d8c:	20000170 	.word	0x20000170
 8000d90:	080147aa 	.word	0x080147aa
 8000d94:	200000d8 	.word	0x200000d8
 8000d98:	200000d0 	.word	0x200000d0
 8000d9c:	2000017c 	.word	0x2000017c
 8000da0:	080147c8 	.word	0x080147c8
 8000da4:	20000160 	.word	0x20000160

08000da8 <bench_sha>:
{
 8000da8:	e92d 43f0 	stmdb	sp!, {r4, r5, r6, r7, r8, r9, lr}
 8000dac:	b0a3      	sub	sp, #140	; 0x8c
    int    ret = 0, i, count = 0, times, pending = 0;
 8000dae:	2400      	movs	r4, #0
    WC_INIT_ARRAY(digest, byte, BENCH_MAX_PENDING,
 8000db0:	2014      	movs	r0, #20
    int    ret = 0, i, count = 0, times, pending = 0;
 8000db2:	9405      	str	r4, [sp, #20]
    WC_INIT_ARRAY(digest, byte, BENCH_MAX_PENDING,
 8000db4:	f012 f9f4 	bl	80131a0 <malloc>
    XMEMSET(hash, 0, sizeof(hash));
 8000db8:	2264      	movs	r2, #100	; 0x64
    WC_INIT_ARRAY(digest, byte, BENCH_MAX_PENDING,
 8000dba:	4605      	mov	r5, r0
    XMEMSET(hash, 0, sizeof(hash));
 8000dbc:	4621      	mov	r1, r4
 8000dbe:	a809      	add	r0, sp, #36	; 0x24
 8000dc0:	f012 fa26 	bl	8013210 <memset>
    if (digest_stream) {
 8000dc4:	4b3f      	ldr	r3, [pc, #252]	; (8000ec4 <bench_sha+0x11c>)
 8000dc6:	681b      	ldr	r3, [r3, #0]
 8000dc8:	bb23      	cbnz	r3, 8000e14 <bench_sha+0x6c>
        bench_stats_start(&count, &start);
 8000dca:	a906      	add	r1, sp, #24
 8000dcc:	a805      	add	r0, sp, #20
 8000dce:	f7ff f9a3 	bl	8000118 <bench_stats_start>
            for (times = 0; times < numBlocks; times++) {
 8000dd2:	4e3d      	ldr	r6, [pc, #244]	; (8000ec8 <bench_sha+0x120>)
                    ret = wc_ShaUpdate(hash, bench_plain, bench_size);
 8000dd4:	4f3d      	ldr	r7, [pc, #244]	; (8000ecc <bench_sha+0x124>)
 8000dd6:	f8df 90f8 	ldr.w	r9, [pc, #248]	; 8000ed0 <bench_sha+0x128>
            for (times = 0; times < numBlocks; times++) {
 8000dda:	f04f 0800 	mov.w	r8, #0
 8000dde:	6833      	ldr	r3, [r6, #0]
 8000de0:	4543      	cmp	r3, r8
 8000de2:	dc48      	bgt.n	8000e76 <bench_sha+0xce>
            count += times;
 8000de4:	9b05      	ldr	r3, [sp, #20]
        } while (bench_stats_check(start));
 8000de6:	e9dd 0106 	ldrd	r0, r1, [sp, #24]
            count += times;
 8000dea:	4443      	add	r3, r8
 8000dec:	9305      	str	r3, [sp, #20]
        } while (bench_stats_check(start));
 8000dee:	f7ff f99d 	bl	800012c <bench_stats_check>
 8000df2:	4604      	mov	r4, r0
 8000df4:	2800      	cmp	r0, #0
 8000df6:	d1ee      	bne.n	8000dd6 <bench_sha+0x2e>
exit_sha:
 8000df8:	e031      	b.n	8000e5e <bench_sha+0xb6>
                printf("InitSha failed, ret = %d\n", ret);
 8000dfa:	4836      	ldr	r0, [pc, #216]	; (8000ed4 <bench_sha+0x12c>)
 8000dfc:	f012 faee 	bl	80133dc <iprintf>
        wc_ShaFree(&hash[i]);
 8000e00:	a809      	add	r0, sp, #36	; 0x24
 8000e02:	f007 f9b9 	bl	8008178 <wc_ShaFree>
    WC_FREE_ARRAY(digest, BENCH_MAX_PENDING, HEAP_HINT);
 8000e06:	b115      	cbz	r5, 8000e0e <bench_sha+0x66>
 8000e08:	4628      	mov	r0, r5
 8000e0a:	f012 f9d1 	bl	80131b0 <free>
}
 8000e0e:	b023      	add	sp, #140	; 0x8c
 8000e10:	e8bd 83f0 	ldmia.w	sp!, {r4, r5, r6, r7, r8, r9, pc}
            ret = wc_InitSha_ex(&hash[i], HEAP_HINT,
 8000e14:	4621      	mov	r1, r4
 8000e16:	f06f 0201 	mvn.w	r2, #1
 8000e1a:	a809      	add	r0, sp, #36	; 0x24
 8000e1c:	f007 f8ac 	bl	8007f78 <wc_InitSha_ex>
            if (ret != 0) {
 8000e20:	4601      	mov	r1, r0
 8000e22:	2800      	cmp	r0, #0
 8000e24:	d1e9      	bne.n	8000dfa <bench_sha+0x52>
        bench_stats_start(&count, &start);
 8000e26:	a906      	add	r1, sp, #24
 8000e28:	a805      	add	r0, sp, #20
 8000e2a:	f7ff f975 	bl	8000118 <bench_stats_start>
            for (times = 0; times < numBlocks || pending > 0; ) {
 8000e2e:	4f26      	ldr	r7, [pc, #152]	; (8000ec8 <bench_sha+0x120>)
                        ret = wc_ShaUpdate(&hash[i], bench_plain,
 8000e30:	f8df 8098 	ldr.w	r8, [pc, #152]	; 8000ecc <bench_sha+0x124>
 8000e34:	f8df 9098 	ldr.w	r9, [pc, #152]	; 8000ed0 <bench_sha+0x128>
            for (times = 0; times < numBlocks || pending > 0; ) {
 8000e38:	2600      	movs	r6, #0
 8000e3a:	683b      	ldr	r3, [r7, #0]
 8000e3c:	42b3      	cmp	r3, r6
 8000e3e:	dc36      	bgt.n	8000eae <bench_sha+0x106>
            count += times;
 8000e40:	9b05      	ldr	r3, [sp, #20]
                        ret = wc_ShaFinal(&hash[i], digest[i]);
 8000e42:	4629      	mov	r1, r5
            count += times;
 8000e44:	4433      	add	r3, r6
                        ret = wc_ShaFinal(&hash[i], digest[i]);
 8000e46:	a809      	add	r0, sp, #36	; 0x24
            count += times;
 8000e48:	9305      	str	r3, [sp, #20]
                        ret = wc_ShaFinal(&hash[i], digest[i]);
 8000e4a:	f007 f91d 	bl	8008088 <wc_ShaFinal>
        if (*ret >= 0) {
 8000e4e:	1e04      	subs	r4, r0, #0
 8000e50:	db05      	blt.n	8000e5e <bench_sha+0xb6>
        } while (bench_stats_check(start));
 8000e52:	e9dd 0106 	ldrd	r0, r1, [sp, #24]
 8000e56:	f7ff f969 	bl	800012c <bench_stats_check>
 8000e5a:	2800      	cmp	r0, #0
 8000e5c:	d1ea      	bne.n	8000e34 <bench_sha+0x8c>
    bench_stats_sym_finish("SHA", useDeviceID, count, bench_size, start, ret);
 8000e5e:	e9dd 2306 	ldrd	r2, r3, [sp, #24]
 8000e62:	e9cd 2300 	strd	r2, r3, [sp]
 8000e66:	4b19      	ldr	r3, [pc, #100]	; (8000ecc <bench_sha+0x124>)
 8000e68:	9402      	str	r4, [sp, #8]
 8000e6a:	681a      	ldr	r2, [r3, #0]
 8000e6c:	9905      	ldr	r1, [sp, #20]
 8000e6e:	481a      	ldr	r0, [pc, #104]	; (8000ed8 <bench_sha+0x130>)
 8000e70:	f7ff fa32 	bl	80002d8 <bench_stats_sym_finish.constprop.0>
 8000e74:	e7c4      	b.n	8000e00 <bench_sha+0x58>
                ret = wc_InitSha_ex(hash, HEAP_HINT,
 8000e76:	f06f 0201 	mvn.w	r2, #1
 8000e7a:	2100      	movs	r1, #0
 8000e7c:	a809      	add	r0, sp, #36	; 0x24
 8000e7e:	f007 f87b 	bl	8007f78 <wc_InitSha_ex>
                if (ret == 0)
 8000e82:	4604      	mov	r4, r0
 8000e84:	2800      	cmp	r0, #0
 8000e86:	d1ea      	bne.n	8000e5e <bench_sha+0xb6>
                    ret = wc_ShaUpdate(hash, bench_plain, bench_size);
 8000e88:	683a      	ldr	r2, [r7, #0]
 8000e8a:	f8d9 1000 	ldr.w	r1, [r9]
 8000e8e:	a809      	add	r0, sp, #36	; 0x24
 8000e90:	f007 f892 	bl	8007fb8 <wc_ShaUpdate>
                if (ret == 0)
 8000e94:	4604      	mov	r4, r0
 8000e96:	2800      	cmp	r0, #0
 8000e98:	d1e1      	bne.n	8000e5e <bench_sha+0xb6>
                    ret = wc_ShaFinal(hash, digest[0]);
 8000e9a:	4629      	mov	r1, r5
 8000e9c:	a809      	add	r0, sp, #36	; 0x24
 8000e9e:	f007 f8f3 	bl	8008088 <wc_ShaFinal>
                if (ret != 0)
 8000ea2:	4604      	mov	r4, r0
 8000ea4:	2800      	cmp	r0, #0
 8000ea6:	d1da      	bne.n	8000e5e <bench_sha+0xb6>
            for (times = 0; times < numBlocks; times++) {
 8000ea8:	f108 0801 	add.w	r8, r8, #1
 8000eac:	e797      	b.n	8000dde <bench_sha+0x36>
                        ret = wc_ShaUpdate(&hash[i], bench_plain,
 8000eae:	f8d8 2000 	ldr.w	r2, [r8]
 8000eb2:	f8d9 1000 	ldr.w	r1, [r9]
 8000eb6:	a809      	add	r0, sp, #36	; 0x24
 8000eb8:	f007 f87e 	bl	8007fb8 <wc_ShaUpdate>
        if (*ret >= 0) {
 8000ebc:	1e04      	subs	r4, r0, #0
 8000ebe:	dbce      	blt.n	8000e5e <bench_sha+0xb6>
            (*times)++;
 8000ec0:	3601      	adds	r6, #1
                for (i = 0; i < BENCH_MAX_PENDING; i++) {
 8000ec2:	e7ba      	b.n	8000e3a <bench_sha+0x92>
 8000ec4:	200000d4 	.word	0x200000d4
 8000ec8:	200000d8 	.word	0x200000d8
 8000ecc:	200000d0 	.word	0x200000d0
 8000ed0:	2000017c 	.word	0x2000017c
 8000ed4:	080147cd 	.word	0x080147cd
 8000ed8:	080147e7 	.word	0x080147e7

08000edc <bench_sha256>:
{
 8000edc:	e92d 43f0 	stmdb	sp!, {r4, r5, r6, r7, r8, r9, lr}
 8000ee0:	b0a5      	sub	sp, #148	; 0x94
    int    ret = 0, i, count = 0, times, pending = 0;
 8000ee2:	2400      	movs	r4, #0
    WC_INIT_ARRAY(digest, byte, BENCH_MAX_PENDING,
 8000ee4:	2020      	movs	r0, #32
    int    ret = 0, i, count = 0, times, pending = 0;
 8000ee6:	9405      	str	r4, [sp, #20]
    WC_INIT_ARRAY(digest, byte, BENCH_MAX_PENDING,
 8000ee8:	f012 f95a 	bl	80131a0 <malloc>
    XMEMSET(hash, 0, sizeof(hash));
 8000eec:	2270      	movs	r2, #112	; 0x70
    WC_INIT_ARRAY(digest, byte, BENCH_MAX_PENDING,
 8000eee:	4605      	mov	r5, r0
    XMEMSET(hash, 0, sizeof(hash));
 8000ef0:	4621      	mov	r1, r4
 8000ef2:	a808      	add	r0, sp, #32
 8000ef4:	f012 f98c 	bl	8013210 <memset>
    if (digest_stream) {
 8000ef8:	4b3f      	ldr	r3, [pc, #252]	; (8000ff8 <bench_sha256+0x11c>)
 8000efa:	681b      	ldr	r3, [r3, #0]
 8000efc:	bb23      	cbnz	r3, 8000f48 <bench_sha256+0x6c>
        bench_stats_start(&count, &start);
 8000efe:	a906      	add	r1, sp, #24
 8000f00:	a805      	add	r0, sp, #20
 8000f02:	f7ff f909 	bl	8000118 <bench_stats_start>
            for (times = 0; times < numBlocks; times++) {
 8000f06:	4e3d      	ldr	r6, [pc, #244]	; (8000ffc <bench_sha256+0x120>)
                    ret = wc_Sha256Update(hash, bench_plain, bench_size);
 8000f08:	4f3d      	ldr	r7, [pc, #244]	; (8001000 <bench_sha256+0x124>)
 8000f0a:	f8df 90f8 	ldr.w	r9, [pc, #248]	; 8001004 <bench_sha256+0x128>
            for (times = 0; times < numBlocks; times++) {
 8000f0e:	f04f 0800 	mov.w	r8, #0
 8000f12:	6833      	ldr	r3, [r6, #0]
 8000f14:	4543      	cmp	r3, r8
 8000f16:	dc48      	bgt.n	8000faa <bench_sha256+0xce>
            count += times;
 8000f18:	9b05      	ldr	r3, [sp, #20]
        } while (bench_stats_check(start));
 8000f1a:	e9dd 0106 	ldrd	r0, r1, [sp, #24]
            count += times;
 8000f1e:	4443      	add	r3, r8
 8000f20:	9305      	str	r3, [sp, #20]
        } while (bench_stats_check(start));
 8000f22:	f7ff f903 	bl	800012c <bench_stats_check>
 8000f26:	4604      	mov	r4, r0
 8000f28:	2800      	cmp	r0, #0
 8000f2a:	d1ee      	bne.n	8000f0a <bench_sha256+0x2e>
exit_sha256:
 8000f2c:	e031      	b.n	8000f92 <bench_sha256+0xb6>
                printf("InitSha256_ex failed, ret = %d\n", ret);
 8000f2e:	4836      	ldr	r0, [pc, #216]	; (8001008 <bench_sha256+0x12c>)
 8000f30:	f012 fa54 	bl	80133dc <iprintf>
        wc_Sha256Free(&hash[i]);
 8000f34:	a808      	add	r0, sp, #32
 8000f36:	f007 fbe3 	bl	8008700 <wc_Sha256Free>
    WC_FREE_ARRAY(digest, BENCH_MAX_PENDING, HEAP_HINT);
 8000f3a:	b115      	cbz	r5, 8000f42 <bench_sha256+0x66>
 8000f3c:	4628      	mov	r0, r5
 8000f3e:	f012 f937 	bl	80131b0 <free>
}
 8000f42:	b025      	add	sp, #148	; 0x94
 8000f44:	e8bd 83f0 	ldmia.w	sp!, {r4, r5, r6, r7, r8, r9, pc}
            ret = wc_InitSha256_ex(&hash[i], HEAP_HINT,
 8000f48:	4621      	mov	r1, r4
 8000f4a:	f06f 0201 	mvn.w	r2, #1
 8000f4e:	a808      	add	r0, sp, #32
 8000f50:	f007 fac0 	bl	80084d4 <wc_InitSha256_ex>
            if (ret != 0) {
 8000f54:	4601      	mov	r1, r0
 8000f56:	2800      	cmp	r0, #0
 8000f58:	d1e9      	bne.n	8000f2e <bench_sha256+0x52>
        bench_stats_start(&count, &start);
 8000f5a:	a906      	add	r1, sp, #24
 8000f5c:	a805      	add	r0, sp, #20
 8000f5e:	f7ff f8db 	bl	8000118 <bench_stats_start>
            for (times = 0; times < numBlocks || pending > 0; ) {
 8000f62:	4f26      	ldr	r7, [pc, #152]	; (8000ffc <bench_sha256+0x120>)
                        ret = wc_Sha256Update(&hash[i], bench_plain,
 8000f64:	f8df 8098 	ldr.w	r8, [pc, #152]	; 8001000 <bench_sha256+0x124>
 8000f68:	f8df 9098 	ldr.w	r9, [pc, #152]	; 8001004 <bench_sha256+0x128>
            for (times = 0; times < numBlocks || pending > 0; ) {
 8000f6c:	2600      	movs	r6, #0
 8000f6e:	683b      	ldr	r3, [r7, #0]
 8000f70:	42b3      	cmp	r3, r6
 8000f72:	dc36      	bgt.n	8000fe2 <bench_sha256+0x106>
            count += times;
 8000f74:	9b05      	ldr	r3, [sp, #20]
                        ret = wc_Sha256Final(&hash[i], digest[i]);
 8000f76:	4629      	mov	r1, r5
            count += times;
 8000f78:	4433      	add	r3, r6
                        ret = wc_Sha256Final(&hash[i], digest[i]);
 8000f7a:	a808      	add	r0, sp, #32
            count += times;
 8000f7c:	9305      	str	r3, [sp, #20]
                        ret = wc_Sha256Final(&hash[i], digest[i]);
 8000f7e:	f007 fb35 	bl	80085ec <wc_Sha256Final>
        if (*ret >= 0) {
 8000f82:	1e04      	subs	r4, r0, #0
 8000f84:	db05      	blt.n	8000f92 <bench_sha256+0xb6>
        } while (bench_stats_check(start));
 8000f86:	e9dd 0106 	ldrd	r0, r1, [sp, #24]
 8000f8a:	f7ff f8cf 	bl	800012c <bench_stats_check>
 8000f8e:	2800      	cmp	r0, #0
 8000f90:	d1ea      	bne.n	8000f68 <bench_sha256+0x8c>
    bench_stats_sym_finish("SHA-256", useDeviceID, count, bench_size,
 8000f92:	e9dd 2306 	ldrd	r2, r3, [sp, #24]
 8000f96:	e9cd 2300 	strd	r2, r3, [sp]
 8000f9a:	4b19      	ldr	r3, [pc, #100]	; (8001000 <bench_sha256+0x124>)
 8000f9c:	9402      	str	r4, [sp, #8]
 8000f9e:	681a      	ldr	r2, [r3, #0]
 8000fa0:	9905      	ldr	r1, [sp, #20]
 8000fa2:	481a      	ldr	r0, [pc, #104]	; (800100c <bench_sha256+0x130>)
 8000fa4:	f7ff f998 	bl	80002d8 <bench_stats_sym_finish.constprop.0>
 8000fa8:	e7c4      	b.n	8000f34 <bench_sha256+0x58>
                ret = wc_InitSha256_ex(hash, HEAP_HINT,
 8000faa:	f06f 0201 	mvn.w	r2, #1
 8000fae:	2100      	movs	r1, #0
 8000fb0:	a808      	add	r0, sp, #32
 8000fb2:	f007 fa8f 	bl	80084d4 <wc_InitSha256_ex>
                if (ret == 0)
 8000fb6:	4604      	mov	r4, r0
 8000fb8:	2800      	cmp	r0, #0
 8000fba:	d1ea      	bne.n	8000f92 <bench_sha256+0xb6>
                    ret = wc_Sha256Update(hash, bench_plain, bench_size);
 8000fbc:	683a      	ldr	r2, [r7, #0]
 8000fbe:	f8d9 1000 	ldr.w	r1, [r9]
 8000fc2:	a808      	add	r0, sp, #32
 8000fc4:	f007 faba 	bl	800853c <wc_Sha256Update>
                if (ret == 0)
 8000fc8:	4604      	mov	r4, r0
 8000fca:	2800      	cmp	r0, #0
 8000fcc:	d1e1      	bne.n	8000f92 <bench_sha256+0xb6>
                    ret = wc_Sha256Final(hash, digest[0]);
 8000fce:	4629      	mov	r1, r5
 8000fd0:	a808      	add	r0, sp, #32
 8000fd2:	f007 fb0b 	bl	80085ec <wc_Sha256Final>
                if (ret != 0)
 8000fd6:	4604      	mov	r4, r0
 8000fd8:	2800      	cmp	r0, #0
 8000fda:	d1da      	bne.n	8000f92 <bench_sha256+0xb6>
            for (times = 0; times < numBlocks; times++) {
 8000fdc:	f108 0801 	add.w	r8, r8, #1
 8000fe0:	e797      	b.n	8000f12 <bench_sha256+0x36>
                        ret = wc_Sha256Update(&hash[i], bench_plain,
 8000fe2:	f8d8 2000 	ldr.w	r2, [r8]
 8000fe6:	f8d9 1000 	ldr.w	r1, [r9]
 8000fea:	a808      	add	r0, sp, #32
 8000fec:	f007 faa6 	bl	800853c <wc_Sha256Update>
        if (*ret >= 0) {
 8000ff0:	1e04      	subs	r4, r0, #0
 8000ff2:	dbce      	blt.n	8000f92 <bench_sha256+0xb6>
            (*times)++;
 8000ff4:	3601      	adds	r6, #1
                for (i = 0; i < BENCH_MAX_PENDING; i++) {
 8000ff6:	e7ba      	b.n	8000f6e <bench_sha256+0x92>
 8000ff8:	200000d4 	.word	0x200000d4
 8000ffc:	200000d8 	.word	0x200000d8
 8001000:	200000d0 	.word	0x200000d0
 8001004:	2000017c 	.word	0x2000017c
 8001008:	080147eb 	.word	0x080147eb
 800100c:	0801480b 	.word	0x0801480b

08001010 <bench_sha512>:
{
 8001010:	e92d 43f0 	stmdb	sp!, {r4, r5, r6, r7, r8, r9, lr}
 8001014:	b0c1      	sub	sp, #260	; 0x104
    int    ret = 0, i, count = 0, times, pending = 0;
 8001016:	2400      	movs	r4, #0
    WC_INIT_ARRAY(digest, byte, BENCH_MAX_PENDING,
 8001018:	2040      	movs	r0, #64	; 0x40
    int    ret = 0, i, count = 0, times, pending = 0;
 800101a:	9405      	str	r4, [sp, #20]
    WC_INIT_ARRAY(digest, byte, BENCH_MAX_PENDING,
 800101c:	f012 f8c0 	bl	80131a0 <malloc>
    XMEMSET(hash, 0, sizeof(hash));
 8001020:	22e0      	movs	r2, #224	; 0xe0
    WC_INIT_ARRAY(digest, byte, BENCH_MAX_PENDING,
 8001022:	4605      	mov	r5, r0
    XMEMSET(hash, 0, sizeof(hash));
 8001024:	4621      	mov	r1, r4
 8001026:	a808      	add	r0, sp, #32
 8001028:	f012 f8f2 	bl	8013210 <memset>
    if (digest_stream) {
 800102c:	4b3f      	ldr	r3, [pc, #252]	; (800112c <bench_sha512+0x11c>)
 800102e:	681b      	ldr	r3, [r3, #0]
 8001030:	bb23      	cbnz	r3, 800107c <bench_sha512+0x6c>
        bench_stats_start(&count, &start);
 8001032:	a906      	add	r1, sp, #24
 8001034:	a805      	add	r0, sp, #20
 8001036:	f7ff f86f 	bl	8000118 <bench_stats_start>
            for (times = 0; times < numBlocks; times++) {
 800103a:	4e3d      	ldr	r6, [pc, #244]	; (8001130 <bench_sha512+0x120>)
                    ret = wc_Sha512Update(hash, bench_plain, bench_size);
 800103c:	4f3d      	ldr	r7, [pc, #244]	; (8001134 <bench_sha512+0x124>)
 800103e:	f8df 90f8 	ldr.w	r9, [pc, #248]	; 8001138 <bench_sha512+0x128>
            for (times = 0; times < numBlocks; times++) {
 8001042:	f04f 0800 	mov.w	r8, #0
 8001046:	6833      	ldr	r3, [r6, #0]
 8001048:	4543      	cmp	r3, r8
 800104a:	dc48      	bgt.n	80010de <bench_sha512+0xce>
            count += times;
 800104c:	9b05      	ldr	r3, [sp, #20]
        } while (bench_stats_check(start));
 800104e:	e9dd 0106 	ldrd	r0, r1, [sp, #24]
            count += times;
 8001052:	4443      	add	r3, r8
 8001054:	9305      	str	r3, [sp, #20]
        } while (bench_stats_check(start));
 8001056:	f7ff f869 	bl	800012c <bench_stats_check>
 800105a:	4604      	mov	r4, r0
 800105c:	2800      	cmp	r0, #0
 800105e:	d1ee      	bne.n	800103e <bench_sha512+0x2e>
exit_sha512:
 8001060:	e031      	b.n	80010c6 <bench_sha512+0xb6>
                printf("InitSha512_ex failed, ret = %d\n", ret);
 8001062:	4836      	ldr	r0, [pc, #216]	; (800113c <bench_sha512+0x12c>)
 8001064:	f012 f9ba 	bl	80133dc <iprintf>
        wc_Sha512Free(&hash[i]);
 8001068:	a808      	add	r0, sp, #32
 800106a:	f009 fd6f 	bl	800ab4c <wc_Sha512Free>
    WC_FREE_ARRAY(digest, BENCH_MAX_PENDING, HEAP_HINT);
 800106e:	b115      	cbz	r5, 8001076 <bench_sha512+0x66>
 8001070:	4628      	mov	r0, r5
 8001072:	f012 f89d 	bl	80131b0 <free>
}
 8001076:	b041      	add	sp, #260	; 0x104
 8001078:	e8bd 83f0 	ldmia.w	sp!, {r4, r5, r6, r7, r8, r9, pc}
            ret = wc_InitSha512_ex(&hash[i], HEAP_HINT,
 800107c:	4621      	mov	r1, r4
 800107e:	f06f 0201 	mvn.w	r2, #1
 8001082:	a808      	add	r0, sp, #32
 8001084:	f009 fce0 	bl	800aa48 <wc_InitSha512_ex>
            if (ret != 0) {
 8001088:	4601      	mov	r1, r0
 800108a:	2800      	cmp	r0, #0
 800108c:	d1e9      	bne.n	8001062 <bench_sha512+0x52>
        bench_stats_start(&count, &start);
 800108e:	a906      	add	r1, sp, #24
 8001090:	a805      	add	r0, sp, #20
 8001092:	f7ff f841 	bl	8000118 <bench_stats_start>
            for (times = 0; times < numBlocks || pending > 0; ) {
 8001096:	4f26      	ldr	r7, [pc, #152]	; (8001130 <bench_sha512+0x120>)
                        ret = wc_Sha512Update(&hash[i], bench_plain,
 8001098:	f8df 8098 	ldr.w	r8, [pc, #152]	; 8001134 <bench_sha512+0x124>
 800109c:	f8df 9098 	ldr.w	r9, [pc, #152]	; 8001138 <bench_sha512+0x128>
            for (times = 0; times < numBlocks || pending > 0; ) {
 80010a0:	2600      	movs	r6, #0
 80010a2:	683b      	ldr	r3, [r7, #0]
 80010a4:	42b3      	cmp	r3, r6
 80010a6:	dc36      	bgt.n	8001116 <bench_sha512+0x106>
            count += times;
 80010a8:	9b05      	ldr	r3, [sp, #20]
                        ret = wc_Sha512Final(&hash[i], digest[i]);
 80010aa:	4629      	mov	r1, r5
            count += times;
 80010ac:	4433      	add	r3, r6
                        ret = wc_Sha512Final(&hash[i], digest[i]);
 80010ae:	a808      	add	r0, sp, #32
            count += times;
 80010b0:	9305      	str	r3, [sp, #20]
                        ret = wc_Sha512Final(&hash[i], digest[i]);
 80010b2:	f009 fcb7 	bl	800aa24 <wc_Sha512Final>
        if (*ret >= 0) {
 80010b6:	1e04      	subs	r4, r0, #0
 80010b8:	db05      	blt.n	80010c6 <bench_sha512+0xb6>
        } while (bench_stats_check(start));
 80010ba:	e9dd 0106 	ldrd	r0, r1, [sp, #24]
 80010be:	f7ff f835 	bl	800012c <bench_stats_check>
 80010c2:	2800      	cmp	r0, #0
 80010c4:	d1ea      	bne.n	800109c <bench_sha512+0x8c>
    bench_stats_sym_finish("SHA-512", useDeviceID, count, bench_size,
 80010c6:	e9dd 2306 	ldrd	r2, r3, [sp, #24]
 80010ca:	e9cd 2300 	strd	r2, r3, [sp]
 80010ce:	4b19      	ldr	r3, [pc, #100]	; (8001134 <bench_sha512+0x124>)
 80010d0:	9402      	str	r4, [sp, #8]
 80010d2:	681a      	ldr	r2, [r3, #0]
 80010d4:	9905      	ldr	r1, [sp, #20]
 80010d6:	481a      	ldr	r0, [pc, #104]	; (8001140 <bench_sha512+0x130>)
 80010d8:	f7ff f8fe 	bl	80002d8 <bench_stats_sym_finish.constprop.0>
 80010dc:	e7c4      	b.n	8001068 <bench_sha512+0x58>
                ret = wc_InitSha512_ex(hash, HEAP_HINT,
 80010de:	f06f 0201 	mvn.w	r2, #1
 80010e2:	2100      	movs	r1, #0
 80010e4:	a808      	add	r0, sp, #32
 80010e6:	f009 fcaf 	bl	800aa48 <wc_InitSha512_ex>
                if (ret == 0)
 80010ea:	4604      	mov	r4, r0
 80010ec:	2800      	cmp	r0, #0
 80010ee:	d1ea      	bne.n	80010c6 <bench_sha512+0xb6>
                    ret = wc_Sha512Update(hash, bench_plain, bench_size);
 80010f0:	683a      	ldr	r2, [r7, #0]
 80010f2:	f8d9 1000 	ldr.w	r1, [r9]
 80010f6:	a808      	add	r0, sp, #32
 80010f8:	f009 fcbe 	bl	800aa78 <wc_Sha512Update>
                if (ret == 0)
 80010fc:	4604      	mov	r4, r0
 80010fe:	2800      	cmp	r0, #0
 8001100:	d1e1      	bne.n	80010c6 <bench_sha512+0xb6>
                    ret = wc_Sha512Final(hash, digest[0]);
 8001102:	4629      	mov	r1, r5
 8001104:	a808      	add	r0, sp, #32
 8001106:	f009 fc8d 	bl	800aa24 <wc_Sha512Final>
                if (ret != 0)
 800110a:	4604      	mov	r4, r0
 800110c:	2800      	cmp	r0, #0
 800110e:	d1da      	bne.n	80010c6 <bench_sha512+0xb6>
            for (times = 0; times < numBlocks; times++) {
 8001110:	f108 0801 	add.w	r8, r8, #1
 8001114:	e797      	b.n	8001046 <bench_sha512+0x36>
                        ret = wc_Sha512Update(&hash[i], bench_plain,
 8001116:	f8d8 2000 	ldr.w	r2, [r8]
 800111a:	f8d9 1000 	ldr.w	r1, [r9]
 800111e:	a808      	add	r0, sp, #32
 8001120:	f009 fcaa 	bl	800aa78 <wc_Sha512Update>
        if (*ret >= 0) {
 8001124:	1e04      	subs	r4, r0, #0
 8001126:	dbce      	blt.n	80010c6 <bench_sha512+0xb6>
            (*times)++;
 8001128:	3601      	adds	r6, #1
                for (i = 0; i < BENCH_MAX_PENDING; i++) {
 800112a:	e7ba      	b.n	80010a2 <bench_sha512+0x92>
 800112c:	200000d4 	.word	0x200000d4
 8001130:	200000d8 	.word	0x200000d8
 8001134:	200000d0 	.word	0x200000d0
 8001138:	2000017c 	.word	0x2000017c
 800113c:	08014813 	.word	0x08014813
 8001140:	08014833 	.word	0x08014833

08001144 <bench_sha512_224>:
{
 8001144:	e92d 43f0 	stmdb	sp!, {r4, r5, r6, r7, r8, r9, lr}
 8001148:	b0c1      	sub	sp, #260	; 0x104
    int    ret = 0, i, count = 0, times, pending = 0;
 800114a:	2400      	movs	r4, #0
    WC_INIT_ARRAY(digest, byte, BENCH_MAX_PENDING,
 800114c:	201c      	movs	r0, #28
    int    ret = 0, i, count = 0, times, pending = 0;
 800114e:	9405      	str	r4, [sp, #20]
    WC_INIT_ARRAY(digest, byte, BENCH_MAX_PENDING,
 8001150:	f012 f826 	bl	80131a0 <malloc>
    XMEMSET(hash, 0, sizeof(hash));
 8001154:	22e0      	movs	r2, #224	; 0xe0
    WC_INIT_ARRAY(digest, byte, BENCH_MAX_PENDING,
 8001156:	4605      	mov	r5, r0
    XMEMSET(hash, 0, sizeof(hash));
 8001158:	4621      	mov	r1, r4
 800115a:	a808      	add	r0, sp, #32
 800115c:	f012 f858 	bl	8013210 <memset>
    if (digest_stream) {
 8001160:	4b3f      	ldr	r3, [pc, #252]	; (8001260 <bench_sha512_224+0x11c>)
 8001162:	681b      	ldr	r3, [r3, #0]
 8001164:	bb23      	cbnz	r3, 80011b0 <bench_sha512_224+0x6c>
        bench_stats_start(&count, &start);
 8001166:	a906      	add	r1, sp, #24
 8001168:	a805      	add	r0, sp, #20
 800116a:	f7fe ffd5 	bl	8000118 <bench_stats_start>
            for (times = 0; times < numBlocks; times++) {
 800116e:	4e3d      	ldr	r6, [pc, #244]	; (8001264 <bench_sha512_224+0x120>)
                    ret = wc_Sha512_224Update(hash, bench_plain, bench_size);
 8001170:	4f3d      	ldr	r7, [pc, #244]	; (8001268 <bench_sha512_224+0x124>)
 8001172:	f8df 90f8 	ldr.w	r9, [pc, #248]	; 800126c <bench_sha512_224+0x128>
            for (times = 0; times < numBlocks; times++) {
 8001176:	f04f 0800 	mov.w	r8, #0
 800117a:	6833      	ldr	r3, [r6, #0]
 800117c:	4543      	cmp	r3, r8
 800117e:	dc48      	bgt.n	8001212 <bench_sha512_224+0xce>
            count += times;
 8001180:	9b05      	ldr	r3, [sp, #20]
        } while (bench_stats_check(start));
 8001182:	e9dd 0106 	ldrd	r0, r1, [sp, #24]
            count += times;
 8001186:	4443      	add	r3, r8
 8001188:	9305      	str	r3, [sp, #20]
        } while (bench_stats_check(start));
 800118a:	f7fe ffcf 	bl	800012c <bench_stats_check>
 800118e:	4604      	mov	r4, r0
 8001190:	2800      	cmp	r0, #0
 8001192:	d1ee      	bne.n	8001172 <bench_sha512_224+0x2e>
exit_sha512_224:
 8001194:	e031      	b.n	80011fa <bench_sha512_224+0xb6>
                printf("InitSha512_224_ex failed, ret = %d\n", ret);
 8001196:	4836      	ldr	r0, [pc, #216]	; (8001270 <bench_sha512_224+0x12c>)
 8001198:	f012 f920 	bl	80133dc <iprintf>
        wc_Sha512_224Free(&hash[i]);
 800119c:	a808      	add	r0, sp, #32
 800119e:	f009 fce1 	bl	800ab64 <wc_Sha512_224Free>
    WC_FREE_ARRAY(digest, BENCH_MAX_PENDING, HEAP_HINT);
 80011a2:	b115      	cbz	r5, 80011aa <bench_sha512_224+0x66>
 80011a4:	4628      	mov	r0, r5
 80011a6:	f012 f803 	bl	80131b0 <free>
}
 80011aa:	b041      	add	sp, #260	; 0x104
 80011ac:	e8bd 83f0 	ldmia.w	sp!, {r4, r5, r6, r7, r8, r9, pc}
            ret = wc_InitSha512_224_ex(&hash[i], HEAP_HINT,
 80011b0:	4621      	mov	r1, r4
 80011b2:	f06f 0201 	mvn.w	r2, #1
 80011b6:	a808      	add	r0, sp, #32
 80011b8:	f009 fc4e 	bl	800aa58 <wc_InitSha512_224_ex>
            if (ret != 0) {
 80011bc:	4601      	mov	r1, r0
 80011be:	2800      	cmp	r0, #0
 80011c0:	d1e9      	bne.n	8001196 <bench_sha512_224+0x52>
        bench_stats_start(&count, &start);
 80011c2:	a906      	add	r1, sp, #24
 80011c4:	a805      	add	r0, sp, #20
 80011c6:	f7fe ffa7 	bl	8000118 <bench_stats_start>
            for (times = 0; times < numBlocks || pending > 0; ) {
 80011ca:	4f26      	ldr	r7, [pc, #152]	; (8001264 <bench_sha512_224+0x120>)
                        ret = wc_Sha512_224Update(&hash[i], bench_plain,
 80011cc:	f8df 8098 	ldr.w	r8, [pc, #152]	; 8001268 <bench_sha512_224+0x124>
 80011d0:	f8df 9098 	ldr.w	r9, [pc, #152]	; 800126c <bench_sha512_224+0x128>
            for (times = 0; times < numBlocks || pending > 0; ) {
 80011d4:	2600      	movs	r6, #0
 80011d6:	683b      	ldr	r3, [r7, #0]
 80011d8:	42b3      	cmp	r3, r6
 80011da:	dc36      	bgt.n	800124a <bench_sha512_224+0x106>
            count += times;
 80011dc:	9b05      	ldr	r3, [sp, #20]
                        ret = wc_Sha512_224Final(&hash[i], digest[i]);
 80011de:	4629      	mov	r1, r5
            count += times;
 80011e0:	4433      	add	r3, r6
                        ret = wc_Sha512_224Final(&hash[i], digest[i]);
 80011e2:	a808      	add	r0, sp, #32
            count += times;
 80011e4:	9305      	str	r3, [sp, #20]
                        ret = wc_Sha512_224Final(&hash[i], digest[i]);
 80011e6:	f009 fc23 	bl	800aa30 <wc_Sha512_224Final>
        if (*ret >= 0) {
 80011ea:	1e04      	subs	r4, r0, #0
 80011ec:	db05      	blt.n	80011fa <bench_sha512_224+0xb6>
        } while (bench_stats_check(start));
 80011ee:	e9dd 0106 	ldrd	r0, r1, [sp, #24]
 80011f2:	f7fe ff9b 	bl	800012c <bench_stats_check>
 80011f6:	2800      	cmp	r0, #0
 80011f8:	d1ea      	bne.n	80011d0 <bench_sha512_224+0x8c>
    bench_stats_sym_finish("SHA-512/224", useDeviceID, count, bench_size,
 80011fa:	e9dd 2306 	ldrd	r2, r3, [sp, #24]
 80011fe:	e9cd 2300 	strd	r2, r3, [sp]
 8001202:	4b19      	ldr	r3, [pc, #100]	; (8001268 <bench_sha512_224+0x124>)
 8001204:	9402      	str	r4, [sp, #8]
 8001206:	681a      	ldr	r2, [r3, #0]
 8001208:	9905      	ldr	r1, [sp, #20]
 800120a:	481a      	ldr	r0, [pc, #104]	; (8001274 <bench_sha512_224+0x130>)
 800120c:	f7ff f864 	bl	80002d8 <bench_stats_sym_finish.constprop.0>
 8001210:	e7c4      	b.n	800119c <bench_sha512_224+0x58>
                ret = wc_InitSha512_224_ex(hash, HEAP_HINT,
 8001212:	f06f 0201 	mvn.w	r2, #1
 8001216:	2100      	movs	r1, #0
 8001218:	a808      	add	r0, sp, #32
 800121a:	f009 fc1d 	bl	800aa58 <wc_InitSha512_224_ex>
                if (ret == 0)
 800121e:	4604      	mov	r4, r0
 8001220:	2800      	cmp	r0, #0
 8001222:	d1ea      	bne.n	80011fa <bench_sha512_224+0xb6>
                    ret = wc_Sha512_224Update(hash, bench_plain, bench_size);
 8001224:	683a      	ldr	r2, [r7, #0]
 8001226:	f8d9 1000 	ldr.w	r1, [r9]
 800122a:	a808      	add	r0, sp, #32
 800122c:	f009 fc98 	bl	800ab60 <wc_Sha512_224Update>
                if (ret == 0)
 8001230:	4604      	mov	r4, r0
 8001232:	2800      	cmp	r0, #0
 8001234:	d1e1      	bne.n	80011fa <bench_sha512_224+0xb6>
                    ret = wc_Sha512_224Final(hash, digest[0]);
 8001236:	4629      	mov	r1, r5
 8001238:	a808      	add	r0, sp, #32
 800123a:	f009 fbf9 	bl	800aa30 <wc_Sha512_224Final>
                if (ret != 0)
 800123e:	4604      	mov	r4, r0
 8001240:	2800      	cmp	r0, #0
 8001242:	d1da      	bne.n	80011fa <bench_sha512_224+0xb6>
            for (times = 0; times < numBlocks; times++) {
 8001244:	f108 0801 	add.w	r8, r8, #1
 8001248:	e797      	b.n	800117a <bench_sha512_224+0x36>
                        ret = wc_Sha512_224Update(&hash[i], bench_plain,
 800124a:	f8d8 2000 	ldr.w	r2, [r8]
 800124e:	f8d9 1000 	ldr.w	r1, [r9]
 8001252:	a808      	add	r0, sp, #32
 8001254:	f009 fc84 	bl	800ab60 <wc_Sha512_224Update>
        if (*ret >= 0) {
 8001258:	1e04      	subs	r4, r0, #0
 800125a:	dbce      	blt.n	80011fa <bench_sha512_224+0xb6>
            (*times)++;
 800125c:	3601      	adds	r6, #1
                for (i = 0; i < BENCH_MAX_PENDING; i++) {
 800125e:	e7ba      	b.n	80011d6 <bench_sha512_224+0x92>
 8001260:	200000d4 	.word	0x200000d4
 8001264:	200000d8 	.word	0x200000d8
 8001268:	200000d0 	.word	0x200000d0
 800126c:	2000017c 	.word	0x2000017c
 8001270:	0801483b 	.word	0x0801483b
 8001274:	0801485f 	.word	0x0801485f

08001278 <bench_sha512_256>:
{
 8001278:	e92d 43f0 	stmdb	sp!, {r4, r5, r6, r7, r8, r9, lr}
 800127c:	b0c1      	sub	sp, #260	; 0x104
    int    ret = 0, i, count = 0, times, pending = 0;
 800127e:	2400      	movs	r4, #0
    WC_INIT_ARRAY(digest, byte, BENCH_MAX_PENDING,
 8001280:	2020      	movs	r0, #32
    int    ret = 0, i, count = 0, times, pending = 0;
 8001282:	9405      	str	r4, [sp, #20]
    WC_INIT_ARRAY(digest, byte, BENCH_MAX_PENDING,
 8001284:	f011 ff8c 	bl	80131a0 <malloc>
    XMEMSET(hash, 0, sizeof(hash));
 8001288:	22e0      	movs	r2, #224	; 0xe0
    WC_INIT_ARRAY(digest, byte, BENCH_MAX_PENDING,
 800128a:	4605      	mov	r5, r0
    XMEMSET(hash, 0, sizeof(hash));
 800128c:	4621      	mov	r1, r4
 800128e:	a808      	add	r0, sp, #32
 8001290:	f011 ffbe 	bl	8013210 <memset>
    if (digest_stream) {
 8001294:	4b3f      	ldr	r3, [pc, #252]	; (8001394 <bench_sha512_256+0x11c>)
 8001296:	681b      	ldr	r3, [r3, #0]
 8001298:	bb23      	cbnz	r3, 80012e4 <bench_sha512_256+0x6c>
        bench_stats_start(&count, &start);
 800129a:	a906      	add	r1, sp, #24
 800129c:	a805      	add	r0, sp, #20
 800129e:	f7fe ff3b 	bl	8000118 <bench_stats_start>
            for (times = 0; times < numBlocks; times++) {
 80012a2:	4e3d      	ldr	r6, [pc, #244]	; (8001398 <bench_sha512_256+0x120>)
                    ret = wc_Sha512_256Update(hash, bench_plain, bench_size);
 80012a4:	4f3d      	ldr	r7, [pc, #244]	; (800139c <bench_sha512_256+0x124>)
 80012a6:	f8df 90f8 	ldr.w	r9, [pc, #248]	; 80013a0 <bench_sha512_256+0x128>
            for (times = 0; times < numBlocks; times++) {
 80012aa:	f04f 0800 	mov.w	r8, #0
 80012ae:	6833      	ldr	r3, [r6, #0]
 80012b0:	4543      	cmp	r3, r8
 80012b2:	dc48      	bgt.n	8001346 <bench_sha512_256+0xce>
            count += times;
 80012b4:	9b05      	ldr	r3, [sp, #20]
        } while (bench_stats_check(start));
 80012b6:	e9dd 0106 	ldrd	r0, r1, [sp, #24]
            count += times;
 80012ba:	4443      	add	r3, r8
 80012bc:	9305      	str	r3, [sp, #20]
        } while (bench_stats_check(start));
 80012be:	f7fe ff35 	bl	800012c <bench_stats_check>
 80012c2:	4604      	mov	r4, r0
 80012c4:	2800      	cmp	r0, #0
 80012c6:	d1ee      	bne.n	80012a6 <bench_sha512_256+0x2e>
exit_sha512_256:
 80012c8:	e031      	b.n	800132e <bench_sha512_256+0xb6>
                printf("InitSha512_256_ex failed, ret = %d\n", ret);
 80012ca:	4836      	ldr	r0, [pc, #216]	; (80013a4 <bench_sha512_256+0x12c>)
 80012cc:	f012 f886 	bl	80133dc <iprintf>
        wc_Sha512_256Free(&hash[i]);
 80012d0:	a808      	add	r0, sp, #32
 80012d2:	f009 fc4b 	bl	800ab6c <wc_Sha512_256Free>
    WC_FREE_ARRAY(digest, BENCH_MAX_PENDING, HEAP_HINT);
 80012d6:	b115      	cbz	r5, 80012de <bench_sha512_256+0x66>
 80012d8:	4628      	mov	r0, r5
 80012da:	f011 ff69 	bl	80131b0 <free>
}
 80012de:	b041      	add	sp, #260	; 0x104
 80012e0:	e8bd 83f0 	ldmia.w	sp!, {r4, r5, r6, r7, r8, r9, pc}
            ret = wc_InitSha512_256_ex(&hash[i], HEAP_HINT,
 80012e4:	4621      	mov	r1, r4
 80012e6:	f06f 0201 	mvn.w	r2, #1
 80012ea:	a808      	add	r0, sp, #32
 80012ec:	f009 fbbc 	bl	800aa68 <wc_InitSha512_256_ex>
            if (ret != 0) {
 80012f0:	4601      	mov	r1, r0
 80012f2:	2800      	cmp	r0, #0
 80012f4:	d1e9      	bne.n	80012ca <bench_sha512_256+0x52>
        bench_stats_start(&count, &start);
 80012f6:	a906      	add	r1, sp, #24
 80012f8:	a805      	add	r0, sp, #20
 80012fa:	f7fe ff0d 	bl	8000118 <bench_stats_start>
            for (times = 0; times < numBlocks || pending > 0; ) {
 80012fe:	4f26      	ldr	r7, [pc, #152]	; (8001398 <bench_sha512_256+0x120>)
                        ret = wc_Sha512_256Update(&hash[i], bench_plain,
 8001300:	f8df 8098 	ldr.w	r8, [pc, #152]	; 800139c <bench_sha512_256+0x124>
 8001304:	f8df 9098 	ldr.w	r9, [pc, #152]	; 80013a0 <bench_sha512_256+0x128>
            for (times = 0; times < numBlocks || pending > 0; ) {
 8001308:	2600      	movs	r6, #0
 800130a:	683b      	ldr	r3, [r7, #0]
 800130c:	42b3      	cmp	r3, r6
 800130e:	dc36      	bgt.n	800137e <bench_sha512_256+0x106>
            count += times;
 8001310:	9b05      	ldr	r3, [sp, #20]
                        ret = wc_Sha512_256Final(&hash[i], digest[i]);
 8001312:	4629      	mov	r1, r5
            count += times;
 8001314:	4433      	add	r3, r6
                        ret = wc_Sha512_256Final(&hash[i], digest[i]);
 8001316:	a808      	add	r0, sp, #32
            count += times;
 8001318:	9305      	str	r3, [sp, #20]
                        ret = wc_Sha512_256Final(&hash[i], digest[i]);
 800131a:	f009 fb8f 	bl	800aa3c <wc_Sha512_256Final>
        if (*ret >= 0) {
 800131e:	1e04      	subs	r4, r0, #0
 8001320:	db05      	blt.n	800132e <bench_sha512_256+0xb6>
        } while (bench_stats_check(start));
 8001322:	e9dd 0106 	ldrd	r0, r1, [sp, #24]
 8001326:	f7fe ff01 	bl	800012c <bench_stats_check>
 800132a:	2800      	cmp	r0, #0
 800132c:	d1ea      	bne.n	8001304 <bench_sha512_256+0x8c>
    bench_stats_sym_finish("SHA-512/256", useDeviceID, count, bench_size,
 800132e:	e9dd 2306 	ldrd	r2, r3, [sp, #24]
 8001332:	e9cd 2300 	strd	r2, r3, [sp]
 8001336:	4b19      	ldr	r3, [pc, #100]	; (800139c <bench_sha512_256+0x124>)
 8001338:	9402      	str	r4, [sp, #8]
 800133a:	681a      	ldr	r2, [r3, #0]
 800133c:	9905      	ldr	r1, [sp, #20]
 800133e:	481a      	ldr	r0, [pc, #104]	; (80013a8 <bench_sha512_256+0x130>)
 8001340:	f7fe ffca 	bl	80002d8 <bench_stats_sym_finish.constprop.0>
 8001344:	e7c4      	b.n	80012d0 <bench_sha512_256+0x58>
                ret = wc_InitSha512_256_ex(hash, HEAP_HINT,
 8001346:	f06f 0201 	mvn.w	r2, #1
 800134a:	2100      	movs	r1, #0
 800134c:	a808      	add	r0, sp, #32
 800134e:	f009 fb8b 	bl	800aa68 <wc_InitSha512_256_ex>
                if (ret == 0)
 8001352:	4604      	mov	r4, r0
 8001354:	2800      	cmp	r0, #0
 8001356:	d1ea      	bne.n	800132e <bench_sha512_256+0xb6>
                    ret = wc_Sha512_256Update(hash, bench_plain, bench_size);
 8001358:	683a      	ldr	r2, [r7, #0]
 800135a:	f8d9 1000 	ldr.w	r1, [r9]
 800135e:	a808      	add	r0, sp, #32
 8001360:	f009 fc02 	bl	800ab68 <wc_Sha512_256Update>
                if (ret == 0)
 8001364:	4604      	mov	r4, r0
 8001366:	2800      	cmp	r0, #0
 8001368:	d1e1      	bne.n	800132e <bench_sha512_256+0xb6>
                    ret = wc_Sha512_256Final(hash, digest[0]);
 800136a:	4629      	mov	r1, r5
 800136c:	a808      	add	r0, sp, #32
 800136e:	f009 fb65 	bl	800aa3c <wc_Sha512_256Final>
                if (ret != 0)
 8001372:	4604      	mov	r4, r0
 8001374:	2800      	cmp	r0, #0
 8001376:	d1da      	bne.n	800132e <bench_sha512_256+0xb6>
            for (times = 0; times < numBlocks; times++) {
 8001378:	f108 0801 	add.w	r8, r8, #1
 800137c:	e797      	b.n	80012ae <bench_sha512_256+0x36>
                        ret = wc_Sha512_256Update(&hash[i], bench_plain,
 800137e:	f8d8 2000 	ldr.w	r2, [r8]
 8001382:	f8d9 1000 	ldr.w	r1, [r9]
 8001386:	a808      	add	r0, sp, #32
 8001388:	f009 fbee 	bl	800ab68 <wc_Sha512_256Update>
        if (*ret >= 0) {
 800138c:	1e04      	subs	r4, r0, #0
 800138e:	dbce      	blt.n	800132e <bench_sha512_256+0xb6>
            (*times)++;
 8001390:	3601      	adds	r6, #1
                for (i = 0; i < BENCH_MAX_PENDING; i++) {
 8001392:	e7ba      	b.n	800130a <bench_sha512_256+0x92>
 8001394:	200000d4 	.word	0x200000d4
 8001398:	200000d8 	.word	0x200000d8
 800139c:	200000d0 	.word	0x200000d0
 80013a0:	2000017c 	.word	0x2000017c
 80013a4:	0801486b 	.word	0x0801486b
 80013a8:	0801488f 	.word	0x0801488f

080013ac <bench_hmac_sha>:
#endif /* NO_MD5 */

#ifndef NO_SHA

void bench_hmac_sha(int useDeviceID)
{
 80013ac:	b507      	push	{r0, r1, r2, lr}
    WOLFSSL_SMALL_STACK_STATIC const byte key[] = {
                   0x0b, 0x0b, 0x0b, 0x0b, 0x0b, 0x0b, 0x0b, 0x0b,
                   0x0b, 0x0b, 0x0b, 0x0b, 0x0b, 0x0b, 0x0b, 0x0b,
                   0x0b, 0x0b, 0x0b, 0x0b };

    bench_hmac(useDeviceID, WC_SHA, WC_SHA_DIGEST_SIZE, key, sizeof(key),
 80013ae:	4b05      	ldr	r3, [pc, #20]	; (80013c4 <bench_hmac_sha+0x18>)
 80013b0:	9300      	str	r3, [sp, #0]
 80013b2:	4a05      	ldr	r2, [pc, #20]	; (80013c8 <bench_hmac_sha+0x1c>)
 80013b4:	2314      	movs	r3, #20
 80013b6:	2104      	movs	r1, #4
 80013b8:	f7ff f8a4 	bl	8000504 <bench_hmac.constprop.0>
               "HMAC-SHA");
}
 80013bc:	b003      	add	sp, #12
 80013be:	f85d fb04 	ldr.w	pc, [sp], #4
 80013c2:	bf00      	nop
 80013c4:	0801489b 	.word	0x0801489b
 80013c8:	08014dea 	.word	0x08014dea

080013cc <bench_hmac_sha256>:
#endif /* WOLFSSL_SHA224 */

#ifndef NO_SHA256

void bench_hmac_sha256(int useDeviceID)
{
 80013cc:	b507      	push	{r0, r1, r2, lr}
                   0x0b, 0x0b, 0x0b, 0x0b, 0x0b, 0x0b, 0x0b, 0x0b,
                   0x0b, 0x0b, 0x0b, 0x0b, 0x0b, 0x0b, 0x0b, 0x0b,
                   0x0b, 0x0b, 0x0b, 0x0b, 0x0b, 0x0b, 0x0b, 0x0b,
                   0x0b, 0x0b, 0x0b, 0x0b, 0x0b, 0x0b, 0x0b, 0x0b };

    bench_hmac(useDeviceID, WC_SHA256, WC_SHA256_DIGEST_SIZE, key, sizeof(key),
 80013ce:	4b05      	ldr	r3, [pc, #20]	; (80013e4 <bench_hmac_sha256+0x18>)
 80013d0:	9300      	str	r3, [sp, #0]
 80013d2:	4a05      	ldr	r2, [pc, #20]	; (80013e8 <bench_hmac_sha256+0x1c>)
 80013d4:	2320      	movs	r3, #32
 80013d6:	2106      	movs	r1, #6
 80013d8:	f7ff f894 	bl	8000504 <bench_hmac.constprop.0>
               "HMAC-SHA256");
}
 80013dc:	b003      	add	sp, #12
 80013de:	f85d fb04 	ldr.w	pc, [sp], #4
 80013e2:	bf00      	nop
 80013e4:	080148a4 	.word	0x080148a4
 80013e8:	08014dca 	.word	0x08014dca

080013ec <bench_hmac_sha512>:
#endif /* WOLFSSL_SHA384 */

#ifdef WOLFSSL_SHA512

void bench_hmac_sha512(int useDeviceID)
{
 80013ec:	b507      	push	{r0, r1, r2, lr}
                   0x0b, 0x0b, 0x0b, 0x0b, 0x0b, 0x0b, 0x0b, 0x0b,
                   0x0b, 0x0b, 0x0b, 0x0b, 0x0b, 0x0b, 0x0b, 0x0b,
                   0x0b, 0x0b, 0x0b, 0x0b, 0x0b, 0x0b, 0x0b, 0x0b,
                   0x0b, 0x0b, 0x0b, 0x0b, 0x0b, 0x0b, 0x0b, 0x0b };

    bench_hmac(useDeviceID, WC_SHA512, WC_SHA512_DIGEST_SIZE, key, sizeof(key),
 80013ee:	4b05      	ldr	r3, [pc, #20]	; (8001404 <bench_hmac_sha512+0x18>)
 80013f0:	9300      	str	r3, [sp, #0]
 80013f2:	4a05      	ldr	r2, [pc, #20]	; (8001408 <bench_hmac_sha512+0x1c>)
 80013f4:	2340      	movs	r3, #64	; 0x40
 80013f6:	2108      	movs	r1, #8
 80013f8:	f7ff f884 	bl	8000504 <bench_hmac.constprop.0>
               "HMAC-SHA512");
}
 80013fc:	b003      	add	sp, #12
 80013fe:	f85d fb04 	ldr.w	pc, [sp], #4
 8001402:	bf00      	nop
 8001404:	080148b0 	.word	0x080148b0
 8001408:	08014d8a 	.word	0x08014d8a

0800140c <bench_eccMakeKey>:
    #endif
}


void bench_eccMakeKey(int useDeviceID, int curveId)
{
 800140c:	e92d 43f0 	stmdb	sp!, {r4, r5, r6, r7, r8, r9, lr}
    char name[BENCH_ECC_NAME_SZ];
    double start;
    const char**desc = bench_desc_words[lng_index];

#ifdef WOLFSSL_SMALL_STACK
    genKey = (ecc_key *)XMALLOC(sizeof(*genKey) * BENCH_MAX_PENDING,
 8001410:	f44f 70de 	mov.w	r0, #444	; 0x1bc
{
 8001414:	b08f      	sub	sp, #60	; 0x3c
 8001416:	460e      	mov	r6, r1
    genKey = (ecc_key *)XMALLOC(sizeof(*genKey) * BENCH_MAX_PENDING,
 8001418:	f011 fec2 	bl	80131a0 <malloc>
                                HEAP_HINT, DYNAMIC_TYPE_TMP_BUFFER);
    if (genKey == NULL) {
 800141c:	4604      	mov	r4, r0
 800141e:	b928      	cbnz	r0, 800142c <bench_eccMakeKey+0x20>
        printf("bench_eccMakeKey malloc failed\n");
 8001420:	482c      	ldr	r0, [pc, #176]	; (80014d4 <bench_eccMakeKey+0xc8>)
    }

#ifdef WOLFSSL_SMALL_STACK
    XFREE(genKey, HEAP_HINT, DYNAMIC_TYPE_TMP_BUFFER);
#endif
}
 8001422:	b00f      	add	sp, #60	; 0x3c
 8001424:	e8bd 43f0 	ldmia.w	sp!, {r4, r5, r6, r7, r8, r9, lr}
        printf("bench_eccMakeKey malloc failed\n");
 8001428:	f011 bfd8 	b.w	80133dc <iprintf>
    keySize = wc_ecc_get_curve_size_from_id(curveId);
 800142c:	4630      	mov	r0, r6
 800142e:	f004 f92b 	bl	8005688 <wc_ecc_get_curve_size_from_id>
    XMEMSET(genKey, 0, sizeof(*genKey) * BENCH_MAX_PENDING);
 8001432:	f44f 72de 	mov.w	r2, #444	; 0x1bc
 8001436:	2100      	movs	r1, #0
    keySize = wc_ecc_get_curve_size_from_id(curveId);
 8001438:	4607      	mov	r7, r0
    XMEMSET(genKey, 0, sizeof(*genKey) * BENCH_MAX_PENDING);
 800143a:	4620      	mov	r0, r4
 800143c:	f011 fee8 	bl	8013210 <memset>
    bench_stats_start(&count, &start);
 8001440:	a906      	add	r1, sp, #24
 8001442:	a805      	add	r0, sp, #20
 8001444:	f7fe fe68 	bl	8000118 <bench_stats_start>
                    ret = wc_ecc_make_key_ex(&gRng, keySize, &genKey[i],
 8001448:	f8df 808c 	ldr.w	r8, [pc, #140]	; 80014d8 <bench_eccMakeKey+0xcc>
        for (times = 0; times < agreeTimes || pending > 0; ) {
 800144c:	f04f 0900 	mov.w	r9, #0
                    wc_ecc_free(&genKey[i]);
 8001450:	4620      	mov	r0, r4
 8001452:	f004 f9e7 	bl	8005824 <wc_ecc_free>
                    ret = wc_ecc_init_ex(&genKey[i], HEAP_HINT, deviceID);
 8001456:	f06f 0201 	mvn.w	r2, #1
 800145a:	2100      	movs	r1, #0
 800145c:	4620      	mov	r0, r4
 800145e:	f004 f9c0 	bl	80057e2 <wc_ecc_init_ex>
                    if (ret < 0) {
 8001462:	1e05      	subs	r5, r0, #0
 8001464:	da1d      	bge.n	80014a2 <bench_eccMakeKey+0x96>
    (void)XSNPRINTF(name, BENCH_ECC_NAME_SZ, "ECC   [%15s]",
 8001466:	4630      	mov	r0, r6
 8001468:	f004 f8fe 	bl	8005668 <wc_ecc_get_name>
 800146c:	4a1b      	ldr	r2, [pc, #108]	; (80014dc <bench_eccMakeKey+0xd0>)
 800146e:	4603      	mov	r3, r0
 8001470:	2118      	movs	r1, #24
 8001472:	a808      	add	r0, sp, #32
 8001474:	f011 ffda 	bl	801342c <sniprintf>
    bench_stats_asym_finish_ex(algo, strength, desc, "", useDeviceID, count,
 8001478:	e9dd 2306 	ldrd	r2, r3, [sp, #24]
 800147c:	e9cd 2300 	strd	r2, r3, [sp]
 8001480:	4a17      	ldr	r2, [pc, #92]	; (80014e0 <bench_eccMakeKey+0xd4>)
 8001482:	9502      	str	r5, [sp, #8]
 8001484:	9b05      	ldr	r3, [sp, #20]
 8001486:	6892      	ldr	r2, [r2, #8]
 8001488:	00f9      	lsls	r1, r7, #3
 800148a:	a808      	add	r0, sp, #32
 800148c:	f7fe fe62 	bl	8000154 <bench_stats_asym_finish_ex.constprop.0>
        wc_ecc_free(&genKey[i]);
 8001490:	4620      	mov	r0, r4
 8001492:	f004 f9c7 	bl	8005824 <wc_ecc_free>
    XFREE(genKey, HEAP_HINT, DYNAMIC_TYPE_TMP_BUFFER);
 8001496:	4620      	mov	r0, r4
 8001498:	f011 fe8a 	bl	80131b0 <free>
}
 800149c:	b00f      	add	sp, #60	; 0x3c
 800149e:	e8bd 83f0 	ldmia.w	sp!, {r4, r5, r6, r7, r8, r9, pc}
                    ret = wc_ecc_make_key_ex(&gRng, keySize, &genKey[i],
 80014a2:	4633      	mov	r3, r6
 80014a4:	4622      	mov	r2, r4
 80014a6:	4639      	mov	r1, r7
 80014a8:	4640      	mov	r0, r8
 80014aa:	f004 fece 	bl	800624a <wc_ecc_make_key_ex>
        if (*ret >= 0) {
 80014ae:	1e05      	subs	r5, r0, #0
 80014b0:	dbd9      	blt.n	8001466 <bench_eccMakeKey+0x5a>
        for (times = 0; times < agreeTimes || pending > 0; ) {
 80014b2:	f1b9 0f00 	cmp.w	r9, #0
 80014b6:	d102      	bne.n	80014be <bench_eccMakeKey+0xb2>
 80014b8:	f04f 0901 	mov.w	r9, #1
 80014bc:	e7c8      	b.n	8001450 <bench_eccMakeKey+0x44>
        count += times;
 80014be:	9a05      	ldr	r2, [sp, #20]
    } while (bench_stats_check(start));
 80014c0:	e9dd 0106 	ldrd	r0, r1, [sp, #24]
        count += times;
 80014c4:	3202      	adds	r2, #2
 80014c6:	9205      	str	r2, [sp, #20]
    } while (bench_stats_check(start));
 80014c8:	f7fe fe30 	bl	800012c <bench_stats_check>
 80014cc:	2800      	cmp	r0, #0
 80014ce:	d1bd      	bne.n	800144c <bench_eccMakeKey+0x40>
exit:
 80014d0:	e7c9      	b.n	8001466 <bench_eccMakeKey+0x5a>
 80014d2:	bf00      	nop
 80014d4:	080148bc 	.word	0x080148bc
 80014d8:	20000188 	.word	0x20000188
 80014dc:	080148dc 	.word	0x080148dc
 80014e0:	20000010 	.word	0x20000010

080014e4 <bench_ecc>:


void bench_ecc(int useDeviceID, int curveId)
{
 80014e4:	e92d 4ff0 	stmdb	sp!, {r4, r5, r6, r7, r8, r9, sl, fp, lr}
        int    verify[BENCH_MAX_PENDING];
    #endif
#endif

    word32 x[BENCH_MAX_PENDING];
    double start = 0;
 80014e8:	2200      	movs	r2, #0
{
 80014ea:	b093      	sub	sp, #76	; 0x4c
    double start = 0;
 80014ec:	2300      	movs	r3, #0
    WC_DECLARE_ARRAY(digest, byte,
                     BENCH_MAX_PENDING, MAX_ECC_BYTES, HEAP_HINT);
#endif

#ifdef WOLFSSL_SMALL_STACK
    genKey = (ecc_key *)XMALLOC(sizeof(*genKey) * BENCH_MAX_PENDING,
 80014ee:	f44f 70de 	mov.w	r0, #444	; 0x1bc
    double start = 0;
 80014f2:	e9cd 230a 	strd	r2, r3, [sp, #40]	; 0x28
{
 80014f6:	4689      	mov	r9, r1
    genKey = (ecc_key *)XMALLOC(sizeof(*genKey) * BENCH_MAX_PENDING,
 80014f8:	f011 fe52 	bl	80131a0 <malloc>
                                HEAP_HINT, DYNAMIC_TYPE_TMP_BUFFER);
    if (genKey == NULL) {
 80014fc:	4604      	mov	r4, r0
 80014fe:	b928      	cbnz	r0, 800150c <bench_ecc+0x28>
#ifdef HAVE_ECC_DHE
    genKey2 = (ecc_key *)XMALLOC(sizeof(*genKey2) * BENCH_MAX_PENDING,
                                 HEAP_HINT, DYNAMIC_TYPE_TMP_BUFFER);
    if (genKey2 == NULL) {
        XFREE(genKey, HEAP_HINT, DYNAMIC_TYPE_TMP_BUFFER);
        printf("bench_eccMakeKey malloc failed\n");
 8001500:	4899      	ldr	r0, [pc, #612]	; (8001768 <bench_ecc+0x284>)
 8001502:	f011 ff6b 	bl	80133dc <iprintf>
    (void)count;
    (void)times;
    (void)desc;
    (void)start;
    (void)name;
}
 8001506:	b013      	add	sp, #76	; 0x4c
 8001508:	e8bd 8ff0 	ldmia.w	sp!, {r4, r5, r6, r7, r8, r9, sl, fp, pc}
    genKey2 = (ecc_key *)XMALLOC(sizeof(*genKey2) * BENCH_MAX_PENDING,
 800150c:	f44f 70de 	mov.w	r0, #444	; 0x1bc
 8001510:	f011 fe46 	bl	80131a0 <malloc>
    if (genKey2 == NULL) {
 8001514:	4606      	mov	r6, r0
 8001516:	b918      	cbnz	r0, 8001520 <bench_ecc+0x3c>
        XFREE(genKey, HEAP_HINT, DYNAMIC_TYPE_TMP_BUFFER);
 8001518:	4620      	mov	r0, r4
 800151a:	f011 fe49 	bl	80131b0 <free>
 800151e:	e7ef      	b.n	8001500 <bench_ecc+0x1c>
    WC_INIT_ARRAY(shared, byte,
 8001520:	2020      	movs	r0, #32
 8001522:	f011 fe3d 	bl	80131a0 <malloc>
 8001526:	9004      	str	r0, [sp, #16]
    WC_INIT_ARRAY(sig, byte, BENCH_MAX_PENDING, ECC_MAX_SIG_SIZE, HEAP_HINT);
 8001528:	2049      	movs	r0, #73	; 0x49
 800152a:	f011 fe39 	bl	80131a0 <malloc>
 800152e:	4682      	mov	sl, r0
    WC_INIT_ARRAY(digest, byte, BENCH_MAX_PENDING, MAX_ECC_BYTES, HEAP_HINT);
 8001530:	2020      	movs	r0, #32
 8001532:	f011 fe35 	bl	80131a0 <malloc>
    XMEMSET(genKey, 0, sizeof(*genKey) * BENCH_MAX_PENDING);
 8001536:	f44f 72de 	mov.w	r2, #444	; 0x1bc
 800153a:	2100      	movs	r1, #0
    WC_INIT_ARRAY(digest, byte, BENCH_MAX_PENDING, MAX_ECC_BYTES, HEAP_HINT);
 800153c:	4680      	mov	r8, r0
    XMEMSET(genKey, 0, sizeof(*genKey) * BENCH_MAX_PENDING);
 800153e:	4620      	mov	r0, r4
 8001540:	f011 fe66 	bl	8013210 <memset>
    XMEMSET(genKey2, 0, sizeof(*genKey2) * BENCH_MAX_PENDING);
 8001544:	f44f 72de 	mov.w	r2, #444	; 0x1bc
 8001548:	2100      	movs	r1, #0
 800154a:	4630      	mov	r0, r6
 800154c:	f011 fe60 	bl	8013210 <memset>
    keySize = wc_ecc_get_curve_size_from_id(curveId);
 8001550:	4648      	mov	r0, r9
 8001552:	f004 f899 	bl	8005688 <wc_ecc_get_curve_size_from_id>
        if ((ret = wc_ecc_init_ex(&genKey[i], HEAP_HINT, deviceID)) < 0) {
 8001556:	f06f 0201 	mvn.w	r2, #1
    keySize = wc_ecc_get_curve_size_from_id(curveId);
 800155a:	4605      	mov	r5, r0
        if ((ret = wc_ecc_init_ex(&genKey[i], HEAP_HINT, deviceID)) < 0) {
 800155c:	2100      	movs	r1, #0
 800155e:	4620      	mov	r0, r4
 8001560:	f004 f93f 	bl	80057e2 <wc_ecc_init_ex>
 8001564:	2800      	cmp	r0, #0
 8001566:	db4d      	blt.n	8001604 <bench_ecc+0x120>
        ret = wc_ecc_make_key_ex(&gRng, keySize, &genKey[i], curveId);
 8001568:	4880      	ldr	r0, [pc, #512]	; (800176c <bench_ecc+0x288>)
 800156a:	f8df b200 	ldr.w	fp, [pc, #512]	; 800176c <bench_ecc+0x288>
 800156e:	464b      	mov	r3, r9
 8001570:	4622      	mov	r2, r4
 8001572:	4629      	mov	r1, r5
 8001574:	f004 fe69 	bl	800624a <wc_ecc_make_key_ex>
        if (ret < 0) {
 8001578:	2800      	cmp	r0, #0
 800157a:	db43      	blt.n	8001604 <bench_ecc+0x120>
        if ((ret = wc_ecc_init_ex(&genKey2[i], HEAP_HINT, deviceID)) < 0) {
 800157c:	f06f 0201 	mvn.w	r2, #1
 8001580:	2100      	movs	r1, #0
 8001582:	4630      	mov	r0, r6
 8001584:	f004 f92d 	bl	80057e2 <wc_ecc_init_ex>
 8001588:	2800      	cmp	r0, #0
 800158a:	db3b      	blt.n	8001604 <bench_ecc+0x120>
        if ((ret = wc_ecc_make_key_ex(&gRng, keySize, &genKey2[i],
 800158c:	464b      	mov	r3, r9
 800158e:	4632      	mov	r2, r6
 8001590:	4629      	mov	r1, r5
 8001592:	4658      	mov	r0, fp
 8001594:	f004 fe59 	bl	800624a <wc_ecc_make_key_ex>
 8001598:	2800      	cmp	r0, #0
 800159a:	dc33      	bgt.n	8001604 <bench_ecc+0x120>
        (void)wc_ecc_set_rng(&genKey[i], &gRng);
 800159c:	4659      	mov	r1, fp
 800159e:	4620      	mov	r0, r4
 80015a0:	f005 fc2b 	bl	8006dfa <wc_ecc_set_rng>
    bench_stats_start(&count, &start);
 80015a4:	a90a      	add	r1, sp, #40	; 0x28
 80015a6:	a807      	add	r0, sp, #28
 80015a8:	f7fe fdb6 	bl	8000118 <bench_stats_start>
                    ret = wc_ecc_shared_secret(&genKey[i], &genKey2[i],
 80015ac:	9a04      	ldr	r2, [sp, #16]
                    x[i] = (word32)keySize;
 80015ae:	9509      	str	r5, [sp, #36]	; 0x24
                    ret = wc_ecc_shared_secret(&genKey[i], &genKey2[i],
 80015b0:	ab09      	add	r3, sp, #36	; 0x24
 80015b2:	4631      	mov	r1, r6
 80015b4:	4620      	mov	r0, r4
 80015b6:	f004 fd30 	bl	800601a <wc_ecc_shared_secret>
        if (*ret >= 0) {
 80015ba:	1e07      	subs	r7, r0, #0
 80015bc:	db08      	blt.n	80015d0 <bench_ecc+0xec>
                    ret = wc_ecc_shared_secret(&genKey[i], &genKey2[i],
 80015be:	9a04      	ldr	r2, [sp, #16]
                    x[i] = (word32)keySize;
 80015c0:	9509      	str	r5, [sp, #36]	; 0x24
                    ret = wc_ecc_shared_secret(&genKey[i], &genKey2[i],
 80015c2:	ab09      	add	r3, sp, #36	; 0x24
 80015c4:	4631      	mov	r1, r6
 80015c6:	4620      	mov	r0, r4
 80015c8:	f004 fd27 	bl	800601a <wc_ecc_shared_secret>
        if (*ret >= 0) {
 80015cc:	1e07      	subs	r7, r0, #0
 80015ce:	da38      	bge.n	8001642 <bench_ecc+0x15e>
    (void)XSNPRINTF(name, BENCH_ECC_NAME_SZ, "ECDHE [%15s]",
 80015d0:	4648      	mov	r0, r9
 80015d2:	f004 f849 	bl	8005668 <wc_ecc_get_name>
 80015d6:	4a66      	ldr	r2, [pc, #408]	; (8001770 <bench_ecc+0x28c>)
 80015d8:	4603      	mov	r3, r0
 80015da:	2118      	movs	r1, #24
 80015dc:	a80c      	add	r0, sp, #48	; 0x30
 80015de:	f011 ff25 	bl	801342c <sniprintf>
    bench_stats_asym_finish(name, keySize * 8, desc[3],
 80015e2:	00eb      	lsls	r3, r5, #3
 80015e4:	9305      	str	r3, [sp, #20]
    bench_stats_asym_finish_ex(algo, strength, desc, "", useDeviceID, count,
 80015e6:	e9dd 230a 	ldrd	r2, r3, [sp, #40]	; 0x28
 80015ea:	e9cd 2300 	strd	r2, r3, [sp]
 80015ee:	4a61      	ldr	r2, [pc, #388]	; (8001774 <bench_ecc+0x290>)
 80015f0:	9702      	str	r7, [sp, #8]
 80015f2:	9b07      	ldr	r3, [sp, #28]
 80015f4:	68d2      	ldr	r2, [r2, #12]
 80015f6:	00e9      	lsls	r1, r5, #3
 80015f8:	a80c      	add	r0, sp, #48	; 0x30
 80015fa:	f7fe fdab 	bl	8000154 <bench_stats_asym_finish_ex.constprop.0>
    if (ret < 0) {
 80015fe:	2f00      	cmp	r7, #0
 8001600:	f280 8094 	bge.w	800172c <bench_ecc+0x248>
        wc_ecc_free(&genKey[i]);
 8001604:	4620      	mov	r0, r4
 8001606:	f004 f90d 	bl	8005824 <wc_ecc_free>
        wc_ecc_free(&genKey2[i]);
 800160a:	4630      	mov	r0, r6
 800160c:	f004 f90a 	bl	8005824 <wc_ecc_free>
    XFREE(genKey, HEAP_HINT, DYNAMIC_TYPE_TMP_BUFFER);
 8001610:	4620      	mov	r0, r4
 8001612:	f011 fdcd 	bl	80131b0 <free>
    XFREE(genKey2, HEAP_HINT, DYNAMIC_TYPE_TMP_BUFFER);
 8001616:	4630      	mov	r0, r6
 8001618:	f011 fdca 	bl	80131b0 <free>
    WC_FREE_ARRAY(shared, BENCH_MAX_PENDING, HEAP_HINT);
 800161c:	9b04      	ldr	r3, [sp, #16]
 800161e:	b113      	cbz	r3, 8001626 <bench_ecc+0x142>
 8001620:	9804      	ldr	r0, [sp, #16]
 8001622:	f011 fdc5 	bl	80131b0 <free>
    WC_FREE_ARRAY(sig, BENCH_MAX_PENDING, HEAP_HINT);
 8001626:	f1ba 0f00 	cmp.w	sl, #0
 800162a:	d002      	beq.n	8001632 <bench_ecc+0x14e>
 800162c:	4650      	mov	r0, sl
 800162e:	f011 fdbf 	bl	80131b0 <free>
    WC_FREE_ARRAY(digest, BENCH_MAX_PENDING, HEAP_HINT);
 8001632:	f1b8 0f00 	cmp.w	r8, #0
 8001636:	f43f af66 	beq.w	8001506 <bench_ecc+0x22>
 800163a:	4640      	mov	r0, r8
 800163c:	f011 fdb8 	bl	80131b0 <free>
    (void)name;
 8001640:	e761      	b.n	8001506 <bench_ecc+0x22>
        count += times;
 8001642:	9b07      	ldr	r3, [sp, #28]
    } while (bench_stats_check(start));
 8001644:	e9dd 010a 	ldrd	r0, r1, [sp, #40]	; 0x28
        count += times;
 8001648:	3302      	adds	r3, #2
 800164a:	9307      	str	r3, [sp, #28]
    } while (bench_stats_check(start));
 800164c:	f7fe fd6e 	bl	800012c <bench_stats_check>
 8001650:	2800      	cmp	r0, #0
 8001652:	d1ab      	bne.n	80015ac <bench_ecc+0xc8>
 8001654:	e7bc      	b.n	80015d0 <bench_ecc+0xec>
            digest[i][count] = (byte)count;
 8001656:	f808 3003 	strb.w	r3, [r8, r3]
 800165a:	2201      	movs	r2, #1
 800165c:	3301      	adds	r3, #1
        for (count = 0; count < keySize; count++) {
 800165e:	42ab      	cmp	r3, r5
 8001660:	dbf9      	blt.n	8001656 <bench_ecc+0x172>
 8001662:	ea25 73e5 	bic.w	r3, r5, r5, asr #31
 8001666:	b102      	cbz	r2, 800166a <bench_ecc+0x186>
 8001668:	9307      	str	r3, [sp, #28]
    bench_stats_start(&count, &start);
 800166a:	a90a      	add	r1, sp, #40	; 0x28
 800166c:	a807      	add	r0, sp, #28
 800166e:	f7fe fd53 	bl	8000118 <bench_stats_start>
                    if (genKey[i].state == 0) {
 8001672:	68a3      	ldr	r3, [r4, #8]
 8001674:	b90b      	cbnz	r3, 800167a <bench_ecc+0x196>
                        x[i] = ECC_MAX_SIG_SIZE;
 8001676:	2349      	movs	r3, #73	; 0x49
 8001678:	9309      	str	r3, [sp, #36]	; 0x24
                    ret = wc_ecc_sign_hash(digest[i], (word32)keySize, sig[i],
 800167a:	e9cd b400 	strd	fp, r4, [sp]
 800167e:	ab09      	add	r3, sp, #36	; 0x24
 8001680:	4652      	mov	r2, sl
 8001682:	4629      	mov	r1, r5
 8001684:	4640      	mov	r0, r8
 8001686:	f004 ff43 	bl	8006510 <wc_ecc_sign_hash>
        if (*ret >= 0) {
 800168a:	1e07      	subs	r7, r0, #0
 800168c:	db0d      	blt.n	80016aa <bench_ecc+0x1c6>
                    if (genKey[i].state == 0) {
 800168e:	68a3      	ldr	r3, [r4, #8]
 8001690:	b90b      	cbnz	r3, 8001696 <bench_ecc+0x1b2>
                        x[i] = ECC_MAX_SIG_SIZE;
 8001692:	2349      	movs	r3, #73	; 0x49
 8001694:	9309      	str	r3, [sp, #36]	; 0x24
                    ret = wc_ecc_sign_hash(digest[i], (word32)keySize, sig[i],
 8001696:	e9cd b400 	strd	fp, r4, [sp]
 800169a:	ab09      	add	r3, sp, #36	; 0x24
 800169c:	4652      	mov	r2, sl
 800169e:	4629      	mov	r1, r5
 80016a0:	4640      	mov	r0, r8
 80016a2:	f004 ff35 	bl	8006510 <wc_ecc_sign_hash>
        if (*ret >= 0) {
 80016a6:	1e07      	subs	r7, r0, #0
 80016a8:	da44      	bge.n	8001734 <bench_ecc+0x250>
    (void)XSNPRINTF(name, BENCH_ECC_NAME_SZ, "ECDSA [%15s]",
 80016aa:	4648      	mov	r0, r9
 80016ac:	f003 ffdc 	bl	8005668 <wc_ecc_get_name>
 80016b0:	4a31      	ldr	r2, [pc, #196]	; (8001778 <bench_ecc+0x294>)
 80016b2:	4603      	mov	r3, r0
 80016b4:	2118      	movs	r1, #24
 80016b6:	a80c      	add	r0, sp, #48	; 0x30
 80016b8:	f011 feb8 	bl	801342c <sniprintf>
    bench_stats_asym_finish_ex(algo, strength, desc, "", useDeviceID, count,
 80016bc:	e9dd 230a 	ldrd	r2, r3, [sp, #40]	; 0x28
 80016c0:	e9cd 2300 	strd	r2, r3, [sp]
 80016c4:	4a2b      	ldr	r2, [pc, #172]	; (8001774 <bench_ecc+0x290>)
 80016c6:	9702      	str	r7, [sp, #8]
 80016c8:	9b07      	ldr	r3, [sp, #28]
 80016ca:	6912      	ldr	r2, [r2, #16]
 80016cc:	9905      	ldr	r1, [sp, #20]
 80016ce:	a80c      	add	r0, sp, #48	; 0x30
 80016d0:	f7fe fd40 	bl	8000154 <bench_stats_asym_finish_ex.constprop.0>
    if (ret < 0) {
 80016d4:	2f00      	cmp	r7, #0
 80016d6:	db95      	blt.n	8001604 <bench_ecc+0x120>
    bench_stats_start(&count, &start);
 80016d8:	a90a      	add	r1, sp, #40	; 0x28
 80016da:	a807      	add	r0, sp, #28
 80016dc:	f7fe fd1c 	bl	8000118 <bench_stats_start>
        for (times = 0; times < agreeTimes || pending > 0; ) {
 80016e0:	f04f 0b00 	mov.w	fp, #0
                    if (genKey[i].state == 0) {
 80016e4:	68a3      	ldr	r3, [r4, #8]
 80016e6:	b903      	cbnz	r3, 80016ea <bench_ecc+0x206>
                        verify[i] = 0;
 80016e8:	9308      	str	r3, [sp, #32]
                    ret = wc_ecc_verify_hash(sig[i], x[i], digest[i],
 80016ea:	ab08      	add	r3, sp, #32
 80016ec:	9300      	str	r3, [sp, #0]
 80016ee:	9909      	ldr	r1, [sp, #36]	; 0x24
 80016f0:	9401      	str	r4, [sp, #4]
 80016f2:	462b      	mov	r3, r5
 80016f4:	4642      	mov	r2, r8
 80016f6:	4650      	mov	r0, sl
 80016f8:	f005 faf4 	bl	8006ce4 <wc_ecc_verify_hash>
        if (*ret >= 0) {
 80016fc:	1e07      	subs	r7, r0, #0
 80016fe:	da23      	bge.n	8001748 <bench_ecc+0x264>
    (void)XSNPRINTF(name, BENCH_ECC_NAME_SZ, "ECDSA [%15s]",
 8001700:	4648      	mov	r0, r9
 8001702:	f003 ffb1 	bl	8005668 <wc_ecc_get_name>
 8001706:	4a1c      	ldr	r2, [pc, #112]	; (8001778 <bench_ecc+0x294>)
 8001708:	4603      	mov	r3, r0
 800170a:	2118      	movs	r1, #24
 800170c:	a80c      	add	r0, sp, #48	; 0x30
 800170e:	f011 fe8d 	bl	801342c <sniprintf>
    bench_stats_asym_finish_ex(algo, strength, desc, "", useDeviceID, count,
 8001712:	e9dd 230a 	ldrd	r2, r3, [sp, #40]	; 0x28
 8001716:	e9cd 2300 	strd	r2, r3, [sp]
 800171a:	4a16      	ldr	r2, [pc, #88]	; (8001774 <bench_ecc+0x290>)
 800171c:	9702      	str	r7, [sp, #8]
 800171e:	9b07      	ldr	r3, [sp, #28]
 8001720:	6952      	ldr	r2, [r2, #20]
 8001722:	9905      	ldr	r1, [sp, #20]
 8001724:	a80c      	add	r0, sp, #48	; 0x30
 8001726:	f7fe fd15 	bl	8000154 <bench_stats_asym_finish_ex.constprop.0>
}
 800172a:	e76b      	b.n	8001604 <bench_ecc+0x120>
        for (count = 0; count < keySize; count++) {
 800172c:	2300      	movs	r3, #0
 800172e:	9307      	str	r3, [sp, #28]
 8001730:	461a      	mov	r2, r3
 8001732:	e794      	b.n	800165e <bench_ecc+0x17a>
        count += times;
 8001734:	9b07      	ldr	r3, [sp, #28]
    } while (bench_stats_check(start));
 8001736:	e9dd 010a 	ldrd	r0, r1, [sp, #40]	; 0x28
        count += times;
 800173a:	3302      	adds	r3, #2
 800173c:	9307      	str	r3, [sp, #28]
    } while (bench_stats_check(start));
 800173e:	f7fe fcf5 	bl	800012c <bench_stats_check>
 8001742:	2800      	cmp	r0, #0
 8001744:	d195      	bne.n	8001672 <bench_ecc+0x18e>
 8001746:	e7b0      	b.n	80016aa <bench_ecc+0x1c6>
        for (times = 0; times < agreeTimes || pending > 0; ) {
 8001748:	f1bb 0f00 	cmp.w	fp, #0
 800174c:	d102      	bne.n	8001754 <bench_ecc+0x270>
 800174e:	f04f 0b01 	mov.w	fp, #1
 8001752:	e7c7      	b.n	80016e4 <bench_ecc+0x200>
        count += times;
 8001754:	9b07      	ldr	r3, [sp, #28]
    } while (bench_stats_check(start));
 8001756:	e9dd 010a 	ldrd	r0, r1, [sp, #40]	; 0x28
        count += times;
 800175a:	3302      	adds	r3, #2
 800175c:	9307      	str	r3, [sp, #28]
    } while (bench_stats_check(start));
 800175e:	f7fe fce5 	bl	800012c <bench_stats_check>
 8001762:	2800      	cmp	r0, #0
 8001764:	d1bc      	bne.n	80016e0 <bench_ecc+0x1fc>
 8001766:	e7cb      	b.n	8001700 <bench_ecc+0x21c>
 8001768:	080148bc 	.word	0x080148bc
 800176c:	20000188 	.word	0x20000188
 8001770:	080148e9 	.word	0x080148e9
 8001774:	20000010 	.word	0x20000010
 8001778:	080148f6 	.word	0x080148f6

0800177c <bench_ecc_curve>:
{
 800177c:	b570      	push	{r4, r5, r6, lr}
    if (bench_all || (bench_asym_algs & BENCH_ECC_MAKEKEY)) {
 800177e:	4e0d      	ldr	r6, [pc, #52]	; (80017b4 <bench_ecc_curve+0x38>)
 8001780:	4d0d      	ldr	r5, [pc, #52]	; (80017b8 <bench_ecc_curve+0x3c>)
 8001782:	6833      	ldr	r3, [r6, #0]
 8001784:	682a      	ldr	r2, [r5, #0]
 8001786:	f403 5380 	and.w	r3, r3, #4096	; 0x1000
 800178a:	4313      	orrs	r3, r2
{
 800178c:	4604      	mov	r4, r0
    if (bench_all || (bench_asym_algs & BENCH_ECC_MAKEKEY)) {
 800178e:	d103      	bne.n	8001798 <bench_ecc_curve+0x1c>
    if (bench_all || (bench_asym_algs & BENCH_ECC)) {
 8001790:	6833      	ldr	r3, [r6, #0]
 8001792:	049b      	lsls	r3, r3, #18
 8001794:	d407      	bmi.n	80017a6 <bench_ecc_curve+0x2a>
}
 8001796:	bd70      	pop	{r4, r5, r6, pc}
        bench_eccMakeKey(0, curveId);
 8001798:	4601      	mov	r1, r0
 800179a:	2000      	movs	r0, #0
 800179c:	f7ff fe36 	bl	800140c <bench_eccMakeKey>
    if (bench_all || (bench_asym_algs & BENCH_ECC)) {
 80017a0:	682b      	ldr	r3, [r5, #0]
 80017a2:	2b00      	cmp	r3, #0
 80017a4:	d0f4      	beq.n	8001790 <bench_ecc_curve+0x14>
        bench_ecc(0, curveId);
 80017a6:	4621      	mov	r1, r4
 80017a8:	2000      	movs	r0, #0
}
 80017aa:	e8bd 4070 	ldmia.w	sp!, {r4, r5, r6, lr}
        bench_ecc(0, curveId);
 80017ae:	f7ff be99 	b.w	80014e4 <bench_ecc>
 80017b2:	bf00      	nop
 80017b4:	2000015c 	.word	0x2000015c
 80017b8:	2000000c 	.word	0x2000000c

080017bc <bench_curve25519KeyGen>:
#endif /* WOLFSSL_SM2 */
#endif /* HAVE_ECC */

#ifdef HAVE_CURVE25519
void bench_curve25519KeyGen(int useDeviceID)
{
 80017bc:	e92d 41f0 	stmdb	sp!, {r4, r5, r6, r7, r8, lr}
 80017c0:	b09c      	sub	sp, #112	; 0x70
    double start;
    int    ret = 0, i, count;
    const char**desc = bench_desc_words[lng_index];

    /* Key Gen */
    bench_stats_start(&count, &start);
 80017c2:	a906      	add	r1, sp, #24
 80017c4:	a805      	add	r0, sp, #20
 80017c6:	f7fe fca7 	bl	8000118 <bench_stats_start>
            if (ret != 0) {
                printf("wc_curve25519_init_ex failed: %d\n", ret);
                break;
            }

            ret = wc_curve25519_make_key(&gRng, 32, &genKey);
 80017ca:	4e1e      	ldr	r6, [pc, #120]	; (8001844 <bench_curve25519KeyGen+0x88>)
            wc_curve25519_free(&genKey);
            if (ret != 0) {
                printf("wc_curve25519_make_key failed: %d\n", ret);
 80017cc:	4f1e      	ldr	r7, [pc, #120]	; (8001848 <bench_curve25519KeyGen+0x8c>)
                printf("wc_curve25519_init_ex failed: %d\n", ret);
 80017ce:	f8df 807c 	ldr.w	r8, [pc, #124]	; 800184c <bench_curve25519KeyGen+0x90>
            ret = wc_curve25519_init_ex(&genKey, HEAP_HINT,
 80017d2:	f06f 0201 	mvn.w	r2, #1
 80017d6:	2100      	movs	r1, #0
 80017d8:	a809      	add	r0, sp, #36	; 0x24
 80017da:	f009 fc6b 	bl	800b0b4 <wc_curve25519_init_ex>
            if (ret != 0) {
 80017de:	4604      	mov	r4, r0
 80017e0:	b1f0      	cbz	r0, 8001820 <bench_curve25519KeyGen+0x64>
                printf("wc_curve25519_init_ex failed: %d\n", ret);
 80017e2:	4601      	mov	r1, r0
 80017e4:	4640      	mov	r0, r8
 80017e6:	f011 fdf9 	bl	80133dc <iprintf>
                break;
 80017ea:	4625      	mov	r5, r4
 80017ec:	2400      	movs	r4, #0
                break;
            }
        }
        count += i;
 80017ee:	9805      	ldr	r0, [sp, #20]
 80017f0:	4420      	add	r0, r4
 80017f2:	9005      	str	r0, [sp, #20]
    } while (bench_stats_check(start));
 80017f4:	e9dd 0106 	ldrd	r0, r1, [sp, #24]
 80017f8:	f7fe fc98 	bl	800012c <bench_stats_check>
 80017fc:	2800      	cmp	r0, #0
 80017fe:	d1e8      	bne.n	80017d2 <bench_curve25519KeyGen+0x16>
    bench_stats_asym_finish_ex(algo, strength, desc, "", useDeviceID, count,
 8001800:	e9dd 2306 	ldrd	r2, r3, [sp, #24]
 8001804:	e9cd 2300 	strd	r2, r3, [sp]
 8001808:	4a11      	ldr	r2, [pc, #68]	; (8001850 <bench_curve25519KeyGen+0x94>)
 800180a:	9502      	str	r5, [sp, #8]
 800180c:	9b05      	ldr	r3, [sp, #20]
 800180e:	6892      	ldr	r2, [r2, #8]
 8001810:	4810      	ldr	r0, [pc, #64]	; (8001854 <bench_curve25519KeyGen+0x98>)
 8001812:	f246 31af 	movw	r1, #25519	; 0x63af
 8001816:	f7fe fc9d 	bl	8000154 <bench_stats_asym_finish_ex.constprop.0>
    bench_stats_asym_finish("CURVE", 25519, desc[2], useDeviceID, count, start,
        ret);
}
 800181a:	b01c      	add	sp, #112	; 0x70
 800181c:	e8bd 81f0 	ldmia.w	sp!, {r4, r5, r6, r7, r8, pc}
            ret = wc_curve25519_make_key(&gRng, 32, &genKey);
 8001820:	aa09      	add	r2, sp, #36	; 0x24
 8001822:	2120      	movs	r1, #32
 8001824:	4630      	mov	r0, r6
 8001826:	f009 fbd9 	bl	800afdc <wc_curve25519_make_key>
 800182a:	4605      	mov	r5, r0
            wc_curve25519_free(&genKey);
 800182c:	a809      	add	r0, sp, #36	; 0x24
 800182e:	f009 fc53 	bl	800b0d8 <wc_curve25519_free>
            if (ret != 0) {
 8001832:	b125      	cbz	r5, 800183e <bench_curve25519KeyGen+0x82>
                printf("wc_curve25519_make_key failed: %d\n", ret);
 8001834:	4629      	mov	r1, r5
 8001836:	4638      	mov	r0, r7
 8001838:	f011 fdd0 	bl	80133dc <iprintf>
                break;
 800183c:	e7d7      	b.n	80017ee <bench_curve25519KeyGen+0x32>
        for (i = 0; i < genTimes; i++) {
 800183e:	2401      	movs	r4, #1
 8001840:	e7d5      	b.n	80017ee <bench_curve25519KeyGen+0x32>
 8001842:	bf00      	nop
 8001844:	20000188 	.word	0x20000188
 8001848:	08014925 	.word	0x08014925
 800184c:	08014903 	.word	0x08014903
 8001850:	20000010 	.word	0x20000010
 8001854:	08014948 	.word	0x08014948

08001858 <bench_curve25519KeyAgree>:

#ifdef HAVE_CURVE25519_SHARED_SECRET
void bench_curve25519KeyAgree(int useDeviceID)
{
 8001858:	b530      	push	{r4, r5, lr}
    curve25519_key genKey, genKey2;
    double start;
    int    ret, i, count;
    byte   shared[32];
    const char**desc = bench_desc_words[lng_index];
    word32 x = 0;
 800185a:	2400      	movs	r4, #0
{
 800185c:	b0b7      	sub	sp, #220	; 0xdc

    wc_curve25519_init_ex(&genKey,  HEAP_HINT,
 800185e:	f06f 0201 	mvn.w	r2, #1
 8001862:	4621      	mov	r1, r4
 8001864:	a810      	add	r0, sp, #64	; 0x40
    word32 x = 0;
 8001866:	9405      	str	r4, [sp, #20]
    wc_curve25519_init_ex(&genKey,  HEAP_HINT,
 8001868:	f009 fc24 	bl	800b0b4 <wc_curve25519_init_ex>
        useDeviceID ? devId : INVALID_DEVID);
    wc_curve25519_init_ex(&genKey2, HEAP_HINT,
 800186c:	f06f 0201 	mvn.w	r2, #1
 8001870:	4621      	mov	r1, r4
 8001872:	a823      	add	r0, sp, #140	; 0x8c
 8001874:	f009 fc1e 	bl	800b0b4 <wc_curve25519_init_ex>
        useDeviceID ? devId : INVALID_DEVID);

    ret = wc_curve25519_make_key(&gRng, 32, &genKey);
 8001878:	4827      	ldr	r0, [pc, #156]	; (8001918 <bench_curve25519KeyAgree+0xc0>)
 800187a:	aa10      	add	r2, sp, #64	; 0x40
 800187c:	2120      	movs	r1, #32
 800187e:	f009 fbad 	bl	800afdc <wc_curve25519_make_key>
    if (ret != 0) {
 8001882:	b120      	cbz	r0, 800188e <bench_curve25519KeyAgree+0x36>
        printf("curve25519_make_key failed\n");
 8001884:	4825      	ldr	r0, [pc, #148]	; (800191c <bench_curve25519KeyAgree+0xc4>)
 8001886:	f011 fda9 	bl	80133dc <iprintf>
    bench_stats_asym_finish("CURVE", 25519, desc[3], useDeviceID, count, start,
        ret);

    wc_curve25519_free(&genKey2);
    wc_curve25519_free(&genKey);
}
 800188a:	b037      	add	sp, #220	; 0xdc
 800188c:	bd30      	pop	{r4, r5, pc}
    ret = wc_curve25519_make_key(&gRng, 32, &genKey2);
 800188e:	2120      	movs	r1, #32
 8001890:	4821      	ldr	r0, [pc, #132]	; (8001918 <bench_curve25519KeyAgree+0xc0>)
 8001892:	aa23      	add	r2, sp, #140	; 0x8c
 8001894:	f009 fba2 	bl	800afdc <wc_curve25519_make_key>
    if (ret != 0) {
 8001898:	4601      	mov	r1, r0
 800189a:	b130      	cbz	r0, 80018aa <bench_curve25519KeyAgree+0x52>
        printf("curve25519_make_key failed: %d\n", ret);
 800189c:	4820      	ldr	r0, [pc, #128]	; (8001920 <bench_curve25519KeyAgree+0xc8>)
 800189e:	f011 fd9d 	bl	80133dc <iprintf>
    wc_curve25519_free(&genKey);
 80018a2:	a810      	add	r0, sp, #64	; 0x40
 80018a4:	f009 fc18 	bl	800b0d8 <wc_curve25519_free>
 80018a8:	e7ef      	b.n	800188a <bench_curve25519KeyAgree+0x32>
    bench_stats_start(&count, &start);
 80018aa:	a906      	add	r1, sp, #24
 80018ac:	a804      	add	r0, sp, #16
 80018ae:	f7fe fc33 	bl	8000118 <bench_stats_start>
            x = sizeof(shared);
 80018b2:	2520      	movs	r5, #32
            ret = wc_curve25519_shared_secret(&genKey, &genKey2, shared, &x);
 80018b4:	ab05      	add	r3, sp, #20
 80018b6:	aa08      	add	r2, sp, #32
 80018b8:	a923      	add	r1, sp, #140	; 0x8c
 80018ba:	a810      	add	r0, sp, #64	; 0x40
            x = sizeof(shared);
 80018bc:	9505      	str	r5, [sp, #20]
            ret = wc_curve25519_shared_secret(&genKey, &genKey2, shared, &x);
 80018be:	f009 fbf1 	bl	800b0a4 <wc_curve25519_shared_secret>
            if (ret != 0) {
 80018c2:	4604      	mov	r4, r0
 80018c4:	b940      	cbnz	r0, 80018d8 <bench_curve25519KeyAgree+0x80>
            ret = wc_curve25519_shared_secret(&genKey, &genKey2, shared, &x);
 80018c6:	ab05      	add	r3, sp, #20
 80018c8:	aa08      	add	r2, sp, #32
 80018ca:	a923      	add	r1, sp, #140	; 0x8c
 80018cc:	a810      	add	r0, sp, #64	; 0x40
            x = sizeof(shared);
 80018ce:	9505      	str	r5, [sp, #20]
            ret = wc_curve25519_shared_secret(&genKey, &genKey2, shared, &x);
 80018d0:	f009 fbe8 	bl	800b0a4 <wc_curve25519_shared_secret>
            if (ret != 0) {
 80018d4:	4604      	mov	r4, r0
 80018d6:	b1a0      	cbz	r0, 8001902 <bench_curve25519KeyAgree+0xaa>
                printf("curve25519_shared_secret failed: %d\n", ret);
 80018d8:	4812      	ldr	r0, [pc, #72]	; (8001924 <bench_curve25519KeyAgree+0xcc>)
 80018da:	4621      	mov	r1, r4
 80018dc:	f011 fd7e 	bl	80133dc <iprintf>
    bench_stats_asym_finish_ex(algo, strength, desc, "", useDeviceID, count,
 80018e0:	e9dd 2306 	ldrd	r2, r3, [sp, #24]
 80018e4:	e9cd 2300 	strd	r2, r3, [sp]
 80018e8:	4a0f      	ldr	r2, [pc, #60]	; (8001928 <bench_curve25519KeyAgree+0xd0>)
 80018ea:	9402      	str	r4, [sp, #8]
 80018ec:	9b04      	ldr	r3, [sp, #16]
 80018ee:	68d2      	ldr	r2, [r2, #12]
 80018f0:	480e      	ldr	r0, [pc, #56]	; (800192c <bench_curve25519KeyAgree+0xd4>)
 80018f2:	f246 31af 	movw	r1, #25519	; 0x63af
 80018f6:	f7fe fc2d 	bl	8000154 <bench_stats_asym_finish_ex.constprop.0>
    wc_curve25519_free(&genKey2);
 80018fa:	a823      	add	r0, sp, #140	; 0x8c
 80018fc:	f009 fbec 	bl	800b0d8 <wc_curve25519_free>
 8001900:	e7cf      	b.n	80018a2 <bench_curve25519KeyAgree+0x4a>
        count += i;
 8001902:	9b04      	ldr	r3, [sp, #16]
    } while (bench_stats_check(start));
 8001904:	e9dd 0106 	ldrd	r0, r1, [sp, #24]
        count += i;
 8001908:	3302      	adds	r3, #2
 800190a:	9304      	str	r3, [sp, #16]
    } while (bench_stats_check(start));
 800190c:	f7fe fc0e 	bl	800012c <bench_stats_check>
 8001910:	4604      	mov	r4, r0
 8001912:	2800      	cmp	r0, #0
 8001914:	d1ce      	bne.n	80018b4 <bench_curve25519KeyAgree+0x5c>
exit:
 8001916:	e7e3      	b.n	80018e0 <bench_curve25519KeyAgree+0x88>
 8001918:	20000188 	.word	0x20000188
 800191c:	0801494e 	.word	0x0801494e
 8001920:	0801496a 	.word	0x0801496a
 8001924:	0801498a 	.word	0x0801498a
 8001928:	20000010 	.word	0x20000010
 800192c:	08014948 	.word	0x08014948

08001930 <bench_ed25519KeyGen>:
#endif /* HAVE_CURVE25519_SHARED_SECRET */
#endif /* HAVE_CURVE25519 */

#ifdef HAVE_ED25519
void bench_ed25519KeyGen(void)
{
 8001930:	b510      	push	{r4, lr}
 8001932:	b0a2      	sub	sp, #136	; 0x88
    double start;
    int    i, count;
    const char**desc = bench_desc_words[lng_index];

    /* Key Gen */
    bench_stats_start(&count, &start);
 8001934:	a906      	add	r1, sp, #24
 8001936:	a805      	add	r0, sp, #20
 8001938:	f7fe fbee 	bl	8000118 <bench_stats_start>
    do {
        for (i = 0; i < genTimes; i++) {
            wc_ed25519_init(&genKey);
            (void)wc_ed25519_make_key(&gRng, 32, &genKey);
 800193c:	4c11      	ldr	r4, [pc, #68]	; (8001984 <bench_ed25519KeyGen+0x54>)
            wc_ed25519_init(&genKey);
 800193e:	a808      	add	r0, sp, #32
 8001940:	f009 fe89 	bl	800b656 <wc_ed25519_init>
            (void)wc_ed25519_make_key(&gRng, 32, &genKey);
 8001944:	2120      	movs	r1, #32
 8001946:	aa08      	add	r2, sp, #32
 8001948:	4620      	mov	r0, r4
 800194a:	f009 fc4a 	bl	800b1e2 <wc_ed25519_make_key>
            wc_ed25519_free(&genKey);
 800194e:	a808      	add	r0, sp, #32
 8001950:	f009 fe86 	bl	800b660 <wc_ed25519_free>
        }
        count += i;
 8001954:	9b05      	ldr	r3, [sp, #20]
    } while (bench_stats_check(start));
 8001956:	e9dd 0106 	ldrd	r0, r1, [sp, #24]
        count += i;
 800195a:	3301      	adds	r3, #1
 800195c:	9305      	str	r3, [sp, #20]
    } while (bench_stats_check(start));
 800195e:	f7fe fbe5 	bl	800012c <bench_stats_check>
 8001962:	2800      	cmp	r0, #0
 8001964:	d1eb      	bne.n	800193e <bench_ed25519KeyGen+0xe>
    bench_stats_asym_finish_ex(algo, strength, desc, "", useDeviceID, count,
 8001966:	e9dd 2306 	ldrd	r2, r3, [sp, #24]
 800196a:	e9cd 2300 	strd	r2, r3, [sp]
 800196e:	4a06      	ldr	r2, [pc, #24]	; (8001988 <bench_ed25519KeyGen+0x58>)
 8001970:	9002      	str	r0, [sp, #8]
 8001972:	9b05      	ldr	r3, [sp, #20]
 8001974:	6892      	ldr	r2, [r2, #8]
 8001976:	4805      	ldr	r0, [pc, #20]	; (800198c <bench_ed25519KeyGen+0x5c>)
 8001978:	f246 31af 	movw	r1, #25519	; 0x63af
 800197c:	f7fe fbea 	bl	8000154 <bench_stats_asym_finish_ex.constprop.0>
    bench_stats_asym_finish("ED", 25519, desc[2], 0, count, start, 0);
#endif /* HAVE_ED25519_MAKE_KEY */
}
 8001980:	b022      	add	sp, #136	; 0x88
 8001982:	bd10      	pop	{r4, pc}
 8001984:	20000188 	.word	0x20000188
 8001988:	20000010 	.word	0x20000010
 800198c:	080149af 	.word	0x080149af

08001990 <bench_ed25519KeySign>:


void bench_ed25519KeySign(void)
{
 8001990:	e92d 47f0 	stmdb	sp!, {r4, r5, r6, r7, r8, r9, sl, lr}
 8001994:	f5ad 7d34 	sub.w	sp, sp, #720	; 0x2d0
    byte   msg[512];
    word32 x = 0;
    const char**desc = bench_desc_words[lng_index];
#endif

    wc_ed25519_init(&genKey);
 8001998:	ad1a      	add	r5, sp, #104	; 0x68
    word32 x = 0;
 800199a:	2300      	movs	r3, #0
    wc_ed25519_init(&genKey);
 800199c:	4628      	mov	r0, r5
    word32 x = 0;
 800199e:	9306      	str	r3, [sp, #24]
    wc_ed25519_init(&genKey);
 80019a0:	f009 fe59 	bl	800b656 <wc_ed25519_init>

#ifdef HAVE_ED25519_MAKE_KEY
    ret = wc_ed25519_make_key(&gRng, ED25519_KEY_SIZE, &genKey);
 80019a4:	4845      	ldr	r0, [pc, #276]	; (8001abc <bench_ed25519KeySign+0x12c>)
 80019a6:	462a      	mov	r2, r5
 80019a8:	2120      	movs	r1, #32
 80019aa:	f009 fc1a 	bl	800b1e2 <wc_ed25519_make_key>
    if (ret != 0) {
 80019ae:	b130      	cbz	r0, 80019be <bench_ed25519KeySign+0x2e>
        printf("ed25519_make_key failed\n");
 80019b0:	4843      	ldr	r0, [pc, #268]	; (8001ac0 <bench_ed25519KeySign+0x130>)
 80019b2:	f011 fd13 	bl	80133dc <iprintf>
    bench_stats_asym_finish("ED", 25519, desc[5], 0, count, start, ret);
#endif /* HAVE_ED25519_VERIFY */
#endif /* HAVE_ED25519_SIGN */

    wc_ed25519_free(&genKey);
}
 80019b6:	f50d 7d34 	add.w	sp, sp, #720	; 0x2d0
 80019ba:	e8bd 87f0 	ldmia.w	sp!, {r4, r5, r6, r7, r8, r9, sl, pc}
 80019be:	ab34      	add	r3, sp, #208	; 0xd0
 80019c0:	461e      	mov	r6, r3
        msg[i] = (byte)i;
 80019c2:	f803 0b01 	strb.w	r0, [r3], #1
    for (i = 0; i < (int)sizeof(msg); i++)
 80019c6:	3001      	adds	r0, #1
 80019c8:	f5b0 7f00 	cmp.w	r0, #512	; 0x200
 80019cc:	d1f9      	bne.n	80019c2 <bench_ed25519KeySign+0x32>
    bench_stats_start(&count, &start);
 80019ce:	a908      	add	r1, sp, #32
 80019d0:	a805      	add	r0, sp, #20
 80019d2:	f7fe fba1 	bl	8000118 <bench_stats_start>
            x = sizeof(sig);
 80019d6:	2740      	movs	r7, #64	; 0x40
            ret = wc_ed25519_sign_msg(msg, sizeof(msg), sig, &x, &genKey);
 80019d8:	9500      	str	r5, [sp, #0]
 80019da:	ab06      	add	r3, sp, #24
 80019dc:	aa0a      	add	r2, sp, #40	; 0x28
 80019de:	f44f 7100 	mov.w	r1, #512	; 0x200
 80019e2:	4630      	mov	r0, r6
            x = sizeof(sig);
 80019e4:	9706      	str	r7, [sp, #24]
            ret = wc_ed25519_sign_msg(msg, sizeof(msg), sig, &x, &genKey);
 80019e6:	f009 fd33 	bl	800b450 <wc_ed25519_sign_msg>
            if (ret != 0) {
 80019ea:	4604      	mov	r4, r0
 80019ec:	b958      	cbnz	r0, 8001a06 <bench_ed25519KeySign+0x76>
            ret = wc_ed25519_sign_msg(msg, sizeof(msg), sig, &x, &genKey);
 80019ee:	9500      	str	r5, [sp, #0]
 80019f0:	ab06      	add	r3, sp, #24
 80019f2:	aa0a      	add	r2, sp, #40	; 0x28
 80019f4:	f44f 7100 	mov.w	r1, #512	; 0x200
 80019f8:	4630      	mov	r0, r6
            x = sizeof(sig);
 80019fa:	9706      	str	r7, [sp, #24]
            ret = wc_ed25519_sign_msg(msg, sizeof(msg), sig, &x, &genKey);
 80019fc:	f009 fd28 	bl	800b450 <wc_ed25519_sign_msg>
            if (ret != 0) {
 8001a00:	4604      	mov	r4, r0
 8001a02:	2800      	cmp	r0, #0
 8001a04:	d03e      	beq.n	8001a84 <bench_ed25519KeySign+0xf4>
                printf("ed25519_sign_msg failed\n");
 8001a06:	482f      	ldr	r0, [pc, #188]	; (8001ac4 <bench_ed25519KeySign+0x134>)
 8001a08:	f011 fce8 	bl	80133dc <iprintf>
    bench_stats_asym_finish_ex(algo, strength, desc, "", useDeviceID, count,
 8001a0c:	e9dd 2308 	ldrd	r2, r3, [sp, #32]
    bench_stats_asym_finish("ED", 25519, desc[4], 0, count, start, ret);
 8001a10:	f8df 80b4 	ldr.w	r8, [pc, #180]	; 8001ac8 <bench_ed25519KeySign+0x138>
    bench_stats_asym_finish_ex(algo, strength, desc, "", useDeviceID, count,
 8001a14:	482d      	ldr	r0, [pc, #180]	; (8001acc <bench_ed25519KeySign+0x13c>)
 8001a16:	9402      	str	r4, [sp, #8]
 8001a18:	e9cd 2300 	strd	r2, r3, [sp]
 8001a1c:	f246 31af 	movw	r1, #25519	; 0x63af
 8001a20:	9b05      	ldr	r3, [sp, #20]
 8001a22:	f8d8 2010 	ldr.w	r2, [r8, #16]
 8001a26:	f7fe fb95 	bl	8000154 <bench_stats_asym_finish_ex.constprop.0>
    bench_stats_start(&count, &start);
 8001a2a:	a908      	add	r1, sp, #32
 8001a2c:	a805      	add	r0, sp, #20
 8001a2e:	f7fe fb73 	bl	8000118 <bench_stats_start>
            int verify = 0;
 8001a32:	af07      	add	r7, sp, #28
 8001a34:	f04f 0900 	mov.w	r9, #0
{
 8001a38:	f04f 0a02 	mov.w	sl, #2
            int verify = 0;
 8001a3c:	f8c7 9000 	str.w	r9, [r7]
            ret = wc_ed25519_verify_msg(sig, x, msg, sizeof(msg), &verify,
 8001a40:	9906      	ldr	r1, [sp, #24]
 8001a42:	e9cd 7500 	strd	r7, r5, [sp]
 8001a46:	f44f 7300 	mov.w	r3, #512	; 0x200
 8001a4a:	4632      	mov	r2, r6
 8001a4c:	a80a      	add	r0, sp, #40	; 0x28
 8001a4e:	f009 fde3 	bl	800b618 <wc_ed25519_verify_msg>
            if (ret != 0 || verify != 1) {
 8001a52:	4604      	mov	r4, r0
 8001a54:	b910      	cbnz	r0, 8001a5c <bench_ed25519KeySign+0xcc>
 8001a56:	683b      	ldr	r3, [r7, #0]
 8001a58:	2b01      	cmp	r3, #1
 8001a5a:	d020      	beq.n	8001a9e <bench_ed25519KeySign+0x10e>
                printf("ed25519_verify_msg failed\n");
 8001a5c:	481c      	ldr	r0, [pc, #112]	; (8001ad0 <bench_ed25519KeySign+0x140>)
 8001a5e:	f011 fcbd 	bl	80133dc <iprintf>
    bench_stats_asym_finish_ex(algo, strength, desc, "", useDeviceID, count,
 8001a62:	e9dd 2308 	ldrd	r2, r3, [sp, #32]
 8001a66:	4819      	ldr	r0, [pc, #100]	; (8001acc <bench_ed25519KeySign+0x13c>)
 8001a68:	9402      	str	r4, [sp, #8]
 8001a6a:	e9cd 2300 	strd	r2, r3, [sp]
 8001a6e:	f246 31af 	movw	r1, #25519	; 0x63af
 8001a72:	9b05      	ldr	r3, [sp, #20]
 8001a74:	f8d8 2014 	ldr.w	r2, [r8, #20]
 8001a78:	f7fe fb6c 	bl	8000154 <bench_stats_asym_finish_ex.constprop.0>
    wc_ed25519_free(&genKey);
 8001a7c:	4628      	mov	r0, r5
 8001a7e:	f009 fdef 	bl	800b660 <wc_ed25519_free>
 8001a82:	e798      	b.n	80019b6 <bench_ed25519KeySign+0x26>
        count += i;
 8001a84:	9b05      	ldr	r3, [sp, #20]
    } while (bench_stats_check(start));
 8001a86:	e9dd 0108 	ldrd	r0, r1, [sp, #32]
        count += i;
 8001a8a:	3302      	adds	r3, #2
 8001a8c:	9305      	str	r3, [sp, #20]
    } while (bench_stats_check(start));
 8001a8e:	f7fe fb4d 	bl	800012c <bench_stats_check>
 8001a92:	4604      	mov	r4, r0
 8001a94:	2800      	cmp	r0, #0
 8001a96:	d19f      	bne.n	80019d8 <bench_ed25519KeySign+0x48>
exit_ed_sign:
 8001a98:	e7b8      	b.n	8001a0c <bench_ed25519KeySign+0x7c>
 8001a9a:	469a      	mov	sl, r3
 8001a9c:	e7ce      	b.n	8001a3c <bench_ed25519KeySign+0xac>
        for (i = 0; i < agreeTimes; i++) {
 8001a9e:	f1ba 0f01 	cmp.w	sl, #1
 8001aa2:	d1fa      	bne.n	8001a9a <bench_ed25519KeySign+0x10a>
        count += i;
 8001aa4:	9b05      	ldr	r3, [sp, #20]
    } while (bench_stats_check(start));
 8001aa6:	e9dd 0108 	ldrd	r0, r1, [sp, #32]
        count += i;
 8001aaa:	3302      	adds	r3, #2
 8001aac:	9305      	str	r3, [sp, #20]
    } while (bench_stats_check(start));
 8001aae:	f7fe fb3d 	bl	800012c <bench_stats_check>
 8001ab2:	4604      	mov	r4, r0
 8001ab4:	2800      	cmp	r0, #0
 8001ab6:	d1bf      	bne.n	8001a38 <bench_ed25519KeySign+0xa8>
exit_ed_verify:
 8001ab8:	e7d3      	b.n	8001a62 <bench_ed25519KeySign+0xd2>
 8001aba:	bf00      	nop
 8001abc:	20000188 	.word	0x20000188
 8001ac0:	080149b2 	.word	0x080149b2
 8001ac4:	080149cb 	.word	0x080149cb
 8001ac8:	20000010 	.word	0x20000010
 8001acc:	080149af 	.word	0x080149af
 8001ad0:	080149e4 	.word	0x080149e4

08001ad4 <benchmark_test>:
{
 8001ad4:	e92d 4ff8 	stmdb	sp!, {r3, r4, r5, r6, r7, r8, r9, sl, fp, lr}
    ret = benchmark_init();
 8001ad8:	f7fe ff90 	bl	80009fc <benchmark_init>
 8001adc:	4601      	mov	r1, r0
    if (ret != 0)
 8001ade:	2800      	cmp	r0, #0
 8001ae0:	f040 8192 	bne.w	8001e08 <benchmark_test+0x334>
        rngRet = wc_InitRng_ex(&gRng, HEAP_HINT, devId);
 8001ae4:	488f      	ldr	r0, [pc, #572]	; (8001d24 <benchmark_test+0x250>)
 8001ae6:	f06f 0201 	mvn.w	r2, #1
 8001aea:	f005 fb29 	bl	8007140 <wc_InitRng_ex>
        if (rngRet < 0) {
 8001aee:	2800      	cmp	r0, #0
 8001af0:	da0b      	bge.n	8001b0a <benchmark_test+0x36>
            printf("%sInitRNG failed\n", err_prefix);
 8001af2:	498d      	ldr	r1, [pc, #564]	; (8001d28 <benchmark_test+0x254>)
 8001af4:	488d      	ldr	r0, [pc, #564]	; (8001d2c <benchmark_test+0x258>)
 8001af6:	f011 fc71 	bl	80133dc <iprintf>
    printf("%sBenchmark complete\n", info_prefix);
 8001afa:	498d      	ldr	r1, [pc, #564]	; (8001d30 <benchmark_test+0x25c>)
 8001afc:	488d      	ldr	r0, [pc, #564]	; (8001d34 <benchmark_test+0x260>)
 8001afe:	f011 fc6d 	bl	80133dc <iprintf>
}
 8001b02:	e8bd 4ff8 	ldmia.w	sp!, {r3, r4, r5, r6, r7, r8, r9, sl, fp, lr}
    ret = benchmark_free();
 8001b06:	f7fe bfeb 	b.w	8000ae0 <benchmark_free>
    bench_buf_size = (int)bench_size + BENCH_CIPHER_ADD;
 8001b0a:	4b8b      	ldr	r3, [pc, #556]	; (8001d38 <benchmark_test+0x264>)
 8001b0c:	681b      	ldr	r3, [r3, #0]
 8001b0e:	f103 0410 	add.w	r4, r3, #16
    if (bench_buf_size % 16)
 8001b12:	f013 030f 	ands.w	r3, r3, #15
 8001b16:	d007      	beq.n	8001b28 <benchmark_test+0x54>
        bench_buf_size += 16 - (bench_buf_size % 16);
 8001b18:	4262      	negs	r2, r4
 8001b1a:	f002 020f 	and.w	r2, r2, #15
 8001b1e:	bf58      	it	pl
 8001b20:	4253      	negpl	r3, r2
 8001b22:	f1c3 0310 	rsb	r3, r3, #16
 8001b26:	441c      	add	r4, r3
    bench_plain = (byte*)XMALLOC((size_t)bench_buf_size + 16,
 8001b28:	f104 0510 	add.w	r5, r4, #16
 8001b2c:	4628      	mov	r0, r5
 8001b2e:	f011 fb37 	bl	80131a0 <malloc>
 8001b32:	4f82      	ldr	r7, [pc, #520]	; (8001d3c <benchmark_test+0x268>)
    bench_cipher = (byte*)XMALLOC((size_t)bench_buf_size + 16,
 8001b34:	4e82      	ldr	r6, [pc, #520]	; (8001d40 <benchmark_test+0x26c>)
    bench_plain = (byte*)XMALLOC((size_t)bench_buf_size + 16,
 8001b36:	6038      	str	r0, [r7, #0]
    bench_cipher = (byte*)XMALLOC((size_t)bench_buf_size + 16,
 8001b38:	4628      	mov	r0, r5
 8001b3a:	f011 fb31 	bl	80131a0 <malloc>
 8001b3e:	4603      	mov	r3, r0
 8001b40:	6030      	str	r0, [r6, #0]
    if (bench_plain == NULL || bench_cipher == NULL) {
 8001b42:	6838      	ldr	r0, [r7, #0]
 8001b44:	b110      	cbz	r0, 8001b4c <benchmark_test+0x78>
 8001b46:	b9c3      	cbnz	r3, 8001b7a <benchmark_test+0xa6>
        XFREE(bench_plain, HEAP_HINT, DYNAMIC_TYPE_WOLF_BIGINT);
 8001b48:	f011 fb32 	bl	80131b0 <free>
        XFREE(bench_cipher, HEAP_HINT, DYNAMIC_TYPE_WOLF_BIGINT);
 8001b4c:	6830      	ldr	r0, [r6, #0]
 8001b4e:	b108      	cbz	r0, 8001b54 <benchmark_test+0x80>
 8001b50:	f011 fb2e 	bl	80131b0 <free>
        bench_plain = bench_cipher = NULL;
 8001b54:	2300      	movs	r3, #0
        printf("%sBenchmark block buffer alloc failed!\n", err_prefix);
 8001b56:	4974      	ldr	r1, [pc, #464]	; (8001d28 <benchmark_test+0x254>)
 8001b58:	487a      	ldr	r0, [pc, #488]	; (8001d44 <benchmark_test+0x270>)
        bench_plain = bench_cipher = NULL;
 8001b5a:	6033      	str	r3, [r6, #0]
 8001b5c:	603b      	str	r3, [r7, #0]
        printf("%sBenchmark block buffer alloc failed!\n", err_prefix);
 8001b5e:	f011 fc3d 	bl	80133dc <iprintf>
    XFREE(bench_plain, HEAP_HINT, DYNAMIC_TYPE_WOLF_BIGINT);
 8001b62:	6838      	ldr	r0, [r7, #0]
 8001b64:	b108      	cbz	r0, 8001b6a <benchmark_test+0x96>
 8001b66:	f011 fb23 	bl	80131b0 <free>
    XFREE(bench_cipher, HEAP_HINT, DYNAMIC_TYPE_WOLF_BIGINT);
 8001b6a:	6830      	ldr	r0, [r6, #0]
 8001b6c:	b108      	cbz	r0, 8001b72 <benchmark_test+0x9e>
 8001b6e:	f011 fb1f 	bl	80131b0 <free>
    wc_FreeRng(&gRng);
 8001b72:	486c      	ldr	r0, [pc, #432]	; (8001d24 <benchmark_test+0x250>)
 8001b74:	f005 fb00 	bl	8007178 <wc_FreeRng>
    return NULL;
 8001b78:	e7bf      	b.n	8001afa <benchmark_test+0x26>
    XMEMSET(bench_plain, 0, (size_t)bench_buf_size);
 8001b7a:	4622      	mov	r2, r4
 8001b7c:	2100      	movs	r1, #0
 8001b7e:	f011 fb47 	bl	8013210 <memset>
    XMEMSET(bench_cipher, 0, (size_t)bench_buf_size);
 8001b82:	4622      	mov	r2, r4
 8001b84:	6830      	ldr	r0, [r6, #0]
    if (bench_all || (bench_other_algs & BENCH_RNG))
 8001b86:	4c70      	ldr	r4, [pc, #448]	; (8001d48 <benchmark_test+0x274>)
    XMEMSET(bench_cipher, 0, (size_t)bench_buf_size);
 8001b88:	2100      	movs	r1, #0
 8001b8a:	f011 fb41 	bl	8013210 <memset>
    bench_key = (byte*)bench_key_buf;
 8001b8e:	4b6f      	ldr	r3, [pc, #444]	; (8001d4c <benchmark_test+0x278>)
 8001b90:	4a6f      	ldr	r2, [pc, #444]	; (8001d50 <benchmark_test+0x27c>)
 8001b92:	601a      	str	r2, [r3, #0]
    bench_iv = (byte*)bench_iv_buf;
 8001b94:	4b6f      	ldr	r3, [pc, #444]	; (8001d54 <benchmark_test+0x280>)
 8001b96:	4a70      	ldr	r2, [pc, #448]	; (8001d58 <benchmark_test+0x284>)
 8001b98:	601a      	str	r2, [r3, #0]
    if (bench_all || (bench_other_algs & BENCH_RNG))
 8001b9a:	4b70      	ldr	r3, [pc, #448]	; (8001d5c <benchmark_test+0x288>)
 8001b9c:	6822      	ldr	r2, [r4, #0]
 8001b9e:	681b      	ldr	r3, [r3, #0]
 8001ba0:	f003 0301 	and.w	r3, r3, #1
 8001ba4:	4313      	orrs	r3, r2
 8001ba6:	d13c      	bne.n	8001c22 <benchmark_test+0x14e>
    if (bench_all || (bench_cipher_algs & BENCH_AES_CBC)) {
 8001ba8:	4b6d      	ldr	r3, [pc, #436]	; (8001d60 <benchmark_test+0x28c>)
 8001baa:	681b      	ldr	r3, [r3, #0]
 8001bac:	07da      	lsls	r2, r3, #31
 8001bae:	d43d      	bmi.n	8001c2c <benchmark_test+0x158>
    if (bench_all || (bench_cipher_algs & BENCH_AES_GCM)) {
 8001bb0:	4b6b      	ldr	r3, [pc, #428]	; (8001d60 <benchmark_test+0x28c>)
 8001bb2:	681b      	ldr	r3, [r3, #0]
 8001bb4:	079b      	lsls	r3, r3, #30
 8001bb6:	d43f      	bmi.n	8001c38 <benchmark_test+0x164>
    if (bench_all || (bench_cipher_algs & BENCH_DES)) {
 8001bb8:	4b69      	ldr	r3, [pc, #420]	; (8001d60 <benchmark_test+0x28c>)
 8001bba:	681b      	ldr	r3, [r3, #0]
 8001bbc:	045d      	lsls	r5, r3, #17
 8001bbe:	d44d      	bmi.n	8001c5c <benchmark_test+0x188>
    if (bench_all || (bench_digest_algs & BENCH_SHA)) {
 8001bc0:	4b68      	ldr	r3, [pc, #416]	; (8001d64 <benchmark_test+0x290>)
 8001bc2:	681b      	ldr	r3, [r3, #0]
 8001bc4:	075a      	lsls	r2, r3, #29
 8001bc6:	d44f      	bmi.n	8001c68 <benchmark_test+0x194>
    if (bench_all || (bench_digest_algs & BENCH_SHA256)) {
 8001bc8:	4b66      	ldr	r3, [pc, #408]	; (8001d64 <benchmark_test+0x290>)
 8001bca:	681b      	ldr	r3, [r3, #0]
 8001bcc:	069b      	lsls	r3, r3, #26
 8001bce:	d451      	bmi.n	8001c74 <benchmark_test+0x1a0>
    if (bench_all || (bench_digest_algs & BENCH_SHA512)) {
 8001bd0:	4b64      	ldr	r3, [pc, #400]	; (8001d64 <benchmark_test+0x290>)
 8001bd2:	681b      	ldr	r3, [r3, #0]
 8001bd4:	061d      	lsls	r5, r3, #24
 8001bd6:	d453      	bmi.n	8001c80 <benchmark_test+0x1ac>
        if (bench_all || (bench_mac_algs & BENCH_HMAC_SHA)) {
 8001bd8:	4b63      	ldr	r3, [pc, #396]	; (8001d68 <benchmark_test+0x294>)
 8001bda:	681b      	ldr	r3, [r3, #0]
 8001bdc:	075a      	lsls	r2, r3, #29
 8001bde:	d467      	bmi.n	8001cb0 <benchmark_test+0x1dc>
        if (bench_all || (bench_mac_algs & BENCH_HMAC_SHA256)) {
 8001be0:	4b61      	ldr	r3, [pc, #388]	; (8001d68 <benchmark_test+0x294>)
 8001be2:	681b      	ldr	r3, [r3, #0]
 8001be4:	069b      	lsls	r3, r3, #26
 8001be6:	d469      	bmi.n	8001cbc <benchmark_test+0x1e8>
        if (bench_all || (bench_mac_algs & BENCH_HMAC_SHA512)) {
 8001be8:	4b5f      	ldr	r3, [pc, #380]	; (8001d68 <benchmark_test+0x294>)
 8001bea:	681b      	ldr	r3, [r3, #0]
 8001bec:	061d      	lsls	r5, r3, #24
 8001bee:	d46b      	bmi.n	8001cc8 <benchmark_test+0x1f4>
            (bench_asym_algs & BENCH_ECC_ALL) ||
 8001bf0:	4b5e      	ldr	r3, [pc, #376]	; (8001d6c <benchmark_test+0x298>)
 8001bf2:	681b      	ldr	r3, [r3, #0]
 8001bf4:	f413 4f70 	tst.w	r3, #61440	; 0xf000
 8001bf8:	d16c      	bne.n	8001cd4 <benchmark_test+0x200>
    if (bench_all || (bench_asym_algs & BENCH_CURVE25519_KEYGEN)) {
 8001bfa:	4b5c      	ldr	r3, [pc, #368]	; (8001d6c <benchmark_test+0x298>)
 8001bfc:	681b      	ldr	r3, [r3, #0]
 8001bfe:	03d9      	lsls	r1, r3, #15
 8001c00:	f100 80e2 	bmi.w	8001dc8 <benchmark_test+0x2f4>
    if (bench_all || (bench_asym_algs & BENCH_CURVE25519_KA)) {
 8001c04:	4b59      	ldr	r3, [pc, #356]	; (8001d6c <benchmark_test+0x298>)
 8001c06:	681b      	ldr	r3, [r3, #0]
 8001c08:	0399      	lsls	r1, r3, #14
 8001c0a:	f100 80e4 	bmi.w	8001dd6 <benchmark_test+0x302>
    if (bench_all || (bench_asym_algs & BENCH_ED25519_KEYGEN))
 8001c0e:	4b57      	ldr	r3, [pc, #348]	; (8001d6c <benchmark_test+0x298>)
 8001c10:	681b      	ldr	r3, [r3, #0]
 8001c12:	035a      	lsls	r2, r3, #13
 8001c14:	f100 80e6 	bmi.w	8001de4 <benchmark_test+0x310>
    if (bench_all || (bench_asym_algs & BENCH_ED25519_SIGN))
 8001c18:	4b54      	ldr	r3, [pc, #336]	; (8001d6c <benchmark_test+0x298>)
 8001c1a:	681b      	ldr	r3, [r3, #0]
 8001c1c:	031b      	lsls	r3, r3, #12
 8001c1e:	d5a0      	bpl.n	8001b62 <benchmark_test+0x8e>
 8001c20:	e0e6      	b.n	8001df0 <benchmark_test+0x31c>
        bench_rng();
 8001c22:	f7fe ff6d 	bl	8000b00 <bench_rng>
    if (bench_all || (bench_cipher_algs & BENCH_AES_CBC)) {
 8001c26:	6823      	ldr	r3, [r4, #0]
 8001c28:	2b00      	cmp	r3, #0
 8001c2a:	d0bd      	beq.n	8001ba8 <benchmark_test+0xd4>
        bench_aescbc(0);
 8001c2c:	2000      	movs	r0, #0
 8001c2e:	f7fe ffc3 	bl	8000bb8 <bench_aescbc>
    if (bench_all || (bench_cipher_algs & BENCH_AES_GCM)) {
 8001c32:	6823      	ldr	r3, [r4, #0]
 8001c34:	2b00      	cmp	r3, #0
 8001c36:	d0bb      	beq.n	8001bb0 <benchmark_test+0xdc>
        word32 aesAuthAddSz_orig = aesAuthAddSz;
 8001c38:	f8df 8134 	ldr.w	r8, [pc, #308]	; 8001d70 <benchmark_test+0x29c>
        word32 options = aes_aad_options;
 8001c3c:	4b4d      	ldr	r3, [pc, #308]	; (8001d74 <benchmark_test+0x2a0>)
        word32 aesAuthAddSz_orig = aesAuthAddSz;
 8001c3e:	f8d8 9000 	ldr.w	r9, [r8]
        word32 options = aes_aad_options;
 8001c42:	681d      	ldr	r5, [r3, #0]
                aesAuthAddSz = aes_aad_size;
 8001c44:	f8df a130 	ldr.w	sl, [pc, #304]	; 8001d78 <benchmark_test+0x2a4>
                aesAuthAddSz = AES_AUTH_ADD_SZ;
 8001c48:	f04f 0b0d 	mov.w	fp, #13
        while(options) {
 8001c4c:	2d00      	cmp	r5, #0
 8001c4e:	d14c      	bne.n	8001cea <benchmark_test+0x216>
        bench_gmac(0);
 8001c50:	4628      	mov	r0, r5
 8001c52:	f7fe ffe5 	bl	8000c20 <bench_gmac>
    if (bench_all || (bench_cipher_algs & BENCH_DES)) {
 8001c56:	6823      	ldr	r3, [r4, #0]
 8001c58:	2b00      	cmp	r3, #0
 8001c5a:	d0ad      	beq.n	8001bb8 <benchmark_test+0xe4>
        bench_des(0);
 8001c5c:	2000      	movs	r0, #0
 8001c5e:	f7ff f83b 	bl	8000cd8 <bench_des>
    if (bench_all || (bench_digest_algs & BENCH_SHA)) {
 8001c62:	6823      	ldr	r3, [r4, #0]
 8001c64:	2b00      	cmp	r3, #0
 8001c66:	d0ab      	beq.n	8001bc0 <benchmark_test+0xec>
        bench_sha(0);
 8001c68:	2000      	movs	r0, #0
 8001c6a:	f7ff f89d 	bl	8000da8 <bench_sha>
    if (bench_all || (bench_digest_algs & BENCH_SHA256)) {
 8001c6e:	6823      	ldr	r3, [r4, #0]
 8001c70:	2b00      	cmp	r3, #0
 8001c72:	d0a9      	beq.n	8001bc8 <benchmark_test+0xf4>
        bench_sha256(0);
 8001c74:	2000      	movs	r0, #0
 8001c76:	f7ff f931 	bl	8000edc <bench_sha256>
    if (bench_all || (bench_digest_algs & BENCH_SHA512)) {
 8001c7a:	6823      	ldr	r3, [r4, #0]
 8001c7c:	2b00      	cmp	r3, #0
 8001c7e:	d0a7      	beq.n	8001bd0 <benchmark_test+0xfc>
        bench_sha512(0);
 8001c80:	2000      	movs	r0, #0
 8001c82:	f7ff f9c5 	bl	8001010 <bench_sha512>
    if (bench_all || (bench_digest_algs & BENCH_SHA512)) {
 8001c86:	6823      	ldr	r3, [r4, #0]
 8001c88:	b91b      	cbnz	r3, 8001c92 <benchmark_test+0x1be>
 8001c8a:	4b36      	ldr	r3, [pc, #216]	; (8001d64 <benchmark_test+0x290>)
 8001c8c:	681b      	ldr	r3, [r3, #0]
 8001c8e:	0618      	lsls	r0, r3, #24
 8001c90:	d5a2      	bpl.n	8001bd8 <benchmark_test+0x104>
        bench_sha512_224(0);
 8001c92:	2000      	movs	r0, #0
 8001c94:	f7ff fa56 	bl	8001144 <bench_sha512_224>
    if (bench_all || (bench_digest_algs & BENCH_SHA512)) {
 8001c98:	6823      	ldr	r3, [r4, #0]
 8001c9a:	b91b      	cbnz	r3, 8001ca4 <benchmark_test+0x1d0>
 8001c9c:	4b31      	ldr	r3, [pc, #196]	; (8001d64 <benchmark_test+0x290>)
 8001c9e:	681b      	ldr	r3, [r3, #0]
 8001ca0:	0619      	lsls	r1, r3, #24
 8001ca2:	d599      	bpl.n	8001bd8 <benchmark_test+0x104>
        bench_sha512_256(0);
 8001ca4:	2000      	movs	r0, #0
 8001ca6:	f7ff fae7 	bl	8001278 <bench_sha512_256>
        if (bench_all || (bench_mac_algs & BENCH_HMAC_SHA)) {
 8001caa:	6823      	ldr	r3, [r4, #0]
 8001cac:	2b00      	cmp	r3, #0
 8001cae:	d093      	beq.n	8001bd8 <benchmark_test+0x104>
            bench_hmac_sha(0);
 8001cb0:	2000      	movs	r0, #0
 8001cb2:	f7ff fb7b 	bl	80013ac <bench_hmac_sha>
        if (bench_all || (bench_mac_algs & BENCH_HMAC_SHA256)) {
 8001cb6:	6823      	ldr	r3, [r4, #0]
 8001cb8:	2b00      	cmp	r3, #0
 8001cba:	d091      	beq.n	8001be0 <benchmark_test+0x10c>
            bench_hmac_sha256(0);
 8001cbc:	2000      	movs	r0, #0
 8001cbe:	f7ff fb85 	bl	80013cc <bench_hmac_sha256>
        if (bench_all || (bench_mac_algs & BENCH_HMAC_SHA512)) {
 8001cc2:	6823      	ldr	r3, [r4, #0]
 8001cc4:	2b00      	cmp	r3, #0
 8001cc6:	d08f      	beq.n	8001be8 <benchmark_test+0x114>
            bench_hmac_sha512(0);
 8001cc8:	2000      	movs	r0, #0
 8001cca:	f7ff fb8f 	bl	80013ec <bench_hmac_sha512>
    if (bench_all || (bench_asym_algs & BENCH_ECC_MAKEKEY) ||
 8001cce:	6823      	ldr	r3, [r4, #0]
 8001cd0:	2b00      	cmp	r3, #0
 8001cd2:	d08d      	beq.n	8001bf0 <benchmark_test+0x11c>
        if (bench_asym_algs & BENCH_ECC_ALL) {
 8001cd4:	4a25      	ldr	r2, [pc, #148]	; (8001d6c <benchmark_test+0x298>)
 8001cd6:	6813      	ldr	r3, [r2, #0]
 8001cd8:	0418      	lsls	r0, r3, #16
 8001cda:	d44f      	bmi.n	8001d7c <benchmark_test+0x2a8>
        else if (bench_asym_algs & BENCH_ECC_P256) {
 8001cdc:	01da      	lsls	r2, r3, #7
 8001cde:	f140 808a 	bpl.w	8001df6 <benchmark_test+0x322>
            bench_ecc_curve((int)ECC_SECP256R1);
 8001ce2:	2007      	movs	r0, #7
            bench_ecc_curve((int)ECC_SECP521R1);
 8001ce4:	f7ff fd4a 	bl	800177c <bench_ecc_curve>
 8001ce8:	e06a      	b.n	8001dc0 <benchmark_test+0x2ec>
            if (options & AAD_SIZE_DEFAULT) {
 8001cea:	f015 0301 	ands.w	r3, r5, #1
 8001cee:	d009      	beq.n	8001d04 <benchmark_test+0x230>
                aesAuthAddSz = AES_AUTH_ADD_SZ;
 8001cf0:	f8c8 b000 	str.w	fp, [r8]
                options &= ~(word32)AAD_SIZE_DEFAULT;
 8001cf4:	f025 0501 	bic.w	r5, r5, #1
            fn(i);
 8001cf8:	2000      	movs	r0, #0
 8001cfa:	f7fe fd6d 	bl	80007d8 <bench_aesgcm>
            aesAuthAddSz = aesAuthAddSz_orig;
 8001cfe:	f8c8 9000 	str.w	r9, [r8]
 8001d02:	e7a3      	b.n	8001c4c <benchmark_test+0x178>
            else if (options & AAD_SIZE_ZERO) {
 8001d04:	07a8      	lsls	r0, r5, #30
 8001d06:	d504      	bpl.n	8001d12 <benchmark_test+0x23e>
                aesAuthAddSz = 0;
 8001d08:	f8c8 3000 	str.w	r3, [r8]
                options &= ~(word32)AAD_SIZE_ZERO;
 8001d0c:	f025 0502 	bic.w	r5, r5, #2
 8001d10:	e7f2      	b.n	8001cf8 <benchmark_test+0x224>
            else if (options & AAD_SIZE_CUSTOM) {
 8001d12:	0769      	lsls	r1, r5, #29
                aesAuthAddSz = aes_aad_size;
 8001d14:	bf42      	ittt	mi
 8001d16:	f8da 3000 	ldrmi.w	r3, [sl]
 8001d1a:	f8c8 3000 	strmi.w	r3, [r8]
                options &= ~(word32)AAD_SIZE_CUSTOM;
 8001d1e:	f025 0504 	bicmi.w	r5, r5, #4
 8001d22:	e7e9      	b.n	8001cf8 <benchmark_test+0x224>
 8001d24:	20000188 	.word	0x20000188
 8001d28:	08014d88 	.word	0x08014d88
 8001d2c:	080149ff 	.word	0x080149ff
 8001d30:	08014d89 	.word	0x08014d89
 8001d34:	08014a4d 	.word	0x08014a4d
 8001d38:	200000d0 	.word	0x200000d0
 8001d3c:	2000017c 	.word	0x2000017c
 8001d40:	20000160 	.word	0x20000160
 8001d44:	08014a11 	.word	0x08014a11
 8001d48:	2000000c 	.word	0x2000000c
 8001d4c:	20000170 	.word	0x20000170
 8001d50:	08014d48 	.word	0x08014d48
 8001d54:	2000016c 	.word	0x2000016c
 8001d58:	08014d30 	.word	0x08014d30
 8001d5c:	20000178 	.word	0x20000178
 8001d60:	20000164 	.word	0x20000164
 8001d64:	20000168 	.word	0x20000168
 8001d68:	20000174 	.word	0x20000174
 8001d6c:	2000015c 	.word	0x2000015c
 8001d70:	20000000 	.word	0x20000000
 8001d74:	20000004 	.word	0x20000004
 8001d78:	20000154 	.word	0x20000154
            if (csv_format != 1) {
 8001d7c:	f8df 808c 	ldr.w	r8, [pc, #140]	; 8001e0c <benchmark_test+0x338>
            bench_asym_algs |= BENCH_ECC_MAKEKEY | BENCH_ECC |
 8001d80:	f443 43e0 	orr.w	r3, r3, #28672	; 0x7000
 8001d84:	6013      	str	r3, [r2, #0]
            if (csv_format != 1) {
 8001d86:	f8d8 3000 	ldr.w	r3, [r8]
 8001d8a:	2b01      	cmp	r3, #1
 8001d8c:	d003      	beq.n	8001d96 <benchmark_test+0x2c2>
                printf("\n%sECC Benchmarks:\n", info_prefix);
 8001d8e:	4920      	ldr	r1, [pc, #128]	; (8001e10 <benchmark_test+0x33c>)
 8001d90:	4820      	ldr	r0, [pc, #128]	; (8001e14 <benchmark_test+0x340>)
 8001d92:	f011 fb23 	bl	80133dc <iprintf>
                        printf("\n");
 8001d96:	f8df 9080 	ldr.w	r9, [pc, #128]	; 8001e18 <benchmark_test+0x344>
{
 8001d9a:	2501      	movs	r5, #1
                if (wc_ecc_get_curve_size_from_id(curveId) !=
 8001d9c:	4628      	mov	r0, r5
 8001d9e:	f003 fc73 	bl	8005688 <wc_ecc_get_curve_size_from_id>
 8001da2:	30aa      	adds	r0, #170	; 0xaa
 8001da4:	d009      	beq.n	8001dba <benchmark_test+0x2e6>
                    bench_ecc_curve(curveId);
 8001da6:	4628      	mov	r0, r5
 8001da8:	f7ff fce8 	bl	800177c <bench_ecc_curve>
                    if (csv_format != 1) {
 8001dac:	f8d8 3000 	ldr.w	r3, [r8]
 8001db0:	2b01      	cmp	r3, #1
 8001db2:	d002      	beq.n	8001dba <benchmark_test+0x2e6>
                        printf("\n");
 8001db4:	4648      	mov	r0, r9
 8001db6:	f011 fb11 	bl	80133dc <iprintf>
                curveId++;
 8001dba:	3501      	adds	r5, #1
            } while (curveId != (int)ECC_CURVE_MAX);
 8001dbc:	2d1e      	cmp	r5, #30
 8001dbe:	d1ed      	bne.n	8001d9c <benchmark_test+0x2c8>
    if (bench_all || (bench_asym_algs & BENCH_CURVE25519_KEYGEN)) {
 8001dc0:	6823      	ldr	r3, [r4, #0]
 8001dc2:	2b00      	cmp	r3, #0
 8001dc4:	f43f af19 	beq.w	8001bfa <benchmark_test+0x126>
        bench_curve25519KeyGen(0);
 8001dc8:	2000      	movs	r0, #0
 8001dca:	f7ff fcf7 	bl	80017bc <bench_curve25519KeyGen>
    if (bench_all || (bench_asym_algs & BENCH_CURVE25519_KA)) {
 8001dce:	6823      	ldr	r3, [r4, #0]
 8001dd0:	2b00      	cmp	r3, #0
 8001dd2:	f43f af17 	beq.w	8001c04 <benchmark_test+0x130>
        bench_curve25519KeyAgree(0);
 8001dd6:	2000      	movs	r0, #0
 8001dd8:	f7ff fd3e 	bl	8001858 <bench_curve25519KeyAgree>
    if (bench_all || (bench_asym_algs & BENCH_ED25519_KEYGEN))
 8001ddc:	6823      	ldr	r3, [r4, #0]
 8001dde:	2b00      	cmp	r3, #0
 8001de0:	f43f af15 	beq.w	8001c0e <benchmark_test+0x13a>
        bench_ed25519KeyGen();
 8001de4:	f7ff fda4 	bl	8001930 <bench_ed25519KeyGen>
    if (bench_all || (bench_asym_algs & BENCH_ED25519_SIGN))
 8001de8:	6823      	ldr	r3, [r4, #0]
 8001dea:	2b00      	cmp	r3, #0
 8001dec:	f43f af14 	beq.w	8001c18 <benchmark_test+0x144>
        bench_ed25519KeySign();
 8001df0:	f7ff fdce 	bl	8001990 <bench_ed25519KeySign>
 8001df4:	e6b5      	b.n	8001b62 <benchmark_test+0x8e>
        else if (bench_asym_algs & BENCH_ECC_P384) {
 8001df6:	019d      	lsls	r5, r3, #6
 8001df8:	d501      	bpl.n	8001dfe <benchmark_test+0x32a>
            bench_ecc_curve((int)ECC_SECP384R1);
 8001dfa:	200f      	movs	r0, #15
 8001dfc:	e772      	b.n	8001ce4 <benchmark_test+0x210>
        else if (bench_asym_algs & BENCH_ECC_P521) {
 8001dfe:	0158      	lsls	r0, r3, #5
 8001e00:	f57f af6f 	bpl.w	8001ce2 <benchmark_test+0x20e>
            bench_ecc_curve((int)ECC_SECP521R1);
 8001e04:	2010      	movs	r0, #16
 8001e06:	e76d      	b.n	8001ce4 <benchmark_test+0x210>
}
 8001e08:	e8bd 8ff8 	ldmia.w	sp!, {r3, r4, r5, r6, r7, r8, r9, sl, fp, pc}
 8001e0c:	20000180 	.word	0x20000180
 8001e10:	08014d89 	.word	0x08014d89
 8001e14:	08014a39 	.word	0x08014a39
 8001e18:	08014a37 	.word	0x08014a37

08001e1c <ByteReverseWord32>:
#else
    /* 6 instructions with rotate instruction, 8 without */
    value = ((value & 0xFF00FF00) >> 8) | ((value & 0x00FF00FF) << 8);
    return rotlFixed(value, 16U);
#endif
}
 8001e1c:	ba00      	rev	r0, r0
 8001e1e:	4770      	bx	lr

08001e20 <xorbufout>:
/* This routine performs a bitwise XOR operation of <*buf> and <*mask> of n
counts, placing the result in <*buf>. */

WC_MISC_STATIC WC_INLINE void xorbufout(void* out, const void* buf,
                                        const void* mask, word32 count)
{
 8001e20:	b5f0      	push	{r4, r5, r6, r7, lr}
    o = (byte*)out;
    b = (const byte*)buf;
    m = (const byte*)mask;


    if (((wc_ptr_t)o) % WOLFSSL_WORD_SIZE ==
 8001e22:	ea80 0401 	eor.w	r4, r0, r1
            ((wc_ptr_t)b) % WOLFSSL_WORD_SIZE &&
            ((wc_ptr_t)b) % WOLFSSL_WORD_SIZE ==
 8001e26:	ea82 0501 	eor.w	r5, r2, r1
 8001e2a:	432c      	orrs	r4, r5
            ((wc_ptr_t)b) % WOLFSSL_WORD_SIZE &&
 8001e2c:	f014 0403 	ands.w	r4, r4, #3
 8001e30:	d10d      	bne.n	8001e4e <xorbufout+0x2e>
            const wolfssl_word* wp;
        } tpb, tpm;
        /* Alignment checks out. Possible to XOR words. */
        /* Move alignment so that it lines up with a
         * WOLFSSL_WORD_SIZE boundary */
        while (((wc_ptr_t)b) % WOLFSSL_WORD_SIZE != 0 && count > 0) {
 8001e32:	078d      	lsls	r5, r1, #30
 8001e34:	d000      	beq.n	8001e38 <xorbufout+0x18>
 8001e36:	b973      	cbnz	r3, 8001e56 <xorbufout+0x36>
            count--;
        }
        tpo.bp = o;
        tpb.bp = b;
        tpm.bp = m;
        XorWordsOut( &tpo.wp, &tpb.wp, &tpm.wp, count / WOLFSSL_WORD_SIZE);
 8001e38:	089d      	lsrs	r5, r3, #2
    for (i = 0; i < n; i++)
 8001e3a:	42a5      	cmp	r5, r4
 8001e3c:	d114      	bne.n	8001e68 <xorbufout+0x48>
 8001e3e:	eb00 0085 	add.w	r0, r0, r5, lsl #2
 8001e42:	eb01 0185 	add.w	r1, r1, r5, lsl #2
 8001e46:	eb02 0285 	add.w	r2, r2, r5, lsl #2
        o = tpo.bp;
        b = tpb.bp;
        m = tpm.bp;
        count %= WOLFSSL_WORD_SIZE;
 8001e4a:	f003 0303 	and.w	r3, r3, #3
    }

    for (i = 0; i < count; i++)
 8001e4e:	2400      	movs	r4, #0
 8001e50:	42a3      	cmp	r3, r4
 8001e52:	d112      	bne.n	8001e7a <xorbufout+0x5a>
        o[i] = (byte)(b[i] ^ m[i]);
}
 8001e54:	bdf0      	pop	{r4, r5, r6, r7, pc}
            *(o++) = (byte)(*(b++) ^ *(m++));
 8001e56:	f811 5b01 	ldrb.w	r5, [r1], #1
 8001e5a:	f812 6b01 	ldrb.w	r6, [r2], #1
 8001e5e:	4075      	eors	r5, r6
 8001e60:	f800 5b01 	strb.w	r5, [r0], #1
            count--;
 8001e64:	3b01      	subs	r3, #1
 8001e66:	e7e4      	b.n	8001e32 <xorbufout+0x12>
        *((*r)++) = *((*a)++) ^ *((*b)++);
 8001e68:	f851 6024 	ldr.w	r6, [r1, r4, lsl #2]
 8001e6c:	f852 7024 	ldr.w	r7, [r2, r4, lsl #2]
 8001e70:	407e      	eors	r6, r7
 8001e72:	f840 6024 	str.w	r6, [r0, r4, lsl #2]
    for (i = 0; i < n; i++)
 8001e76:	3401      	adds	r4, #1
 8001e78:	e7df      	b.n	8001e3a <xorbufout+0x1a>
        o[i] = (byte)(b[i] ^ m[i]);
 8001e7a:	5d0d      	ldrb	r5, [r1, r4]
 8001e7c:	5d16      	ldrb	r6, [r2, r4]
 8001e7e:	4075      	eors	r5, r6
 8001e80:	5505      	strb	r5, [r0, r4]
    for (i = 0; i < count; i++)
 8001e82:	3401      	adds	r4, #1
 8001e84:	e7e4      	b.n	8001e50 <xorbufout+0x30>

08001e86 <xorbuf>:
    const byte* m;

    b = (byte*)buf;
    m = (const byte*)mask;

    if (((wc_ptr_t)b) % WOLFSSL_WORD_SIZE ==
 8001e86:	ea81 0300 	eor.w	r3, r1, r0
 8001e8a:	079b      	lsls	r3, r3, #30
{
 8001e8c:	b5f0      	push	{r4, r5, r6, r7, lr}
    if (((wc_ptr_t)b) % WOLFSSL_WORD_SIZE ==
 8001e8e:	d10c      	bne.n	8001eaa <xorbuf+0x24>
            const wolfssl_word* wp;
        } tpm;
        /* Alignment checks out. Possible to XOR words. */
        /* Move alignment so that it lines up with a
         * WOLFSSL_WORD_SIZE boundary */
        while (((wc_ptr_t)buf) % WOLFSSL_WORD_SIZE != 0 && count > 0) {
 8001e90:	f000 0403 	and.w	r4, r0, #3
 8001e94:	b104      	cbz	r4, 8001e98 <xorbuf+0x12>
 8001e96:	b96a      	cbnz	r2, 8001eb4 <xorbuf+0x2e>
    for (i = 0; i < n; i++)
 8001e98:	f022 0503 	bic.w	r5, r2, #3
 8001e9c:	194e      	adds	r6, r1, r5
 8001e9e:	4603      	mov	r3, r0
 8001ea0:	42b1      	cmp	r1, r6
 8001ea2:	d110      	bne.n	8001ec6 <xorbuf+0x40>
 8001ea4:	4428      	add	r0, r5
        tpb.bp = b;
        tpm.bp = m;
        XorWords( &tpb.wp, &tpm.wp, count / WOLFSSL_WORD_SIZE);
        b = tpb.bp;
        m = tpm.bp;
        count %= WOLFSSL_WORD_SIZE;
 8001ea6:	f002 0203 	and.w	r2, r2, #3
    }

    for (i = 0; i < count; i++)
 8001eaa:	3901      	subs	r1, #1
 8001eac:	4402      	add	r2, r0
 8001eae:	4290      	cmp	r0, r2
 8001eb0:	d111      	bne.n	8001ed6 <xorbuf+0x50>
        b[i] ^= m[i];
}
 8001eb2:	bdf0      	pop	{r4, r5, r6, r7, pc}
            *(b++) ^= *(m++);
 8001eb4:	f810 3b01 	ldrb.w	r3, [r0], #1
 8001eb8:	f811 5b01 	ldrb.w	r5, [r1], #1
 8001ebc:	406b      	eors	r3, r5
 8001ebe:	f800 3c01 	strb.w	r3, [r0, #-1]
            count--;
 8001ec2:	3a01      	subs	r2, #1
 8001ec4:	e7e6      	b.n	8001e94 <xorbuf+0xe>
        *((*r)++) ^= *((*a)++);
 8001ec6:	f853 4b04 	ldr.w	r4, [r3], #4
 8001eca:	f851 7b04 	ldr.w	r7, [r1], #4
 8001ece:	407c      	eors	r4, r7
 8001ed0:	f843 4c04 	str.w	r4, [r3, #-4]
    for (i = 0; i < n; i++)
 8001ed4:	e7e4      	b.n	8001ea0 <xorbuf+0x1a>
        b[i] ^= m[i];
 8001ed6:	7803      	ldrb	r3, [r0, #0]
 8001ed8:	f811 4f01 	ldrb.w	r4, [r1, #1]!
 8001edc:	4063      	eors	r3, r4
 8001ede:	f800 3b01 	strb.w	r3, [r0], #1
    for (i = 0; i < count; i++)
 8001ee2:	e7e4      	b.n	8001eae <xorbuf+0x28>

08001ee4 <IncrementGcmCounter>:
static WC_INLINE void IncrementGcmCounter(byte* inOutCtr)
{
    int i;

    /* in network byte order so start at end and work back */
    for (i = AES_BLOCK_SIZE - 1; i >= AES_BLOCK_SIZE - CTR_SZ; i--) {
 8001ee4:	f100 0210 	add.w	r2, r0, #16
 8001ee8:	300c      	adds	r0, #12
        if (++inOutCtr[i])  /* we're done unless we overflow */
 8001eea:	f812 3d01 	ldrb.w	r3, [r2, #-1]!
 8001eee:	3301      	adds	r3, #1
 8001ef0:	b2db      	uxtb	r3, r3
 8001ef2:	7013      	strb	r3, [r2, #0]
 8001ef4:	b90b      	cbnz	r3, 8001efa <IncrementGcmCounter+0x16>
    for (i = AES_BLOCK_SIZE - 1; i >= AES_BLOCK_SIZE - CTR_SZ; i--) {
 8001ef6:	4282      	cmp	r2, r0
 8001ef8:	d1f7      	bne.n	8001eea <IncrementGcmCounter+0x6>
            return;
    }
}
 8001efa:	4770      	bx	lr

08001efc <wc_AesEncrypt>:
{
 8001efc:	e92d 47ff 	stmdb	sp!, {r0, r1, r2, r3, r4, r5, r6, r7, r8, r9, sl, lr}
 8001f00:	460d      	mov	r5, r1
 8001f02:	4690      	mov	r8, r2
    if (aes == NULL) {
 8001f04:	4604      	mov	r4, r0
 8001f06:	2800      	cmp	r0, #0
 8001f08:	f000 872d 	beq.w	8002d66 <wc_AesEncrypt+0xe6a>
    r = aes->rounds >> 1;
 8001f0c:	f8d0 70f0 	ldr.w	r7, [r0, #240]	; 0xf0
 8001f10:	087f      	lsrs	r7, r7, #1
    if (r > 7 || r == 0) {
 8001f12:	1e7b      	subs	r3, r7, #1
 8001f14:	2b06      	cmp	r3, #6
 8001f16:	f200 8729 	bhi.w	8002d6c <wc_AesEncrypt+0xe70>
    XMEMCPY(&s0, inBlock,                  sizeof(s0));
 8001f1a:	2204      	movs	r2, #4
 8001f1c:	4668      	mov	r0, sp
 8001f1e:	f011 f94f 	bl	80131c0 <memcpy>
    XMEMCPY(&s1, inBlock +     sizeof(s0), sizeof(s1));
 8001f22:	2204      	movs	r2, #4
 8001f24:	18a9      	adds	r1, r5, r2
 8001f26:	eb0d 0002 	add.w	r0, sp, r2
 8001f2a:	f011 f949 	bl	80131c0 <memcpy>
    XMEMCPY(&s2, inBlock + 2 * sizeof(s0), sizeof(s2));
 8001f2e:	f105 0108 	add.w	r1, r5, #8
 8001f32:	2204      	movs	r2, #4
 8001f34:	a802      	add	r0, sp, #8
 8001f36:	f011 f943 	bl	80131c0 <memcpy>
    XMEMCPY(&s3, inBlock + 3 * sizeof(s0), sizeof(s3));
 8001f3a:	f105 010c 	add.w	r1, r5, #12
 8001f3e:	2204      	movs	r2, #4
 8001f40:	a803      	add	r0, sp, #12
 8001f42:	f011 f93d 	bl	80131c0 <memcpy>
    s0 = ByteReverseWord32(s0);
 8001f46:	9800      	ldr	r0, [sp, #0]
 8001f48:	f7ff ff68 	bl	8001e1c <ByteReverseWord32>
 8001f4c:	4602      	mov	r2, r0
    s1 = ByteReverseWord32(s1);
 8001f4e:	9801      	ldr	r0, [sp, #4]
 8001f50:	f7ff ff64 	bl	8001e1c <ByteReverseWord32>
 8001f54:	4603      	mov	r3, r0
    s2 = ByteReverseWord32(s2);
 8001f56:	9802      	ldr	r0, [sp, #8]
 8001f58:	f7ff ff60 	bl	8001e1c <ByteReverseWord32>
 8001f5c:	4681      	mov	r9, r0
    s3 = ByteReverseWord32(s3);
 8001f5e:	9803      	ldr	r0, [sp, #12]
 8001f60:	f7ff ff5c 	bl	8001e1c <ByteReverseWord32>
    s0 ^= rk[0];
 8001f64:	6821      	ldr	r1, [r4, #0]
 8001f66:	ea82 0e01 	eor.w	lr, r2, r1
    s1 ^= rk[1];
 8001f6a:	6862      	ldr	r2, [r4, #4]
 8001f6c:	ea83 0c02 	eor.w	ip, r3, r2
    s2 ^= rk[2];
 8001f70:	68a3      	ldr	r3, [r4, #8]
 8001f72:	ea89 0903 	eor.w	r9, r9, r3
    s3 ^= rk[3];
 8001f76:	68e3      	ldr	r3, [r4, #12]
 8001f78:	4058      	eors	r0, r3
                       ENC_ROUND_T_S( 0);
 8001f7a:	b2c2      	uxtb	r2, r0
 8001f7c:	4bf2      	ldr	r3, [pc, #968]	; (8002348 <wc_AesEncrypt+0x44c>)
 8001f7e:	ea4f 611e 	mov.w	r1, lr, lsr #24
 8001f82:	f502 7240 	add.w	r2, r2, #768	; 0x300
 8001f86:	f853 5021 	ldr.w	r5, [r3, r1, lsl #2]
 8001f8a:	f853 2022 	ldr.w	r2, [r3, r2, lsl #2]
 8001f8e:	4055      	eors	r5, r2
 8001f90:	6922      	ldr	r2, [r4, #16]
 8001f92:	4055      	eors	r5, r2
 8001f94:	f3cc 4207 	ubfx	r2, ip, #16, #8
 8001f98:	f502 7280 	add.w	r2, r2, #256	; 0x100
 8001f9c:	ea4f 611c 	mov.w	r1, ip, lsr #24
 8001fa0:	f853 2022 	ldr.w	r2, [r3, r2, lsl #2]
 8001fa4:	f853 1021 	ldr.w	r1, [r3, r1, lsl #2]
 8001fa8:	4055      	eors	r5, r2
 8001faa:	f3c9 2207 	ubfx	r2, r9, #8, #8
 8001fae:	f502 7200 	add.w	r2, r2, #512	; 0x200
 8001fb2:	ea4f 6619 	mov.w	r6, r9, lsr #24
 8001fb6:	f853 2022 	ldr.w	r2, [r3, r2, lsl #2]
 8001fba:	f853 6026 	ldr.w	r6, [r3, r6, lsl #2]
 8001fbe:	4055      	eors	r5, r2
 8001fc0:	fa5f f28e 	uxtb.w	r2, lr
 8001fc4:	f502 7240 	add.w	r2, r2, #768	; 0x300
    if (r > 5) {
 8001fc8:	2f05      	cmp	r7, #5
                       ENC_ROUND_T_S( 0);
 8001fca:	f853 2022 	ldr.w	r2, [r3, r2, lsl #2]
 8001fce:	ea81 0102 	eor.w	r1, r1, r2
 8001fd2:	6962      	ldr	r2, [r4, #20]
 8001fd4:	ea81 0102 	eor.w	r1, r1, r2
 8001fd8:	f3c9 4207 	ubfx	r2, r9, #16, #8
 8001fdc:	f502 7280 	add.w	r2, r2, #256	; 0x100
 8001fe0:	fa5f f989 	uxtb.w	r9, r9
 8001fe4:	f853 2022 	ldr.w	r2, [r3, r2, lsl #2]
 8001fe8:	ea81 0102 	eor.w	r1, r1, r2
 8001fec:	f3c0 2207 	ubfx	r2, r0, #8, #8
 8001ff0:	f502 7200 	add.w	r2, r2, #512	; 0x200
 8001ff4:	f509 7940 	add.w	r9, r9, #768	; 0x300
 8001ff8:	f853 2022 	ldr.w	r2, [r3, r2, lsl #2]
 8001ffc:	ea81 0102 	eor.w	r1, r1, r2
 8002000:	fa5f f28c 	uxtb.w	r2, ip
 8002004:	f502 7240 	add.w	r2, r2, #768	; 0x300
 8002008:	f3cc 2c07 	ubfx	ip, ip, #8, #8
 800200c:	f853 2022 	ldr.w	r2, [r3, r2, lsl #2]
 8002010:	ea86 0602 	eor.w	r6, r6, r2
 8002014:	69a2      	ldr	r2, [r4, #24]
 8002016:	ea86 0602 	eor.w	r6, r6, r2
 800201a:	f3c0 4207 	ubfx	r2, r0, #16, #8
 800201e:	f502 7280 	add.w	r2, r2, #256	; 0x100
 8002022:	ea4f 6010 	mov.w	r0, r0, lsr #24
 8002026:	f853 2022 	ldr.w	r2, [r3, r2, lsl #2]
 800202a:	ea86 0602 	eor.w	r6, r6, r2
 800202e:	f3ce 2207 	ubfx	r2, lr, #8, #8
 8002032:	f502 7200 	add.w	r2, r2, #512	; 0x200
 8002036:	f3ce 4e07 	ubfx	lr, lr, #16, #8
 800203a:	f853 2022 	ldr.w	r2, [r3, r2, lsl #2]
 800203e:	ea86 0602 	eor.w	r6, r6, r2
 8002042:	f853 2020 	ldr.w	r2, [r3, r0, lsl #2]
 8002046:	f853 0029 	ldr.w	r0, [r3, r9, lsl #2]
 800204a:	f50e 7e80 	add.w	lr, lr, #256	; 0x100
 800204e:	ea82 0900 	eor.w	r9, r2, r0
 8002052:	69e2      	ldr	r2, [r4, #28]
 8002054:	f50c 7c00 	add.w	ip, ip, #512	; 0x200
 8002058:	ea89 0902 	eor.w	r9, r9, r2
 800205c:	f853 202e 	ldr.w	r2, [r3, lr, lsl #2]
 8002060:	ea89 0902 	eor.w	r9, r9, r2
 8002064:	f853 202c 	ldr.w	r2, [r3, ip, lsl #2]
 8002068:	ea89 0902 	eor.w	r9, r9, r2
    ENC_ROUND_S_T( 8); ENC_ROUND_T_S( 8);
 800206c:	fa5f f089 	uxtb.w	r0, r9
 8002070:	ea4f 6215 	mov.w	r2, r5, lsr #24
 8002074:	f500 7040 	add.w	r0, r0, #768	; 0x300
 8002078:	f853 2022 	ldr.w	r2, [r3, r2, lsl #2]
 800207c:	f853 0020 	ldr.w	r0, [r3, r0, lsl #2]
 8002080:	ea82 0c00 	eor.w	ip, r2, r0
 8002084:	6a22      	ldr	r2, [r4, #32]
 8002086:	ea8c 0c02 	eor.w	ip, ip, r2
 800208a:	f3c1 4207 	ubfx	r2, r1, #16, #8
 800208e:	f502 7280 	add.w	r2, r2, #256	; 0x100
 8002092:	ea4f 6011 	mov.w	r0, r1, lsr #24
 8002096:	f853 2022 	ldr.w	r2, [r3, r2, lsl #2]
 800209a:	f853 0020 	ldr.w	r0, [r3, r0, lsl #2]
 800209e:	ea8c 0c02 	eor.w	ip, ip, r2
 80020a2:	f3c6 2207 	ubfx	r2, r6, #8, #8
 80020a6:	f502 7200 	add.w	r2, r2, #512	; 0x200
 80020aa:	fa5f fe81 	uxtb.w	lr, r1
 80020ae:	f853 2022 	ldr.w	r2, [r3, r2, lsl #2]
 80020b2:	ea8c 0c02 	eor.w	ip, ip, r2
 80020b6:	b2ea      	uxtb	r2, r5
 80020b8:	f502 7240 	add.w	r2, r2, #768	; 0x300
 80020bc:	f50e 7e40 	add.w	lr, lr, #768	; 0x300
 80020c0:	f853 2022 	ldr.w	r2, [r3, r2, lsl #2]
 80020c4:	f853 e02e 	ldr.w	lr, [r3, lr, lsl #2]
 80020c8:	ea80 0002 	eor.w	r0, r0, r2
 80020cc:	6a62      	ldr	r2, [r4, #36]	; 0x24
 80020ce:	ea80 0002 	eor.w	r0, r0, r2
 80020d2:	f3c6 4207 	ubfx	r2, r6, #16, #8
 80020d6:	f502 7280 	add.w	r2, r2, #256	; 0x100
 80020da:	f3c1 2107 	ubfx	r1, r1, #8, #8
 80020de:	f853 2022 	ldr.w	r2, [r3, r2, lsl #2]
 80020e2:	ea80 0002 	eor.w	r0, r0, r2
 80020e6:	f3c9 2207 	ubfx	r2, r9, #8, #8
 80020ea:	f502 7200 	add.w	r2, r2, #512	; 0x200
 80020ee:	f501 7100 	add.w	r1, r1, #512	; 0x200
 80020f2:	f853 2022 	ldr.w	r2, [r3, r2, lsl #2]
 80020f6:	ea80 0002 	eor.w	r0, r0, r2
 80020fa:	ea4f 6216 	mov.w	r2, r6, lsr #24
 80020fe:	b2f6      	uxtb	r6, r6
 8002100:	f853 2022 	ldr.w	r2, [r3, r2, lsl #2]
 8002104:	ea82 0e0e 	eor.w	lr, r2, lr
 8002108:	6aa2      	ldr	r2, [r4, #40]	; 0x28
 800210a:	ea8e 0e02 	eor.w	lr, lr, r2
 800210e:	f3c9 4207 	ubfx	r2, r9, #16, #8
 8002112:	f502 7280 	add.w	r2, r2, #256	; 0x100
 8002116:	ea4f 6919 	mov.w	r9, r9, lsr #24
 800211a:	f853 2022 	ldr.w	r2, [r3, r2, lsl #2]
 800211e:	ea8e 0e02 	eor.w	lr, lr, r2
 8002122:	f3c5 2207 	ubfx	r2, r5, #8, #8
 8002126:	f502 7200 	add.w	r2, r2, #512	; 0x200
 800212a:	f506 7640 	add.w	r6, r6, #768	; 0x300
 800212e:	f853 2022 	ldr.w	r2, [r3, r2, lsl #2]
 8002132:	f853 6026 	ldr.w	r6, [r3, r6, lsl #2]
 8002136:	ea8e 0e02 	eor.w	lr, lr, r2
 800213a:	f853 2029 	ldr.w	r2, [r3, r9, lsl #2]
 800213e:	f3c5 4507 	ubfx	r5, r5, #16, #8
 8002142:	ea82 0906 	eor.w	r9, r2, r6
 8002146:	f505 7580 	add.w	r5, r5, #256	; 0x100
 800214a:	6ae2      	ldr	r2, [r4, #44]	; 0x2c
 800214c:	ea89 0902 	eor.w	r9, r9, r2
 8002150:	f853 2025 	ldr.w	r2, [r3, r5, lsl #2]
 8002154:	ea89 0902 	eor.w	r9, r9, r2
 8002158:	f853 2021 	ldr.w	r2, [r3, r1, lsl #2]
 800215c:	ea89 0902 	eor.w	r9, r9, r2
 8002160:	fa5f f289 	uxtb.w	r2, r9
 8002164:	ea4f 611c 	mov.w	r1, ip, lsr #24
 8002168:	f502 7240 	add.w	r2, r2, #768	; 0x300
 800216c:	f853 5021 	ldr.w	r5, [r3, r1, lsl #2]
 8002170:	f853 1022 	ldr.w	r1, [r3, r2, lsl #2]
 8002174:	f3c0 4207 	ubfx	r2, r0, #16, #8
 8002178:	ea85 0501 	eor.w	r5, r5, r1
 800217c:	f502 7280 	add.w	r2, r2, #256	; 0x100
 8002180:	6b21      	ldr	r1, [r4, #48]	; 0x30
 8002182:	ea85 0501 	eor.w	r5, r5, r1
 8002186:	f853 1022 	ldr.w	r1, [r3, r2, lsl #2]
 800218a:	f3ce 2207 	ubfx	r2, lr, #8, #8
 800218e:	f502 7200 	add.w	r2, r2, #512	; 0x200
 8002192:	ea85 0501 	eor.w	r5, r5, r1
 8002196:	f853 2022 	ldr.w	r2, [r3, r2, lsl #2]
 800219a:	ea85 0502 	eor.w	r5, r5, r2
 800219e:	fa5f f28c 	uxtb.w	r2, ip
 80021a2:	ea4f 6110 	mov.w	r1, r0, lsr #24
 80021a6:	f502 7240 	add.w	r2, r2, #768	; 0x300
 80021aa:	f853 1021 	ldr.w	r1, [r3, r1, lsl #2]
 80021ae:	f853 2022 	ldr.w	r2, [r3, r2, lsl #2]
 80021b2:	ea81 0102 	eor.w	r1, r1, r2
 80021b6:	6b62      	ldr	r2, [r4, #52]	; 0x34
 80021b8:	ea81 0102 	eor.w	r1, r1, r2
 80021bc:	f3ce 4207 	ubfx	r2, lr, #16, #8
 80021c0:	f502 7280 	add.w	r2, r2, #256	; 0x100
 80021c4:	ea4f 661e 	mov.w	r6, lr, lsr #24
 80021c8:	f853 2022 	ldr.w	r2, [r3, r2, lsl #2]
 80021cc:	f853 6026 	ldr.w	r6, [r3, r6, lsl #2]
 80021d0:	ea81 0102 	eor.w	r1, r1, r2
 80021d4:	f3c9 2207 	ubfx	r2, r9, #8, #8
 80021d8:	f502 7200 	add.w	r2, r2, #512	; 0x200
 80021dc:	fa5f fe8e 	uxtb.w	lr, lr
 80021e0:	f853 2022 	ldr.w	r2, [r3, r2, lsl #2]
 80021e4:	ea81 0102 	eor.w	r1, r1, r2
 80021e8:	b2c2      	uxtb	r2, r0
 80021ea:	f502 7240 	add.w	r2, r2, #768	; 0x300
 80021ee:	f50e 7e40 	add.w	lr, lr, #768	; 0x300
 80021f2:	f853 2022 	ldr.w	r2, [r3, r2, lsl #2]
 80021f6:	ea86 0602 	eor.w	r6, r6, r2
 80021fa:	6ba2      	ldr	r2, [r4, #56]	; 0x38
 80021fc:	ea86 0602 	eor.w	r6, r6, r2
 8002200:	f3c9 4207 	ubfx	r2, r9, #16, #8
 8002204:	f502 7280 	add.w	r2, r2, #256	; 0x100
 8002208:	ea4f 6919 	mov.w	r9, r9, lsr #24
 800220c:	f853 2022 	ldr.w	r2, [r3, r2, lsl #2]
 8002210:	ea86 0602 	eor.w	r6, r6, r2
 8002214:	f3cc 2207 	ubfx	r2, ip, #8, #8
 8002218:	f502 7200 	add.w	r2, r2, #512	; 0x200
 800221c:	f3cc 4c07 	ubfx	ip, ip, #16, #8
 8002220:	f853 2022 	ldr.w	r2, [r3, r2, lsl #2]
 8002224:	ea86 0602 	eor.w	r6, r6, r2
 8002228:	f853 2029 	ldr.w	r2, [r3, r9, lsl #2]
 800222c:	f853 902e 	ldr.w	r9, [r3, lr, lsl #2]
 8002230:	f50c 7c80 	add.w	ip, ip, #256	; 0x100
 8002234:	ea82 0909 	eor.w	r9, r2, r9
 8002238:	6be2      	ldr	r2, [r4, #60]	; 0x3c
 800223a:	f3c0 2007 	ubfx	r0, r0, #8, #8
 800223e:	ea89 0902 	eor.w	r9, r9, r2
 8002242:	f500 7000 	add.w	r0, r0, #512	; 0x200
 8002246:	f853 202c 	ldr.w	r2, [r3, ip, lsl #2]
 800224a:	ea89 0902 	eor.w	r9, r9, r2
 800224e:	f853 2020 	ldr.w	r2, [r3, r0, lsl #2]
 8002252:	ea89 0902 	eor.w	r9, r9, r2
    ENC_ROUND_S_T(16); ENC_ROUND_T_S(16);
 8002256:	fa5f f289 	uxtb.w	r2, r9
 800225a:	ea4f 6015 	mov.w	r0, r5, lsr #24
 800225e:	f502 7240 	add.w	r2, r2, #768	; 0x300
 8002262:	f853 0020 	ldr.w	r0, [r3, r0, lsl #2]
 8002266:	f853 2022 	ldr.w	r2, [r3, r2, lsl #2]
 800226a:	ea80 0c02 	eor.w	ip, r0, r2
 800226e:	f3c1 4207 	ubfx	r2, r1, #16, #8
 8002272:	6c20      	ldr	r0, [r4, #64]	; 0x40
 8002274:	f502 7280 	add.w	r2, r2, #256	; 0x100
 8002278:	ea8c 0c00 	eor.w	ip, ip, r0
 800227c:	f853 0022 	ldr.w	r0, [r3, r2, lsl #2]
 8002280:	f3c6 2207 	ubfx	r2, r6, #8, #8
 8002284:	f502 7200 	add.w	r2, r2, #512	; 0x200
 8002288:	ea8c 0c00 	eor.w	ip, ip, r0
 800228c:	f853 2022 	ldr.w	r2, [r3, r2, lsl #2]
 8002290:	ea8c 0c02 	eor.w	ip, ip, r2
 8002294:	b2ea      	uxtb	r2, r5
 8002296:	ea4f 6011 	mov.w	r0, r1, lsr #24
 800229a:	f502 7240 	add.w	r2, r2, #768	; 0x300
 800229e:	f853 0020 	ldr.w	r0, [r3, r0, lsl #2]
 80022a2:	f853 2022 	ldr.w	r2, [r3, r2, lsl #2]
 80022a6:	ea80 0002 	eor.w	r0, r0, r2
 80022aa:	6c62      	ldr	r2, [r4, #68]	; 0x44
 80022ac:	ea80 0002 	eor.w	r0, r0, r2
 80022b0:	f3c6 4207 	ubfx	r2, r6, #16, #8
 80022b4:	f502 7280 	add.w	r2, r2, #256	; 0x100
 80022b8:	fa5f fe81 	uxtb.w	lr, r1
 80022bc:	f853 2022 	ldr.w	r2, [r3, r2, lsl #2]
 80022c0:	ea80 0002 	eor.w	r0, r0, r2
 80022c4:	f3c9 2207 	ubfx	r2, r9, #8, #8
 80022c8:	f502 7200 	add.w	r2, r2, #512	; 0x200
 80022cc:	f50e 7e40 	add.w	lr, lr, #768	; 0x300
 80022d0:	f853 2022 	ldr.w	r2, [r3, r2, lsl #2]
 80022d4:	f853 e02e 	ldr.w	lr, [r3, lr, lsl #2]
 80022d8:	ea80 0002 	eor.w	r0, r0, r2
 80022dc:	ea4f 6216 	mov.w	r2, r6, lsr #24
 80022e0:	b2f6      	uxtb	r6, r6
 80022e2:	f853 2022 	ldr.w	r2, [r3, r2, lsl #2]
 80022e6:	ea82 0e0e 	eor.w	lr, r2, lr
 80022ea:	6ca2      	ldr	r2, [r4, #72]	; 0x48
 80022ec:	ea8e 0e02 	eor.w	lr, lr, r2
 80022f0:	f3c9 4207 	ubfx	r2, r9, #16, #8
 80022f4:	f502 7280 	add.w	r2, r2, #256	; 0x100
 80022f8:	ea4f 6919 	mov.w	r9, r9, lsr #24
 80022fc:	f853 2022 	ldr.w	r2, [r3, r2, lsl #2]
 8002300:	ea8e 0e02 	eor.w	lr, lr, r2
 8002304:	f3c5 2207 	ubfx	r2, r5, #8, #8
 8002308:	f502 7200 	add.w	r2, r2, #512	; 0x200
 800230c:	f506 7640 	add.w	r6, r6, #768	; 0x300
 8002310:	f853 2022 	ldr.w	r2, [r3, r2, lsl #2]
 8002314:	f853 6026 	ldr.w	r6, [r3, r6, lsl #2]
 8002318:	ea8e 0e02 	eor.w	lr, lr, r2
 800231c:	f853 2029 	ldr.w	r2, [r3, r9, lsl #2]
 8002320:	f3c5 4507 	ubfx	r5, r5, #16, #8
 8002324:	ea82 0906 	eor.w	r9, r2, r6
 8002328:	f505 7580 	add.w	r5, r5, #256	; 0x100
 800232c:	6ce2      	ldr	r2, [r4, #76]	; 0x4c
 800232e:	f3c1 2107 	ubfx	r1, r1, #8, #8
 8002332:	ea89 0902 	eor.w	r9, r9, r2
 8002336:	f501 7100 	add.w	r1, r1, #512	; 0x200
 800233a:	f853 2025 	ldr.w	r2, [r3, r5, lsl #2]
 800233e:	ea89 0902 	eor.w	r9, r9, r2
 8002342:	f853 2021 	ldr.w	r2, [r3, r1, lsl #2]
 8002346:	e001      	b.n	800234c <wc_AesEncrypt+0x450>
 8002348:	08015f00 	.word	0x08015f00
 800234c:	ea89 0902 	eor.w	r9, r9, r2
 8002350:	fa5f f289 	uxtb.w	r2, r9
 8002354:	ea4f 611c 	mov.w	r1, ip, lsr #24
 8002358:	f502 7240 	add.w	r2, r2, #768	; 0x300
 800235c:	f853 5021 	ldr.w	r5, [r3, r1, lsl #2]
 8002360:	f853 1022 	ldr.w	r1, [r3, r2, lsl #2]
 8002364:	f3c0 4207 	ubfx	r2, r0, #16, #8
 8002368:	ea85 0501 	eor.w	r5, r5, r1
 800236c:	f502 7280 	add.w	r2, r2, #256	; 0x100
 8002370:	6d21      	ldr	r1, [r4, #80]	; 0x50
 8002372:	ea85 0501 	eor.w	r5, r5, r1
 8002376:	f853 1022 	ldr.w	r1, [r3, r2, lsl #2]
 800237a:	f3ce 2207 	ubfx	r2, lr, #8, #8
 800237e:	f502 7200 	add.w	r2, r2, #512	; 0x200
 8002382:	ea85 0501 	eor.w	r5, r5, r1
 8002386:	f853 2022 	ldr.w	r2, [r3, r2, lsl #2]
 800238a:	ea85 0502 	eor.w	r5, r5, r2
 800238e:	fa5f f28c 	uxtb.w	r2, ip
 8002392:	ea4f 6110 	mov.w	r1, r0, lsr #24
 8002396:	f502 7240 	add.w	r2, r2, #768	; 0x300
 800239a:	f853 1021 	ldr.w	r1, [r3, r1, lsl #2]
 800239e:	f853 2022 	ldr.w	r2, [r3, r2, lsl #2]
 80023a2:	ea81 0102 	eor.w	r1, r1, r2
 80023a6:	6d62      	ldr	r2, [r4, #84]	; 0x54
 80023a8:	ea81 0102 	eor.w	r1, r1, r2
 80023ac:	f3ce 4207 	ubfx	r2, lr, #16, #8
 80023b0:	f502 7280 	add.w	r2, r2, #256	; 0x100
 80023b4:	ea4f 661e 	mov.w	r6, lr, lsr #24
 80023b8:	f853 2022 	ldr.w	r2, [r3, r2, lsl #2]
 80023bc:	f853 6026 	ldr.w	r6, [r3, r6, lsl #2]
 80023c0:	ea81 0102 	eor.w	r1, r1, r2
 80023c4:	f3c9 2207 	ubfx	r2, r9, #8, #8
 80023c8:	f502 7200 	add.w	r2, r2, #512	; 0x200
 80023cc:	fa5f fe8e 	uxtb.w	lr, lr
 80023d0:	f853 2022 	ldr.w	r2, [r3, r2, lsl #2]
 80023d4:	ea81 0102 	eor.w	r1, r1, r2
 80023d8:	b2c2      	uxtb	r2, r0
 80023da:	f502 7240 	add.w	r2, r2, #768	; 0x300
 80023de:	f50e 7e40 	add.w	lr, lr, #768	; 0x300
 80023e2:	f853 2022 	ldr.w	r2, [r3, r2, lsl #2]
 80023e6:	ea86 0602 	eor.w	r6, r6, r2
 80023ea:	6da2      	ldr	r2, [r4, #88]	; 0x58
 80023ec:	ea86 0602 	eor.w	r6, r6, r2
 80023f0:	f3c9 4207 	ubfx	r2, r9, #16, #8
 80023f4:	f502 7280 	add.w	r2, r2, #256	; 0x100
 80023f8:	ea4f 6919 	mov.w	r9, r9, lsr #24
 80023fc:	f853 2022 	ldr.w	r2, [r3, r2, lsl #2]
 8002400:	ea86 0602 	eor.w	r6, r6, r2
 8002404:	f3cc 2207 	ubfx	r2, ip, #8, #8
 8002408:	f502 7200 	add.w	r2, r2, #512	; 0x200
 800240c:	f3cc 4c07 	ubfx	ip, ip, #16, #8
 8002410:	f853 2022 	ldr.w	r2, [r3, r2, lsl #2]
 8002414:	ea86 0602 	eor.w	r6, r6, r2
 8002418:	f853 2029 	ldr.w	r2, [r3, r9, lsl #2]
 800241c:	f853 902e 	ldr.w	r9, [r3, lr, lsl #2]
 8002420:	f50c 7c80 	add.w	ip, ip, #256	; 0x100
 8002424:	ea82 0909 	eor.w	r9, r2, r9
 8002428:	6de2      	ldr	r2, [r4, #92]	; 0x5c
 800242a:	f3c0 2007 	ubfx	r0, r0, #8, #8
 800242e:	ea89 0902 	eor.w	r9, r9, r2
 8002432:	f500 7000 	add.w	r0, r0, #512	; 0x200
 8002436:	f853 202c 	ldr.w	r2, [r3, ip, lsl #2]
 800243a:	ea89 0902 	eor.w	r9, r9, r2
 800243e:	f853 2020 	ldr.w	r2, [r3, r0, lsl #2]
 8002442:	ea89 0902 	eor.w	r9, r9, r2
    ENC_ROUND_S_T(24); ENC_ROUND_T_S(24);
 8002446:	fa5f f289 	uxtb.w	r2, r9
 800244a:	ea4f 6015 	mov.w	r0, r5, lsr #24
 800244e:	f502 7240 	add.w	r2, r2, #768	; 0x300
 8002452:	f853 0020 	ldr.w	r0, [r3, r0, lsl #2]
 8002456:	f853 2022 	ldr.w	r2, [r3, r2, lsl #2]
 800245a:	ea80 0c02 	eor.w	ip, r0, r2
 800245e:	f3c1 4207 	ubfx	r2, r1, #16, #8
 8002462:	6e20      	ldr	r0, [r4, #96]	; 0x60
 8002464:	f502 7280 	add.w	r2, r2, #256	; 0x100
 8002468:	ea8c 0c00 	eor.w	ip, ip, r0
 800246c:	f853 0022 	ldr.w	r0, [r3, r2, lsl #2]
 8002470:	f3c6 2207 	ubfx	r2, r6, #8, #8
 8002474:	f502 7200 	add.w	r2, r2, #512	; 0x200
 8002478:	ea8c 0c00 	eor.w	ip, ip, r0
 800247c:	f853 2022 	ldr.w	r2, [r3, r2, lsl #2]
 8002480:	ea8c 0c02 	eor.w	ip, ip, r2
 8002484:	b2ea      	uxtb	r2, r5
 8002486:	ea4f 6011 	mov.w	r0, r1, lsr #24
 800248a:	f502 7240 	add.w	r2, r2, #768	; 0x300
 800248e:	f853 0020 	ldr.w	r0, [r3, r0, lsl #2]
 8002492:	f853 2022 	ldr.w	r2, [r3, r2, lsl #2]
 8002496:	ea80 0002 	eor.w	r0, r0, r2
 800249a:	6e62      	ldr	r2, [r4, #100]	; 0x64
 800249c:	ea80 0002 	eor.w	r0, r0, r2
 80024a0:	f3c6 4207 	ubfx	r2, r6, #16, #8
 80024a4:	f502 7280 	add.w	r2, r2, #256	; 0x100
 80024a8:	fa5f fe81 	uxtb.w	lr, r1
 80024ac:	f853 2022 	ldr.w	r2, [r3, r2, lsl #2]
 80024b0:	ea80 0002 	eor.w	r0, r0, r2
 80024b4:	f3c9 2207 	ubfx	r2, r9, #8, #8
 80024b8:	f502 7200 	add.w	r2, r2, #512	; 0x200
 80024bc:	f50e 7e40 	add.w	lr, lr, #768	; 0x300
 80024c0:	f853 2022 	ldr.w	r2, [r3, r2, lsl #2]
 80024c4:	f853 e02e 	ldr.w	lr, [r3, lr, lsl #2]
 80024c8:	ea80 0002 	eor.w	r0, r0, r2
 80024cc:	ea4f 6216 	mov.w	r2, r6, lsr #24
 80024d0:	b2f6      	uxtb	r6, r6
 80024d2:	f853 2022 	ldr.w	r2, [r3, r2, lsl #2]
 80024d6:	ea82 0e0e 	eor.w	lr, r2, lr
 80024da:	6ea2      	ldr	r2, [r4, #104]	; 0x68
 80024dc:	ea8e 0e02 	eor.w	lr, lr, r2
 80024e0:	f3c9 4207 	ubfx	r2, r9, #16, #8
 80024e4:	f502 7280 	add.w	r2, r2, #256	; 0x100
 80024e8:	ea4f 6919 	mov.w	r9, r9, lsr #24
 80024ec:	f853 2022 	ldr.w	r2, [r3, r2, lsl #2]
 80024f0:	ea8e 0e02 	eor.w	lr, lr, r2
 80024f4:	f3c5 2207 	ubfx	r2, r5, #8, #8
 80024f8:	f502 7200 	add.w	r2, r2, #512	; 0x200
 80024fc:	f506 7640 	add.w	r6, r6, #768	; 0x300
 8002500:	f853 2022 	ldr.w	r2, [r3, r2, lsl #2]
 8002504:	ea8e 0e02 	eor.w	lr, lr, r2
 8002508:	f853 2029 	ldr.w	r2, [r3, r9, lsl #2]
 800250c:	f853 6026 	ldr.w	r6, [r3, r6, lsl #2]
 8002510:	f3c5 4507 	ubfx	r5, r5, #16, #8
 8002514:	ea82 0906 	eor.w	r9, r2, r6
 8002518:	f505 7580 	add.w	r5, r5, #256	; 0x100
 800251c:	6ee2      	ldr	r2, [r4, #108]	; 0x6c
 800251e:	f3c1 2107 	ubfx	r1, r1, #8, #8
 8002522:	ea89 0902 	eor.w	r9, r9, r2
 8002526:	f501 7100 	add.w	r1, r1, #512	; 0x200
 800252a:	f853 2025 	ldr.w	r2, [r3, r5, lsl #2]
 800252e:	ea89 0902 	eor.w	r9, r9, r2
 8002532:	f853 2021 	ldr.w	r2, [r3, r1, lsl #2]
 8002536:	ea89 0902 	eor.w	r9, r9, r2
 800253a:	fa5f f289 	uxtb.w	r2, r9
 800253e:	ea4f 611c 	mov.w	r1, ip, lsr #24
 8002542:	f502 7240 	add.w	r2, r2, #768	; 0x300
 8002546:	f853 5021 	ldr.w	r5, [r3, r1, lsl #2]
 800254a:	f853 1022 	ldr.w	r1, [r3, r2, lsl #2]
 800254e:	f3c0 4207 	ubfx	r2, r0, #16, #8
 8002552:	ea85 0501 	eor.w	r5, r5, r1
 8002556:	f502 7280 	add.w	r2, r2, #256	; 0x100
 800255a:	6f21      	ldr	r1, [r4, #112]	; 0x70
 800255c:	ea85 0501 	eor.w	r5, r5, r1
 8002560:	f853 1022 	ldr.w	r1, [r3, r2, lsl #2]
 8002564:	f3ce 2207 	ubfx	r2, lr, #8, #8
 8002568:	f502 7200 	add.w	r2, r2, #512	; 0x200
 800256c:	ea85 0501 	eor.w	r5, r5, r1
 8002570:	f853 2022 	ldr.w	r2, [r3, r2, lsl #2]
 8002574:	ea85 0502 	eor.w	r5, r5, r2
 8002578:	fa5f f28c 	uxtb.w	r2, ip
 800257c:	ea4f 6110 	mov.w	r1, r0, lsr #24
 8002580:	f502 7240 	add.w	r2, r2, #768	; 0x300
 8002584:	f853 1021 	ldr.w	r1, [r3, r1, lsl #2]
 8002588:	f853 2022 	ldr.w	r2, [r3, r2, lsl #2]
 800258c:	ea81 0102 	eor.w	r1, r1, r2
 8002590:	6f62      	ldr	r2, [r4, #116]	; 0x74
 8002592:	ea81 0102 	eor.w	r1, r1, r2
 8002596:	f3ce 4207 	ubfx	r2, lr, #16, #8
 800259a:	f502 7280 	add.w	r2, r2, #256	; 0x100
 800259e:	ea4f 661e 	mov.w	r6, lr, lsr #24
 80025a2:	f853 2022 	ldr.w	r2, [r3, r2, lsl #2]
 80025a6:	f853 6026 	ldr.w	r6, [r3, r6, lsl #2]
 80025aa:	ea81 0102 	eor.w	r1, r1, r2
 80025ae:	f3c9 2207 	ubfx	r2, r9, #8, #8
 80025b2:	f502 7200 	add.w	r2, r2, #512	; 0x200
 80025b6:	fa5f fe8e 	uxtb.w	lr, lr
 80025ba:	f853 2022 	ldr.w	r2, [r3, r2, lsl #2]
 80025be:	ea81 0102 	eor.w	r1, r1, r2
 80025c2:	b2c2      	uxtb	r2, r0
 80025c4:	f502 7240 	add.w	r2, r2, #768	; 0x300
 80025c8:	f50e 7e40 	add.w	lr, lr, #768	; 0x300
 80025cc:	f853 2022 	ldr.w	r2, [r3, r2, lsl #2]
 80025d0:	ea86 0602 	eor.w	r6, r6, r2
 80025d4:	6fa2      	ldr	r2, [r4, #120]	; 0x78
 80025d6:	ea86 0602 	eor.w	r6, r6, r2
 80025da:	f3c9 4207 	ubfx	r2, r9, #16, #8
 80025de:	f502 7280 	add.w	r2, r2, #256	; 0x100
 80025e2:	ea4f 6919 	mov.w	r9, r9, lsr #24
 80025e6:	f853 2022 	ldr.w	r2, [r3, r2, lsl #2]
 80025ea:	ea86 0602 	eor.w	r6, r6, r2
 80025ee:	f3cc 2207 	ubfx	r2, ip, #8, #8
 80025f2:	f502 7200 	add.w	r2, r2, #512	; 0x200
 80025f6:	f3cc 4c07 	ubfx	ip, ip, #16, #8
 80025fa:	f853 2022 	ldr.w	r2, [r3, r2, lsl #2]
 80025fe:	ea86 0602 	eor.w	r6, r6, r2
 8002602:	f853 2029 	ldr.w	r2, [r3, r9, lsl #2]
 8002606:	f853 902e 	ldr.w	r9, [r3, lr, lsl #2]
 800260a:	f50c 7c80 	add.w	ip, ip, #256	; 0x100
 800260e:	ea82 0909 	eor.w	r9, r2, r9
 8002612:	6fe2      	ldr	r2, [r4, #124]	; 0x7c
 8002614:	f3c0 2007 	ubfx	r0, r0, #8, #8
 8002618:	ea89 0902 	eor.w	r9, r9, r2
 800261c:	f500 7000 	add.w	r0, r0, #512	; 0x200
 8002620:	f853 202c 	ldr.w	r2, [r3, ip, lsl #2]
 8002624:	ea89 0902 	eor.w	r9, r9, r2
 8002628:	f853 2020 	ldr.w	r2, [r3, r0, lsl #2]
 800262c:	ea89 0902 	eor.w	r9, r9, r2
    ENC_ROUND_S_T(32); ENC_ROUND_T_S(32);
 8002630:	fa5f f289 	uxtb.w	r2, r9
 8002634:	ea4f 6015 	mov.w	r0, r5, lsr #24
 8002638:	f502 7240 	add.w	r2, r2, #768	; 0x300
 800263c:	f853 0020 	ldr.w	r0, [r3, r0, lsl #2]
 8002640:	f853 2022 	ldr.w	r2, [r3, r2, lsl #2]
 8002644:	ea80 0e02 	eor.w	lr, r0, r2
 8002648:	f3c1 4207 	ubfx	r2, r1, #16, #8
 800264c:	f8d4 0080 	ldr.w	r0, [r4, #128]	; 0x80
 8002650:	f502 7280 	add.w	r2, r2, #256	; 0x100
 8002654:	ea8e 0e00 	eor.w	lr, lr, r0
 8002658:	f853 0022 	ldr.w	r0, [r3, r2, lsl #2]
 800265c:	f3c6 2207 	ubfx	r2, r6, #8, #8
 8002660:	f502 7200 	add.w	r2, r2, #512	; 0x200
 8002664:	ea8e 0e00 	eor.w	lr, lr, r0
 8002668:	f853 2022 	ldr.w	r2, [r3, r2, lsl #2]
 800266c:	ea8e 0e02 	eor.w	lr, lr, r2
 8002670:	b2ea      	uxtb	r2, r5
 8002672:	ea4f 6011 	mov.w	r0, r1, lsr #24
 8002676:	f502 7240 	add.w	r2, r2, #768	; 0x300
 800267a:	f853 0020 	ldr.w	r0, [r3, r0, lsl #2]
 800267e:	f853 2022 	ldr.w	r2, [r3, r2, lsl #2]
 8002682:	ea80 0002 	eor.w	r0, r0, r2
 8002686:	f8d4 2084 	ldr.w	r2, [r4, #132]	; 0x84
 800268a:	ea80 0002 	eor.w	r0, r0, r2
 800268e:	f3c6 4207 	ubfx	r2, r6, #16, #8
 8002692:	f502 7280 	add.w	r2, r2, #256	; 0x100
 8002696:	fa5f fc81 	uxtb.w	ip, r1
 800269a:	f853 2022 	ldr.w	r2, [r3, r2, lsl #2]
 800269e:	ea80 0002 	eor.w	r0, r0, r2
 80026a2:	f3c9 2207 	ubfx	r2, r9, #8, #8
 80026a6:	f502 7200 	add.w	r2, r2, #512	; 0x200
 80026aa:	f50c 7c40 	add.w	ip, ip, #768	; 0x300
 80026ae:	f853 2022 	ldr.w	r2, [r3, r2, lsl #2]
 80026b2:	f853 c02c 	ldr.w	ip, [r3, ip, lsl #2]
 80026b6:	ea80 0002 	eor.w	r0, r0, r2
 80026ba:	ea4f 6216 	mov.w	r2, r6, lsr #24
 80026be:	b2f6      	uxtb	r6, r6
 80026c0:	f853 2022 	ldr.w	r2, [r3, r2, lsl #2]
 80026c4:	ea82 0c0c 	eor.w	ip, r2, ip
 80026c8:	f8d4 2088 	ldr.w	r2, [r4, #136]	; 0x88
 80026cc:	ea8c 0c02 	eor.w	ip, ip, r2
 80026d0:	f3c9 4207 	ubfx	r2, r9, #16, #8
 80026d4:	f502 7280 	add.w	r2, r2, #256	; 0x100
 80026d8:	ea4f 6919 	mov.w	r9, r9, lsr #24
 80026dc:	f853 2022 	ldr.w	r2, [r3, r2, lsl #2]
 80026e0:	ea8c 0c02 	eor.w	ip, ip, r2
 80026e4:	f3c5 2207 	ubfx	r2, r5, #8, #8
 80026e8:	f502 7200 	add.w	r2, r2, #512	; 0x200
 80026ec:	f506 7640 	add.w	r6, r6, #768	; 0x300
 80026f0:	f853 2022 	ldr.w	r2, [r3, r2, lsl #2]
 80026f4:	f853 6026 	ldr.w	r6, [r3, r6, lsl #2]
 80026f8:	ea8c 0c02 	eor.w	ip, ip, r2
 80026fc:	f853 2029 	ldr.w	r2, [r3, r9, lsl #2]
 8002700:	f3c5 4507 	ubfx	r5, r5, #16, #8
 8002704:	ea82 0906 	eor.w	r9, r2, r6
 8002708:	f505 7580 	add.w	r5, r5, #256	; 0x100
 800270c:	f8d4 208c 	ldr.w	r2, [r4, #140]	; 0x8c
 8002710:	f3c1 2107 	ubfx	r1, r1, #8, #8
 8002714:	ea89 0902 	eor.w	r9, r9, r2
 8002718:	f501 7100 	add.w	r1, r1, #512	; 0x200
 800271c:	f853 2025 	ldr.w	r2, [r3, r5, lsl #2]
 8002720:	ea89 0902 	eor.w	r9, r9, r2
 8002724:	f853 2021 	ldr.w	r2, [r3, r1, lsl #2]
 8002728:	ea89 0902 	eor.w	r9, r9, r2
 800272c:	fa5f f289 	uxtb.w	r2, r9
 8002730:	ea4f 611e 	mov.w	r1, lr, lsr #24
 8002734:	f502 7240 	add.w	r2, r2, #768	; 0x300
 8002738:	f853 1021 	ldr.w	r1, [r3, r1, lsl #2]
 800273c:	f853 2022 	ldr.w	r2, [r3, r2, lsl #2]
 8002740:	ea82 0201 	eor.w	r2, r2, r1
 8002744:	f8d4 1090 	ldr.w	r1, [r4, #144]	; 0x90
 8002748:	ea81 0102 	eor.w	r1, r1, r2
 800274c:	f3c0 4207 	ubfx	r2, r0, #16, #8
 8002750:	f502 7280 	add.w	r2, r2, #256	; 0x100
 8002754:	ea4f 6510 	mov.w	r5, r0, lsr #24
 8002758:	f853 2022 	ldr.w	r2, [r3, r2, lsl #2]
 800275c:	f853 5025 	ldr.w	r5, [r3, r5, lsl #2]
 8002760:	ea81 0102 	eor.w	r1, r1, r2
 8002764:	f3cc 2207 	ubfx	r2, ip, #8, #8
 8002768:	f502 7200 	add.w	r2, r2, #512	; 0x200
 800276c:	ea4f 661c 	mov.w	r6, ip, lsr #24
 8002770:	f853 2022 	ldr.w	r2, [r3, r2, lsl #2]
 8002774:	f853 6026 	ldr.w	r6, [r3, r6, lsl #2]
 8002778:	ea81 0102 	eor.w	r1, r1, r2
 800277c:	fa5f f28e 	uxtb.w	r2, lr
 8002780:	f502 7240 	add.w	r2, r2, #768	; 0x300
 8002784:	f853 2022 	ldr.w	r2, [r3, r2, lsl #2]
 8002788:	ea85 0502 	eor.w	r5, r5, r2
 800278c:	f8d4 2094 	ldr.w	r2, [r4, #148]	; 0x94
 8002790:	ea85 0502 	eor.w	r5, r5, r2
 8002794:	f3cc 4207 	ubfx	r2, ip, #16, #8
 8002798:	f502 7280 	add.w	r2, r2, #256	; 0x100
 800279c:	fa5f fc8c 	uxtb.w	ip, ip
 80027a0:	f853 2022 	ldr.w	r2, [r3, r2, lsl #2]
 80027a4:	ea85 0502 	eor.w	r5, r5, r2
 80027a8:	f3c9 2207 	ubfx	r2, r9, #8, #8
 80027ac:	f502 7200 	add.w	r2, r2, #512	; 0x200
 80027b0:	f50c 7c40 	add.w	ip, ip, #768	; 0x300
 80027b4:	f853 2022 	ldr.w	r2, [r3, r2, lsl #2]
 80027b8:	f853 c02c 	ldr.w	ip, [r3, ip, lsl #2]
 80027bc:	ea85 0502 	eor.w	r5, r5, r2
 80027c0:	b2c2      	uxtb	r2, r0
 80027c2:	f502 7240 	add.w	r2, r2, #768	; 0x300
 80027c6:	f3c0 2007 	ubfx	r0, r0, #8, #8
 80027ca:	f853 2022 	ldr.w	r2, [r3, r2, lsl #2]
 80027ce:	ea86 0602 	eor.w	r6, r6, r2
 80027d2:	f8d4 2098 	ldr.w	r2, [r4, #152]	; 0x98
 80027d6:	ea86 0602 	eor.w	r6, r6, r2
 80027da:	f3c9 4207 	ubfx	r2, r9, #16, #8
 80027de:	f502 7280 	add.w	r2, r2, #256	; 0x100
 80027e2:	ea4f 6919 	mov.w	r9, r9, lsr #24
 80027e6:	f853 2022 	ldr.w	r2, [r3, r2, lsl #2]
 80027ea:	ea86 0602 	eor.w	r6, r6, r2
 80027ee:	f3ce 2207 	ubfx	r2, lr, #8, #8
 80027f2:	f502 7200 	add.w	r2, r2, #512	; 0x200
 80027f6:	f3ce 4e07 	ubfx	lr, lr, #16, #8
 80027fa:	f853 2022 	ldr.w	r2, [r3, r2, lsl #2]
 80027fe:	ea86 0602 	eor.w	r6, r6, r2
 8002802:	f853 2029 	ldr.w	r2, [r3, r9, lsl #2]
 8002806:	f50e 7e80 	add.w	lr, lr, #256	; 0x100
 800280a:	ea82 0c0c 	eor.w	ip, r2, ip
 800280e:	f8d4 209c 	ldr.w	r2, [r4, #156]	; 0x9c
 8002812:	f500 7000 	add.w	r0, r0, #512	; 0x200
 8002816:	ea8c 0c02 	eor.w	ip, ip, r2
 800281a:	f853 202e 	ldr.w	r2, [r3, lr, lsl #2]
 800281e:	ea8c 0c02 	eor.w	ip, ip, r2
 8002822:	f853 2020 	ldr.w	r2, [r3, r0, lsl #2]
 8002826:	ea8c 0c02 	eor.w	ip, ip, r2
    if (r > 5) {
 800282a:	f240 81e5 	bls.w	8002bf8 <wc_AesEncrypt+0xcfc>
        ENC_ROUND_S_T(40); ENC_ROUND_T_S(40);
 800282e:	fa5f f08c 	uxtb.w	r0, ip
 8002832:	0e0a      	lsrs	r2, r1, #24
 8002834:	f500 7040 	add.w	r0, r0, #768	; 0x300
 8002838:	f853 2022 	ldr.w	r2, [r3, r2, lsl #2]
 800283c:	f853 0020 	ldr.w	r0, [r3, r0, lsl #2]
 8002840:	ea82 0e00 	eor.w	lr, r2, r0
 8002844:	f8d4 20a0 	ldr.w	r2, [r4, #160]	; 0xa0
 8002848:	ea8e 0e02 	eor.w	lr, lr, r2
 800284c:	f3c5 4207 	ubfx	r2, r5, #16, #8
 8002850:	f502 7280 	add.w	r2, r2, #256	; 0x100
 8002854:	b2c8      	uxtb	r0, r1
 8002856:	f853 2022 	ldr.w	r2, [r3, r2, lsl #2]
 800285a:	ea8e 0e02 	eor.w	lr, lr, r2
 800285e:	f3c6 2207 	ubfx	r2, r6, #8, #8
 8002862:	f502 7200 	add.w	r2, r2, #512	; 0x200
 8002866:	f500 7040 	add.w	r0, r0, #768	; 0x300
 800286a:	f853 2022 	ldr.w	r2, [r3, r2, lsl #2]
 800286e:	f853 0020 	ldr.w	r0, [r3, r0, lsl #2]
 8002872:	ea8e 0e02 	eor.w	lr, lr, r2
 8002876:	0e2a      	lsrs	r2, r5, #24
        if (r > 6) {
 8002878:	2f07      	cmp	r7, #7
        ENC_ROUND_S_T(40); ENC_ROUND_T_S(40);
 800287a:	f853 2022 	ldr.w	r2, [r3, r2, lsl #2]
 800287e:	ea82 0900 	eor.w	r9, r2, r0
 8002882:	f8d4 20a4 	ldr.w	r2, [r4, #164]	; 0xa4
 8002886:	ea89 0902 	eor.w	r9, r9, r2
 800288a:	f3c6 4207 	ubfx	r2, r6, #16, #8
 800288e:	f502 7280 	add.w	r2, r2, #256	; 0x100
 8002892:	b2e8      	uxtb	r0, r5
 8002894:	f853 2022 	ldr.w	r2, [r3, r2, lsl #2]
 8002898:	ea89 0902 	eor.w	r9, r9, r2
 800289c:	f3cc 2207 	ubfx	r2, ip, #8, #8
 80028a0:	f502 7200 	add.w	r2, r2, #512	; 0x200
 80028a4:	f500 7040 	add.w	r0, r0, #768	; 0x300
 80028a8:	f853 2022 	ldr.w	r2, [r3, r2, lsl #2]
 80028ac:	f853 0020 	ldr.w	r0, [r3, r0, lsl #2]
 80028b0:	ea89 0902 	eor.w	r9, r9, r2
 80028b4:	ea4f 6216 	mov.w	r2, r6, lsr #24
 80028b8:	b2f6      	uxtb	r6, r6
 80028ba:	f853 2022 	ldr.w	r2, [r3, r2, lsl #2]
 80028be:	ea80 0002 	eor.w	r0, r0, r2
 80028c2:	f8d4 20a8 	ldr.w	r2, [r4, #168]	; 0xa8
 80028c6:	ea82 0200 	eor.w	r2, r2, r0
 80028ca:	f3cc 4007 	ubfx	r0, ip, #16, #8
 80028ce:	f500 7080 	add.w	r0, r0, #256	; 0x100
 80028d2:	ea4f 6c1c 	mov.w	ip, ip, lsr #24
 80028d6:	f853 0020 	ldr.w	r0, [r3, r0, lsl #2]
 80028da:	ea82 0200 	eor.w	r2, r2, r0
 80028de:	f3c1 2007 	ubfx	r0, r1, #8, #8
 80028e2:	f500 7000 	add.w	r0, r0, #512	; 0x200
 80028e6:	f506 7640 	add.w	r6, r6, #768	; 0x300
 80028ea:	f853 0020 	ldr.w	r0, [r3, r0, lsl #2]
 80028ee:	f853 6026 	ldr.w	r6, [r3, r6, lsl #2]
 80028f2:	ea82 0200 	eor.w	r2, r2, r0
 80028f6:	f853 002c 	ldr.w	r0, [r3, ip, lsl #2]
 80028fa:	f3c1 4107 	ubfx	r1, r1, #16, #8
 80028fe:	ea80 0c06 	eor.w	ip, r0, r6
 8002902:	f501 7180 	add.w	r1, r1, #256	; 0x100
 8002906:	f8d4 00ac 	ldr.w	r0, [r4, #172]	; 0xac
 800290a:	f3c5 2507 	ubfx	r5, r5, #8, #8
 800290e:	ea8c 0c00 	eor.w	ip, ip, r0
 8002912:	f505 7500 	add.w	r5, r5, #512	; 0x200
 8002916:	f853 0021 	ldr.w	r0, [r3, r1, lsl #2]
 800291a:	ea8c 0c00 	eor.w	ip, ip, r0
 800291e:	f853 0025 	ldr.w	r0, [r3, r5, lsl #2]
 8002922:	ea8c 0c00 	eor.w	ip, ip, r0
 8002926:	fa5f f08c 	uxtb.w	r0, ip
 800292a:	ea4f 611e 	mov.w	r1, lr, lsr #24
 800292e:	f500 7040 	add.w	r0, r0, #768	; 0x300
 8002932:	f853 1021 	ldr.w	r1, [r3, r1, lsl #2]
 8002936:	f853 0020 	ldr.w	r0, [r3, r0, lsl #2]
 800293a:	ea80 0001 	eor.w	r0, r0, r1
 800293e:	f8d4 10b0 	ldr.w	r1, [r4, #176]	; 0xb0
 8002942:	ea81 0100 	eor.w	r1, r1, r0
 8002946:	f3c9 4007 	ubfx	r0, r9, #16, #8
 800294a:	f500 7080 	add.w	r0, r0, #256	; 0x100
 800294e:	ea4f 6519 	mov.w	r5, r9, lsr #24
 8002952:	f853 0020 	ldr.w	r0, [r3, r0, lsl #2]
 8002956:	f853 5025 	ldr.w	r5, [r3, r5, lsl #2]
 800295a:	ea81 0100 	eor.w	r1, r1, r0
 800295e:	f3c2 2007 	ubfx	r0, r2, #8, #8
 8002962:	f500 7000 	add.w	r0, r0, #512	; 0x200
 8002966:	ea4f 6612 	mov.w	r6, r2, lsr #24
 800296a:	f853 0020 	ldr.w	r0, [r3, r0, lsl #2]
 800296e:	f853 6026 	ldr.w	r6, [r3, r6, lsl #2]
 8002972:	ea81 0100 	eor.w	r1, r1, r0
 8002976:	fa5f f08e 	uxtb.w	r0, lr
 800297a:	f500 7040 	add.w	r0, r0, #768	; 0x300
 800297e:	f853 0020 	ldr.w	r0, [r3, r0, lsl #2]
 8002982:	ea80 0005 	eor.w	r0, r0, r5
 8002986:	f8d4 50b4 	ldr.w	r5, [r4, #180]	; 0xb4
 800298a:	ea85 0500 	eor.w	r5, r5, r0
 800298e:	f3c2 4007 	ubfx	r0, r2, #16, #8
 8002992:	f500 7080 	add.w	r0, r0, #256	; 0x100
 8002996:	b2d2      	uxtb	r2, r2
 8002998:	f853 0020 	ldr.w	r0, [r3, r0, lsl #2]
 800299c:	ea85 0500 	eor.w	r5, r5, r0
 80029a0:	f3cc 2007 	ubfx	r0, ip, #8, #8
 80029a4:	f500 7000 	add.w	r0, r0, #512	; 0x200
 80029a8:	f502 7240 	add.w	r2, r2, #768	; 0x300
 80029ac:	f853 0020 	ldr.w	r0, [r3, r0, lsl #2]
 80029b0:	ea85 0500 	eor.w	r5, r5, r0
 80029b4:	fa5f f089 	uxtb.w	r0, r9
 80029b8:	f500 7040 	add.w	r0, r0, #768	; 0x300
 80029bc:	f3c9 2907 	ubfx	r9, r9, #8, #8
 80029c0:	f853 0020 	ldr.w	r0, [r3, r0, lsl #2]
 80029c4:	ea86 0600 	eor.w	r6, r6, r0
 80029c8:	f8d4 00b8 	ldr.w	r0, [r4, #184]	; 0xb8
 80029cc:	f853 2022 	ldr.w	r2, [r3, r2, lsl #2]
 80029d0:	ea86 0600 	eor.w	r6, r6, r0
 80029d4:	f3cc 4007 	ubfx	r0, ip, #16, #8
 80029d8:	f500 7080 	add.w	r0, r0, #256	; 0x100
 80029dc:	ea4f 6c1c 	mov.w	ip, ip, lsr #24
 80029e0:	f853 0020 	ldr.w	r0, [r3, r0, lsl #2]
 80029e4:	ea86 0600 	eor.w	r6, r6, r0
 80029e8:	f3ce 2007 	ubfx	r0, lr, #8, #8
 80029ec:	f500 7000 	add.w	r0, r0, #512	; 0x200
 80029f0:	f3ce 4e07 	ubfx	lr, lr, #16, #8
 80029f4:	f853 0020 	ldr.w	r0, [r3, r0, lsl #2]
 80029f8:	ea86 0600 	eor.w	r6, r6, r0
 80029fc:	f853 002c 	ldr.w	r0, [r3, ip, lsl #2]
 8002a00:	f50e 7e80 	add.w	lr, lr, #256	; 0x100
 8002a04:	ea80 0c02 	eor.w	ip, r0, r2
 8002a08:	f8d4 00bc 	ldr.w	r0, [r4, #188]	; 0xbc
 8002a0c:	f509 7900 	add.w	r9, r9, #512	; 0x200
 8002a10:	ea8c 0c00 	eor.w	ip, ip, r0
 8002a14:	f853 002e 	ldr.w	r0, [r3, lr, lsl #2]
 8002a18:	f853 2029 	ldr.w	r2, [r3, r9, lsl #2]
 8002a1c:	ea8c 0c00 	eor.w	ip, ip, r0
 8002a20:	ea8c 0c02 	eor.w	ip, ip, r2
        if (r > 6) {
 8002a24:	f040 80e8 	bne.w	8002bf8 <wc_AesEncrypt+0xcfc>
            ENC_ROUND_S_T(48); ENC_ROUND_T_S(48);
 8002a28:	fa5f f08c 	uxtb.w	r0, ip
 8002a2c:	0e0a      	lsrs	r2, r1, #24
 8002a2e:	f500 7040 	add.w	r0, r0, #768	; 0x300
 8002a32:	f853 2022 	ldr.w	r2, [r3, r2, lsl #2]
 8002a36:	f853 0020 	ldr.w	r0, [r3, r0, lsl #2]
 8002a3a:	ea82 0e00 	eor.w	lr, r2, r0
 8002a3e:	f8d4 20c0 	ldr.w	r2, [r4, #192]	; 0xc0
 8002a42:	ea8e 0e02 	eor.w	lr, lr, r2
 8002a46:	f3c5 4207 	ubfx	r2, r5, #16, #8
 8002a4a:	f502 7280 	add.w	r2, r2, #256	; 0x100
 8002a4e:	b2c8      	uxtb	r0, r1
 8002a50:	f853 2022 	ldr.w	r2, [r3, r2, lsl #2]
 8002a54:	ea8e 0e02 	eor.w	lr, lr, r2
 8002a58:	f3c6 2207 	ubfx	r2, r6, #8, #8
 8002a5c:	f502 7200 	add.w	r2, r2, #512	; 0x200
 8002a60:	f500 7040 	add.w	r0, r0, #768	; 0x300
 8002a64:	f853 2022 	ldr.w	r2, [r3, r2, lsl #2]
 8002a68:	f853 0020 	ldr.w	r0, [r3, r0, lsl #2]
 8002a6c:	ea8e 0e02 	eor.w	lr, lr, r2
 8002a70:	0e2a      	lsrs	r2, r5, #24
 8002a72:	f853 2022 	ldr.w	r2, [r3, r2, lsl #2]
 8002a76:	ea82 0900 	eor.w	r9, r2, r0
 8002a7a:	f8d4 20c4 	ldr.w	r2, [r4, #196]	; 0xc4
 8002a7e:	ea89 0902 	eor.w	r9, r9, r2
 8002a82:	f3c6 4207 	ubfx	r2, r6, #16, #8
 8002a86:	f502 7280 	add.w	r2, r2, #256	; 0x100
 8002a8a:	b2e8      	uxtb	r0, r5
 8002a8c:	f853 2022 	ldr.w	r2, [r3, r2, lsl #2]
 8002a90:	ea89 0902 	eor.w	r9, r9, r2
 8002a94:	f3cc 2207 	ubfx	r2, ip, #8, #8
 8002a98:	f502 7200 	add.w	r2, r2, #512	; 0x200
 8002a9c:	f500 7040 	add.w	r0, r0, #768	; 0x300
 8002aa0:	f853 2022 	ldr.w	r2, [r3, r2, lsl #2]
 8002aa4:	f853 0020 	ldr.w	r0, [r3, r0, lsl #2]
 8002aa8:	ea89 0902 	eor.w	r9, r9, r2
 8002aac:	0e32      	lsrs	r2, r6, #24
 8002aae:	b2f6      	uxtb	r6, r6
 8002ab0:	f853 2022 	ldr.w	r2, [r3, r2, lsl #2]
 8002ab4:	4050      	eors	r0, r2
 8002ab6:	f8d4 20c8 	ldr.w	r2, [r4, #200]	; 0xc8
 8002aba:	4042      	eors	r2, r0
 8002abc:	f3cc 4007 	ubfx	r0, ip, #16, #8
 8002ac0:	f500 7080 	add.w	r0, r0, #256	; 0x100
 8002ac4:	ea4f 6c1c 	mov.w	ip, ip, lsr #24
 8002ac8:	f853 0020 	ldr.w	r0, [r3, r0, lsl #2]
 8002acc:	4042      	eors	r2, r0
 8002ace:	f3c1 2007 	ubfx	r0, r1, #8, #8
 8002ad2:	f500 7000 	add.w	r0, r0, #512	; 0x200
 8002ad6:	f506 7640 	add.w	r6, r6, #768	; 0x300
 8002ada:	f853 0020 	ldr.w	r0, [r3, r0, lsl #2]
 8002ade:	f853 6026 	ldr.w	r6, [r3, r6, lsl #2]
 8002ae2:	4042      	eors	r2, r0
 8002ae4:	f853 002c 	ldr.w	r0, [r3, ip, lsl #2]
 8002ae8:	f3c1 4107 	ubfx	r1, r1, #16, #8
 8002aec:	ea80 0c06 	eor.w	ip, r0, r6
 8002af0:	f501 7180 	add.w	r1, r1, #256	; 0x100
 8002af4:	f8d4 00cc 	ldr.w	r0, [r4, #204]	; 0xcc
 8002af8:	f3c5 2507 	ubfx	r5, r5, #8, #8
 8002afc:	ea8c 0c00 	eor.w	ip, ip, r0
 8002b00:	f505 7500 	add.w	r5, r5, #512	; 0x200
 8002b04:	f853 0021 	ldr.w	r0, [r3, r1, lsl #2]
 8002b08:	ea8c 0c00 	eor.w	ip, ip, r0
 8002b0c:	f853 0025 	ldr.w	r0, [r3, r5, lsl #2]
 8002b10:	ea8c 0c00 	eor.w	ip, ip, r0
 8002b14:	fa5f f08c 	uxtb.w	r0, ip
 8002b18:	ea4f 611e 	mov.w	r1, lr, lsr #24
 8002b1c:	f500 7040 	add.w	r0, r0, #768	; 0x300
 8002b20:	f853 1021 	ldr.w	r1, [r3, r1, lsl #2]
 8002b24:	f853 0020 	ldr.w	r0, [r3, r0, lsl #2]
 8002b28:	4048      	eors	r0, r1
 8002b2a:	f8d4 10d0 	ldr.w	r1, [r4, #208]	; 0xd0
 8002b2e:	4041      	eors	r1, r0
 8002b30:	f3c9 4007 	ubfx	r0, r9, #16, #8
 8002b34:	f500 7080 	add.w	r0, r0, #256	; 0x100
 8002b38:	ea4f 6519 	mov.w	r5, r9, lsr #24
 8002b3c:	f853 0020 	ldr.w	r0, [r3, r0, lsl #2]
 8002b40:	f853 5025 	ldr.w	r5, [r3, r5, lsl #2]
 8002b44:	4041      	eors	r1, r0
 8002b46:	f3c2 2007 	ubfx	r0, r2, #8, #8
 8002b4a:	f500 7000 	add.w	r0, r0, #512	; 0x200
 8002b4e:	0e16      	lsrs	r6, r2, #24
 8002b50:	f853 0020 	ldr.w	r0, [r3, r0, lsl #2]
 8002b54:	f853 6026 	ldr.w	r6, [r3, r6, lsl #2]
 8002b58:	4041      	eors	r1, r0
 8002b5a:	fa5f f08e 	uxtb.w	r0, lr
 8002b5e:	f500 7040 	add.w	r0, r0, #768	; 0x300
 8002b62:	f853 0020 	ldr.w	r0, [r3, r0, lsl #2]
 8002b66:	4068      	eors	r0, r5
 8002b68:	f8d4 50d4 	ldr.w	r5, [r4, #212]	; 0xd4
 8002b6c:	4045      	eors	r5, r0
 8002b6e:	f3c2 4007 	ubfx	r0, r2, #16, #8
 8002b72:	f500 7080 	add.w	r0, r0, #256	; 0x100
 8002b76:	b2d2      	uxtb	r2, r2
 8002b78:	f853 0020 	ldr.w	r0, [r3, r0, lsl #2]
 8002b7c:	4045      	eors	r5, r0
 8002b7e:	f3cc 2007 	ubfx	r0, ip, #8, #8
 8002b82:	f500 7000 	add.w	r0, r0, #512	; 0x200
 8002b86:	f502 7240 	add.w	r2, r2, #768	; 0x300
 8002b8a:	f853 0020 	ldr.w	r0, [r3, r0, lsl #2]
 8002b8e:	4045      	eors	r5, r0
 8002b90:	fa5f f089 	uxtb.w	r0, r9
 8002b94:	f500 7040 	add.w	r0, r0, #768	; 0x300
 8002b98:	f3c9 2907 	ubfx	r9, r9, #8, #8
 8002b9c:	f853 0020 	ldr.w	r0, [r3, r0, lsl #2]
 8002ba0:	4046      	eors	r6, r0
 8002ba2:	f8d4 00d8 	ldr.w	r0, [r4, #216]	; 0xd8
 8002ba6:	f853 2022 	ldr.w	r2, [r3, r2, lsl #2]
 8002baa:	4046      	eors	r6, r0
 8002bac:	f3cc 4007 	ubfx	r0, ip, #16, #8
 8002bb0:	f500 7080 	add.w	r0, r0, #256	; 0x100
 8002bb4:	ea4f 6c1c 	mov.w	ip, ip, lsr #24
 8002bb8:	f853 0020 	ldr.w	r0, [r3, r0, lsl #2]
 8002bbc:	4046      	eors	r6, r0
 8002bbe:	f3ce 2007 	ubfx	r0, lr, #8, #8
 8002bc2:	f500 7000 	add.w	r0, r0, #512	; 0x200
 8002bc6:	f3ce 4e07 	ubfx	lr, lr, #16, #8
 8002bca:	f853 0020 	ldr.w	r0, [r3, r0, lsl #2]
 8002bce:	4046      	eors	r6, r0
 8002bd0:	f853 002c 	ldr.w	r0, [r3, ip, lsl #2]
 8002bd4:	f50e 7e80 	add.w	lr, lr, #256	; 0x100
 8002bd8:	ea80 0c02 	eor.w	ip, r0, r2
 8002bdc:	f8d4 00dc 	ldr.w	r0, [r4, #220]	; 0xdc
 8002be0:	f509 7900 	add.w	r9, r9, #512	; 0x200
 8002be4:	ea8c 0c00 	eor.w	ip, ip, r0
 8002be8:	f853 002e 	ldr.w	r0, [r3, lr, lsl #2]
 8002bec:	f853 2029 	ldr.w	r2, [r3, r9, lsl #2]
 8002bf0:	ea8c 0c00 	eor.w	ip, ip, r0
 8002bf4:	ea8c 0c02 	eor.w	ip, ip, r2
        (GetTable(Te[1], GETBYTE(t0, 0)) & 0x000000ff) ^
 8002bf8:	b2ca      	uxtb	r2, r1
    rk += r * 8;
 8002bfa:	0178      	lsls	r0, r7, #5
        (GetTable(Te[1], GETBYTE(t0, 0)) & 0x000000ff) ^
 8002bfc:	f502 7280 	add.w	r2, r2, #256	; 0x100
    rk += r * 8;
 8002c00:	eb04 1747 	add.w	r7, r4, r7, lsl #5
        (GetTable(Te[1], GETBYTE(t0, 0)) & 0x000000ff) ^
 8002c04:	f813 9022 	ldrb.w	r9, [r3, r2, lsl #2]
 8002c08:	687a      	ldr	r2, [r7, #4]
        (GetTable(Te[1], GETBYTE(t3, 0)) & 0x000000ff) ^
 8002c0a:	5824      	ldr	r4, [r4, r0]
        (GetTable(Te[1], GETBYTE(t0, 0)) & 0x000000ff) ^
 8002c0c:	ea89 0902 	eor.w	r9, r9, r2
        (GetTable(Te[0], GETBYTE(t3, 1)) & 0x0000ff00) ^
 8002c10:	f3cc 2207 	ubfx	r2, ip, #8, #8
 8002c14:	f853 2022 	ldr.w	r2, [r3, r2, lsl #2]
 8002c18:	f402 4e7f 	and.w	lr, r2, #65280	; 0xff00
        (GetTable(Te[1], GETBYTE(t0, 0)) & 0x000000ff) ^
 8002c1c:	ea89 020e 	eor.w	r2, r9, lr
        (GetTable(Te[3], GETBYTE(t2, 2)) & 0x00ff0000) ^
 8002c20:	f3c6 4e07 	ubfx	lr, r6, #16, #8
        (GetTable(Te[2], GETBYTE(t1, 3)) & 0xff000000) ^
 8002c24:	ea4f 6915 	mov.w	r9, r5, lsr #24
        (GetTable(Te[3], GETBYTE(t2, 2)) & 0x00ff0000) ^
 8002c28:	f50e 7e40 	add.w	lr, lr, #768	; 0x300
        (GetTable(Te[2], GETBYTE(t1, 3)) & 0xff000000) ^
 8002c2c:	f509 7900 	add.w	r9, r9, #512	; 0x200
        (GetTable(Te[3], GETBYTE(t2, 2)) & 0x00ff0000) ^
 8002c30:	f853 e02e 	ldr.w	lr, [r3, lr, lsl #2]
        (GetTable(Te[2], GETBYTE(t1, 3)) & 0xff000000) ^
 8002c34:	f853 9029 	ldr.w	r9, [r3, r9, lsl #2]
        (GetTable(Te[3], GETBYTE(t2, 2)) & 0x00ff0000) ^
 8002c38:	f40e 0e7f 	and.w	lr, lr, #16711680	; 0xff0000
        (GetTable(Te[2], GETBYTE(t1, 3)) & 0xff000000) ^
 8002c3c:	f009 497f 	and.w	r9, r9, #4278190080	; 0xff000000
 8002c40:	ea4e 0e09 	orr.w	lr, lr, r9
        (GetTable(Te[1], GETBYTE(t0, 0)) & 0x000000ff) ^
 8002c44:	ea82 090e 	eor.w	r9, r2, lr
        (GetTable(Te[1], GETBYTE(t1, 0)) & 0x000000ff) ^
 8002c48:	b2ea      	uxtb	r2, r5
 8002c4a:	f502 7280 	add.w	r2, r2, #256	; 0x100
 8002c4e:	f813 a022 	ldrb.w	sl, [r3, r2, lsl #2]
 8002c52:	68ba      	ldr	r2, [r7, #8]
        (GetTable(Te[1], GETBYTE(t2, 0)) & 0x000000ff) ^
 8002c54:	68ff      	ldr	r7, [r7, #12]
        (GetTable(Te[1], GETBYTE(t1, 0)) & 0x000000ff) ^
 8002c56:	ea8a 0a02 	eor.w	sl, sl, r2
        (GetTable(Te[0], GETBYTE(t0, 1)) & 0x0000ff00) ^
 8002c5a:	f3c1 2207 	ubfx	r2, r1, #8, #8
 8002c5e:	f853 2022 	ldr.w	r2, [r3, r2, lsl #2]
 8002c62:	f402 4e7f 	and.w	lr, r2, #65280	; 0xff00
        (GetTable(Te[1], GETBYTE(t1, 0)) & 0x000000ff) ^
 8002c66:	ea8a 020e 	eor.w	r2, sl, lr
        (GetTable(Te[3], GETBYTE(t3, 2)) & 0x00ff0000) ^
 8002c6a:	f3cc 4e07 	ubfx	lr, ip, #16, #8
        (GetTable(Te[2], GETBYTE(t2, 3)) & 0xff000000) ^
 8002c6e:	ea4f 6a16 	mov.w	sl, r6, lsr #24
        (GetTable(Te[3], GETBYTE(t3, 2)) & 0x00ff0000) ^
 8002c72:	f50e 7e40 	add.w	lr, lr, #768	; 0x300
        (GetTable(Te[2], GETBYTE(t2, 3)) & 0xff000000) ^
 8002c76:	f50a 7a00 	add.w	sl, sl, #512	; 0x200
        (GetTable(Te[3], GETBYTE(t3, 2)) & 0x00ff0000) ^
 8002c7a:	f853 e02e 	ldr.w	lr, [r3, lr, lsl #2]
        (GetTable(Te[2], GETBYTE(t2, 3)) & 0xff000000) ^
 8002c7e:	f853 a02a 	ldr.w	sl, [r3, sl, lsl #2]
        (GetTable(Te[3], GETBYTE(t3, 2)) & 0x00ff0000) ^
 8002c82:	f40e 0e7f 	and.w	lr, lr, #16711680	; 0xff0000
        (GetTable(Te[2], GETBYTE(t2, 3)) & 0xff000000) ^
 8002c86:	f00a 4a7f 	and.w	sl, sl, #4278190080	; 0xff000000
 8002c8a:	ea4e 0e0a 	orr.w	lr, lr, sl
        (GetTable(Te[1], GETBYTE(t1, 0)) & 0x000000ff) ^
 8002c8e:	ea82 0a0e 	eor.w	sl, r2, lr
        (GetTable(Te[1], GETBYTE(t2, 0)) & 0x000000ff) ^
 8002c92:	b2f2      	uxtb	r2, r6
 8002c94:	f502 7280 	add.w	r2, r2, #256	; 0x100
        (GetTable(Te[2], GETBYTE(t3, 3)) & 0xff000000) ^
 8002c98:	ea4f 6e1c 	mov.w	lr, ip, lsr #24
        (GetTable(Te[1], GETBYTE(t2, 0)) & 0x000000ff) ^
 8002c9c:	f813 2022 	ldrb.w	r2, [r3, r2, lsl #2]
 8002ca0:	407a      	eors	r2, r7
        (GetTable(Te[0], GETBYTE(t1, 1)) & 0x0000ff00) ^
 8002ca2:	f3c5 2707 	ubfx	r7, r5, #8, #8
        (GetTable(Te[2], GETBYTE(t3, 3)) & 0xff000000) ^
 8002ca6:	f50e 7e00 	add.w	lr, lr, #512	; 0x200
        (GetTable(Te[0], GETBYTE(t1, 1)) & 0x0000ff00) ^
 8002caa:	f853 7027 	ldr.w	r7, [r3, r7, lsl #2]
        (GetTable(Te[2], GETBYTE(t3, 3)) & 0xff000000) ^
 8002cae:	f853 e02e 	ldr.w	lr, [r3, lr, lsl #2]
        (GetTable(Te[0], GETBYTE(t1, 1)) & 0x0000ff00) ^
 8002cb2:	f407 477f 	and.w	r7, r7, #65280	; 0xff00
        (GetTable(Te[1], GETBYTE(t2, 0)) & 0x000000ff) ^
 8002cb6:	4057      	eors	r7, r2
        (GetTable(Te[3], GETBYTE(t0, 2)) & 0x00ff0000) ^
 8002cb8:	f3c1 4207 	ubfx	r2, r1, #16, #8
 8002cbc:	f502 7240 	add.w	r2, r2, #768	; 0x300
        (GetTable(Te[1], GETBYTE(t3, 0)) & 0x000000ff) ^
 8002cc0:	fa5f fc8c 	uxtb.w	ip, ip
        (GetTable(Te[3], GETBYTE(t0, 2)) & 0x00ff0000) ^
 8002cc4:	f853 2022 	ldr.w	r2, [r3, r2, lsl #2]
        (GetTable(Te[2], GETBYTE(t3, 3)) & 0xff000000) ^
 8002cc8:	f00e 4e7f 	and.w	lr, lr, #4278190080	; 0xff000000
        (GetTable(Te[1], GETBYTE(t3, 0)) & 0x000000ff) ^
 8002ccc:	f50c 7c80 	add.w	ip, ip, #256	; 0x100
        (GetTable(Te[3], GETBYTE(t0, 2)) & 0x00ff0000) ^
 8002cd0:	f402 027f 	and.w	r2, r2, #16711680	; 0xff0000
        (GetTable(Te[0], GETBYTE(t2, 1)) & 0x0000ff00) ^
 8002cd4:	f3c6 2607 	ubfx	r6, r6, #8, #8
        (GetTable(Te[2], GETBYTE(t3, 3)) & 0xff000000) ^
 8002cd8:	ea42 020e 	orr.w	r2, r2, lr
        (GetTable(Te[0], GETBYTE(t2, 1)) & 0x0000ff00) ^
 8002cdc:	f853 0026 	ldr.w	r0, [r3, r6, lsl #2]
        (GetTable(Te[1], GETBYTE(t2, 0)) & 0x000000ff) ^
 8002ce0:	407a      	eors	r2, r7
        (GetTable(Te[3], GETBYTE(t1, 2)) & 0x00ff0000) ^
 8002ce2:	f3c5 4507 	ubfx	r5, r5, #16, #8
        (GetTable(Te[1], GETBYTE(t3, 0)) & 0x000000ff) ^
 8002ce6:	f813 702c 	ldrb.w	r7, [r3, ip, lsl #2]
        (GetTable(Te[2], GETBYTE(t0, 3)) & 0xff000000) ^
 8002cea:	0e09      	lsrs	r1, r1, #24
 8002cec:	f501 7100 	add.w	r1, r1, #512	; 0x200
        (GetTable(Te[3], GETBYTE(t1, 2)) & 0x00ff0000) ^
 8002cf0:	f505 7540 	add.w	r5, r5, #768	; 0x300
        (GetTable(Te[1], GETBYTE(t3, 0)) & 0x000000ff) ^
 8002cf4:	407c      	eors	r4, r7
        (GetTable(Te[0], GETBYTE(t2, 1)) & 0x0000ff00) ^
 8002cf6:	f400 407f 	and.w	r0, r0, #65280	; 0xff00
        (GetTable(Te[1], GETBYTE(t3, 0)) & 0x000000ff) ^
 8002cfa:	4060      	eors	r0, r4
        (GetTable(Te[3], GETBYTE(t1, 2)) & 0x00ff0000) ^
 8002cfc:	f853 4025 	ldr.w	r4, [r3, r5, lsl #2]
        (GetTable(Te[2], GETBYTE(t0, 3)) & 0xff000000) ^
 8002d00:	f853 3021 	ldr.w	r3, [r3, r1, lsl #2]
        (GetTable(Te[3], GETBYTE(t1, 2)) & 0x00ff0000) ^
 8002d04:	f404 047f 	and.w	r4, r4, #16711680	; 0xff0000
        (GetTable(Te[2], GETBYTE(t0, 3)) & 0xff000000) ^
 8002d08:	f003 437f 	and.w	r3, r3, #4278190080	; 0xff000000
 8002d0c:	4323      	orrs	r3, r4
    s0 = ByteReverseWord32(s0);
 8002d0e:	4058      	eors	r0, r3
 8002d10:	f7ff f884 	bl	8001e1c <ByteReverseWord32>
 8002d14:	9000      	str	r0, [sp, #0]
    s1 = ByteReverseWord32(s1);
 8002d16:	4648      	mov	r0, r9
 8002d18:	f7ff f880 	bl	8001e1c <ByteReverseWord32>
 8002d1c:	9001      	str	r0, [sp, #4]
    s2 = ByteReverseWord32(s2);
 8002d1e:	4650      	mov	r0, sl
 8002d20:	f7ff f87c 	bl	8001e1c <ByteReverseWord32>
 8002d24:	9002      	str	r0, [sp, #8]
    s3 = ByteReverseWord32(s3);
 8002d26:	4610      	mov	r0, r2
 8002d28:	f7ff f878 	bl	8001e1c <ByteReverseWord32>
    XMEMCPY(outBlock,                  &s0, sizeof(s0));
 8002d2c:	2204      	movs	r2, #4
    s3 = ByteReverseWord32(s3);
 8002d2e:	9003      	str	r0, [sp, #12]
    XMEMCPY(outBlock,                  &s0, sizeof(s0));
 8002d30:	4669      	mov	r1, sp
 8002d32:	4640      	mov	r0, r8
 8002d34:	f010 fa44 	bl	80131c0 <memcpy>
    XMEMCPY(outBlock +     sizeof(s0), &s1, sizeof(s1));
 8002d38:	2204      	movs	r2, #4
 8002d3a:	eb0d 0102 	add.w	r1, sp, r2
 8002d3e:	eb08 0002 	add.w	r0, r8, r2
 8002d42:	f010 fa3d 	bl	80131c0 <memcpy>
    XMEMCPY(outBlock + 2 * sizeof(s0), &s2, sizeof(s2));
 8002d46:	2204      	movs	r2, #4
 8002d48:	a902      	add	r1, sp, #8
 8002d4a:	f108 0008 	add.w	r0, r8, #8
 8002d4e:	f010 fa37 	bl	80131c0 <memcpy>
    XMEMCPY(outBlock + 3 * sizeof(s0), &s3, sizeof(s3));
 8002d52:	2204      	movs	r2, #4
 8002d54:	a903      	add	r1, sp, #12
 8002d56:	f108 000c 	add.w	r0, r8, #12
 8002d5a:	f010 fa31 	bl	80131c0 <memcpy>
    return 0;
 8002d5e:	2000      	movs	r0, #0
} /* wc_AesEncrypt */
 8002d60:	b004      	add	sp, #16
 8002d62:	e8bd 87f0 	ldmia.w	sp!, {r4, r5, r6, r7, r8, r9, sl, pc}
        return BAD_FUNC_ARG;
 8002d66:	f06f 00ac 	mvn.w	r0, #172	; 0xac
 8002d6a:	e7f9      	b.n	8002d60 <wc_AesEncrypt+0xe64>
        return KEYUSAGE_E;
 8002d6c:	f06f 00e1 	mvn.w	r0, #225	; 0xe1
 8002d70:	e7f6      	b.n	8002d60 <wc_AesEncrypt+0xe64>
 8002d72:	bf00      	nop

08002d74 <GMULT>:

#endif /* WOLFSSL_AESNI */

#if defined(GCM_SMALL)
static void GMULT(byte* X, byte* Y)
{
 8002d74:	e92d 41f0 	stmdb	sp!, {r4, r5, r6, r7, r8, lr}
 8002d78:	b088      	sub	sp, #32
 8002d7a:	460c      	mov	r4, r1
 8002d7c:	4606      	mov	r6, r0
    byte Z[AES_BLOCK_SIZE];
    byte V[AES_BLOCK_SIZE];
    int i, j;

    XMEMSET(Z, 0, AES_BLOCK_SIZE);
 8002d7e:	2210      	movs	r2, #16
 8002d80:	2100      	movs	r1, #0
 8002d82:	4668      	mov	r0, sp
 8002d84:	f010 fa44 	bl	8013210 <memset>
    XMEMCPY(V, X, AES_BLOCK_SIZE);
 8002d88:	2210      	movs	r2, #16
 8002d8a:	4631      	mov	r1, r6
 8002d8c:	eb0d 0002 	add.w	r0, sp, r2
 8002d90:	f010 fa16 	bl	80131c0 <memcpy>
    for (i = 0; i < AES_BLOCK_SIZE; i++)
 8002d94:	1e67      	subs	r7, r4, #1
 8002d96:	340f      	adds	r4, #15
    {
        byte y = Y[i];
 8002d98:	f817 5f01 	ldrb.w	r5, [r7, #1]!
 8002d9c:	f04f 0808 	mov.w	r8, #8
        for (j = 0; j < 8; j++)
        {
            if (y & 0x80) {
 8002da0:	062b      	lsls	r3, r5, #24
 8002da2:	d505      	bpl.n	8002db0 <GMULT+0x3c>
                xorbuf(Z, V, AES_BLOCK_SIZE);
 8002da4:	2210      	movs	r2, #16
 8002da6:	eb0d 0102 	add.w	r1, sp, r2
 8002daa:	4668      	mov	r0, sp
 8002dac:	f7ff f86b 	bl	8001e86 <xorbuf>
    byte borrow = (0x00 - (x[15] & 0x01)) & 0xE1;
 8002db0:	f89d 301f 	ldrb.w	r3, [sp, #31]
    int carryIn = 0;
 8002db4:	2100      	movs	r1, #0
    byte borrow = (0x00 - (x[15] & 0x01)) & 0xE1;
 8002db6:	f343 0300 	sbfx	r3, r3, #0, #1
 8002dba:	f003 03e1 	and.w	r3, r3, #225	; 0xe1
    for (i = 0; i < AES_BLOCK_SIZE; i++) {
 8002dbe:	a804      	add	r0, sp, #16
 8002dc0:	460a      	mov	r2, r1
        int carryOut = (x[i] & 0x01) << 7;
 8002dc2:	f890 e000 	ldrb.w	lr, [r0]
 8002dc6:	468c      	mov	ip, r1
    for (i = 0; i < AES_BLOCK_SIZE; i++) {
 8002dc8:	3201      	adds	r2, #1
        int carryOut = (x[i] & 0x01) << 7;
 8002dca:	ea4f 11ce 	mov.w	r1, lr, lsl #7
        x[i] = (byte) ((x[i] >> 1) | carryIn);
 8002dce:	ea4c 0c5e 	orr.w	ip, ip, lr, lsr #1
    for (i = 0; i < AES_BLOCK_SIZE; i++) {
 8002dd2:	2a10      	cmp	r2, #16
        x[i] = (byte) ((x[i] >> 1) | carryIn);
 8002dd4:	f800 cb01 	strb.w	ip, [r0], #1
        int carryOut = (x[i] & 0x01) << 7;
 8002dd8:	b2c9      	uxtb	r1, r1
    for (i = 0; i < AES_BLOCK_SIZE; i++) {
 8002dda:	d1f2      	bne.n	8002dc2 <GMULT+0x4e>
    x[0] ^= borrow;
 8002ddc:	f89d 1010 	ldrb.w	r1, [sp, #16]
            }

            RIGHTSHIFTX(V);
            y = y << 1;
 8002de0:	006d      	lsls	r5, r5, #1
    x[0] ^= borrow;
 8002de2:	404b      	eors	r3, r1
        for (j = 0; j < 8; j++)
 8002de4:	f1b8 0801 	subs.w	r8, r8, #1
    x[0] ^= borrow;
 8002de8:	f88d 3010 	strb.w	r3, [sp, #16]
            y = y << 1;
 8002dec:	b2ed      	uxtb	r5, r5
        for (j = 0; j < 8; j++)
 8002dee:	d1d7      	bne.n	8002da0 <GMULT+0x2c>
    for (i = 0; i < AES_BLOCK_SIZE; i++)
 8002df0:	42bc      	cmp	r4, r7
 8002df2:	d1d1      	bne.n	8002d98 <GMULT+0x24>
        }
    }
    XMEMCPY(X, Z, AES_BLOCK_SIZE);
 8002df4:	4669      	mov	r1, sp
 8002df6:	4630      	mov	r0, r6
 8002df8:	f010 f9e2 	bl	80131c0 <memcpy>
}
 8002dfc:	b008      	add	sp, #32
 8002dfe:	e8bd 81f0 	ldmia.w	sp!, {r4, r5, r6, r7, r8, pc}

08002e02 <wc_AesSetIV>:
{
 8002e02:	b510      	push	{r4, lr}
    if (aes == NULL)
 8002e04:	b148      	cbz	r0, 8002e1a <wc_AesSetIV+0x18>
        XMEMCPY(aes->reg, iv, AES_BLOCK_SIZE);
 8002e06:	30f8      	adds	r0, #248	; 0xf8
 8002e08:	2210      	movs	r2, #16
    if (iv)
 8002e0a:	b119      	cbz	r1, 8002e14 <wc_AesSetIV+0x12>
        XMEMCPY(aes->reg, iv, AES_BLOCK_SIZE);
 8002e0c:	f010 f9d8 	bl	80131c0 <memcpy>
    return 0;
 8002e10:	2000      	movs	r0, #0
}
 8002e12:	bd10      	pop	{r4, pc}
        XMEMSET(aes->reg,  0, AES_BLOCK_SIZE);
 8002e14:	f010 f9fc 	bl	8013210 <memset>
 8002e18:	e7fa      	b.n	8002e10 <wc_AesSetIV+0xe>
        return BAD_FUNC_ARG;
 8002e1a:	f06f 00ac 	mvn.w	r0, #172	; 0xac
 8002e1e:	e7f8      	b.n	8002e12 <wc_AesSetIV+0x10>

08002e20 <wc_AesSetKey>:
    {
 8002e20:	e92d 4ff7 	stmdb	sp!, {r0, r1, r2, r4, r5, r6, r7, r8, r9, sl, fp, lr}
 8002e24:	f8dd 8030 	ldr.w	r8, [sp, #48]	; 0x30
 8002e28:	4691      	mov	r9, r2
 8002e2a:	469b      	mov	fp, r3
        if (aes == NULL) {
 8002e2c:	4605      	mov	r5, r0
 8002e2e:	2800      	cmp	r0, #0
 8002e30:	f000 821d 	beq.w	800326e <wc_AesSetKey+0x44e>
        if (keylen > sizeof(aes->key)) {
 8002e34:	2af0      	cmp	r2, #240	; 0xf0
 8002e36:	f200 821a 	bhi.w	800326e <wc_AesSetKey+0x44e>
            if (keylen != 16 && keylen != 24 && keylen != 32) {
 8002e3a:	f022 0308 	bic.w	r3, r2, #8
 8002e3e:	2b10      	cmp	r3, #16
 8002e40:	d002      	beq.n	8002e48 <wc_AesSetKey+0x28>
 8002e42:	2a20      	cmp	r2, #32
 8002e44:	f040 8213 	bne.w	800326e <wc_AesSetKey+0x44e>
        aes->rounds = (keylen/4) + 6;
 8002e48:	ea4f 0a99 	mov.w	sl, r9, lsr #2
 8002e4c:	f10a 0306 	add.w	r3, sl, #6
 8002e50:	f8c5 30f0 	str.w	r3, [r5, #240]	; 0xf0
        aes->keylen = (int)keylen;
 8002e54:	f8c5 90f4 	str.w	r9, [r5, #244]	; 0xf4
        XMEMCPY(rk, userKey, keylen);
 8002e58:	464a      	mov	r2, r9
 8002e5a:	4628      	mov	r0, r5
 8002e5c:	f010 f9b0 	bl	80131c0 <memcpy>
        rk = aes->key;
 8002e60:	462c      	mov	r4, r5
        for (i = 0; i < count; i++)
 8002e62:	462e      	mov	r6, r5
 8002e64:	eb05 0a8a 	add.w	sl, r5, sl, lsl #2
 8002e68:	462b      	mov	r3, r5
 8002e6a:	459a      	cmp	sl, r3
 8002e6c:	d149      	bne.n	8002f02 <wc_AesSetKey+0xe2>
        switch (keylen) {
 8002e6e:	f1b9 0f18 	cmp.w	r9, #24
 8002e72:	f000 80bb 	beq.w	8002fec <wc_AesSetKey+0x1cc>
 8002e76:	f1b9 0f20 	cmp.w	r9, #32
 8002e7a:	d048      	beq.n	8002f0e <wc_AesSetKey+0xee>
 8002e7c:	f1b9 0f10 	cmp.w	r9, #16
 8002e80:	f040 81f5 	bne.w	800326e <wc_AesSetKey+0x44e>
 8002e84:	f8df c210 	ldr.w	ip, [pc, #528]	; 8003098 <wc_AesSetKey+0x278>
                    (GetTable(Te[0], GETBYTE(temp, 0)) & 0x0000ff00) ^
 8002e88:	4884      	ldr	r0, [pc, #528]	; (800309c <wc_AesSetKey+0x27c>)
 8002e8a:	f105 0e90 	add.w	lr, r5, #144	; 0x90
                temp  = rk[3];
 8002e8e:	68e2      	ldr	r2, [r4, #12]
                    rcon[i];
 8002e90:	f85c 9b04 	ldr.w	r9, [ip], #4
                    (GetTable(Te[0], GETBYTE(temp, 0)) & 0x0000ff00) ^
 8002e94:	b2d3      	uxtb	r3, r2
                if (++i == 10)
 8002e96:	4574      	cmp	r4, lr
                    (GetTable(Te[0], GETBYTE(temp, 0)) & 0x0000ff00) ^
 8002e98:	f850 1023 	ldr.w	r1, [r0, r3, lsl #2]
                    (GetTable(Te[1], GETBYTE(temp, 3)) & 0x000000ff) ^
 8002e9c:	6823      	ldr	r3, [r4, #0]
                    (GetTable(Te[0], GETBYTE(temp, 0)) & 0x0000ff00) ^
 8002e9e:	f401 417f 	and.w	r1, r1, #65280	; 0xff00
                    (GetTable(Te[1], GETBYTE(temp, 3)) & 0x000000ff) ^
 8002ea2:	ea89 0303 	eor.w	r3, r9, r3
 8002ea6:	ea83 0301 	eor.w	r3, r3, r1
 8002eaa:	ea4f 6112 	mov.w	r1, r2, lsr #24
 8002eae:	f501 7180 	add.w	r1, r1, #256	; 0x100
 8002eb2:	f810 1021 	ldrb.w	r1, [r0, r1, lsl #2]
 8002eb6:	ea83 0301 	eor.w	r3, r3, r1
                    (GetTable(Te[2], GETBYTE(temp, 2)) & 0xff000000) ^
 8002eba:	f3c2 4107 	ubfx	r1, r2, #16, #8
 8002ebe:	f501 7100 	add.w	r1, r1, #512	; 0x200
 8002ec2:	f850 1021 	ldr.w	r1, [r0, r1, lsl #2]
 8002ec6:	f001 417f 	and.w	r1, r1, #4278190080	; 0xff000000
                    (GetTable(Te[1], GETBYTE(temp, 3)) & 0x000000ff) ^
 8002eca:	ea83 0301 	eor.w	r3, r3, r1
                    (GetTable(Te[3], GETBYTE(temp, 1)) & 0x00ff0000) ^
 8002ece:	f3c2 2107 	ubfx	r1, r2, #8, #8
 8002ed2:	f501 7140 	add.w	r1, r1, #768	; 0x300
 8002ed6:	f850 1021 	ldr.w	r1, [r0, r1, lsl #2]
 8002eda:	f401 017f 	and.w	r1, r1, #16711680	; 0xff0000
                    (GetTable(Te[1], GETBYTE(temp, 3)) & 0x000000ff) ^
 8002ede:	ea83 0301 	eor.w	r3, r3, r1
                rk[5] = rk[1] ^ rk[4];
 8002ee2:	6861      	ldr	r1, [r4, #4]
                rk[4] = rk[0] ^
 8002ee4:	6123      	str	r3, [r4, #16]
                rk[5] = rk[1] ^ rk[4];
 8002ee6:	ea83 0301 	eor.w	r3, r3, r1
                rk[6] = rk[2] ^ rk[5];
 8002eea:	68a1      	ldr	r1, [r4, #8]
                rk[5] = rk[1] ^ rk[4];
 8002eec:	6163      	str	r3, [r4, #20]
                rk[6] = rk[2] ^ rk[5];
 8002eee:	ea83 0301 	eor.w	r3, r3, r1
 8002ef2:	61a3      	str	r3, [r4, #24]
                rk[7] = rk[3] ^ rk[6];
 8002ef4:	ea83 0302 	eor.w	r3, r3, r2
 8002ef8:	61e3      	str	r3, [r4, #28]
                if (++i == 10)
 8002efa:	f000 80ba 	beq.w	8003072 <wc_AesSetKey+0x252>
                rk += 4;
 8002efe:	3410      	adds	r4, #16
                temp  = rk[3];
 8002f00:	e7c5      	b.n	8002e8e <wc_AesSetKey+0x6e>
            out[i] = ByteReverseWord32(in[i]);
 8002f02:	6818      	ldr	r0, [r3, #0]
 8002f04:	f7fe ff8a 	bl	8001e1c <ByteReverseWord32>
 8002f08:	f843 0b04 	str.w	r0, [r3], #4
        for (i = 0; i < count; i++)
 8002f0c:	e7ad      	b.n	8002e6a <wc_AesSetKey+0x4a>
 8002f0e:	4b62      	ldr	r3, [pc, #392]	; (8003098 <wc_AesSetKey+0x278>)
                    (GetTable(Te[0], GETBYTE(temp, 0)) & 0x0000ff00) ^
 8002f10:	4a62      	ldr	r2, [pc, #392]	; (800309c <wc_AesSetKey+0x27c>)
 8002f12:	f105 0cc0 	add.w	ip, r5, #192	; 0xc0
                temp = rk[ 7];
 8002f16:	69e0      	ldr	r0, [r4, #28]
                    rcon[i];
 8002f18:	f853 9b04 	ldr.w	r9, [r3], #4
                rk[ 9] = rk[ 1] ^ rk[ 8];
 8002f1c:	6867      	ldr	r7, [r4, #4]
                    (GetTable(Te[0], GETBYTE(temp, 0)) & 0x0000ff00) ^
 8002f1e:	b2c1      	uxtb	r1, r0
                if (++i == 7)
 8002f20:	4564      	cmp	r4, ip
                    (GetTable(Te[0], GETBYTE(temp, 0)) & 0x0000ff00) ^
 8002f22:	f852 1021 	ldr.w	r1, [r2, r1, lsl #2]
 8002f26:	f401 4e7f 	and.w	lr, r1, #65280	; 0xff00
                    (GetTable(Te[1], GETBYTE(temp, 3)) & 0x000000ff) ^
 8002f2a:	6821      	ldr	r1, [r4, #0]
 8002f2c:	ea89 0101 	eor.w	r1, r9, r1
 8002f30:	ea8e 0e01 	eor.w	lr, lr, r1
 8002f34:	ea4f 6110 	mov.w	r1, r0, lsr #24
 8002f38:	f501 7180 	add.w	r1, r1, #256	; 0x100
 8002f3c:	f812 1021 	ldrb.w	r1, [r2, r1, lsl #2]
 8002f40:	ea8e 0e01 	eor.w	lr, lr, r1
                    (GetTable(Te[2], GETBYTE(temp, 2)) & 0xff000000) ^
 8002f44:	f3c0 4107 	ubfx	r1, r0, #16, #8
 8002f48:	f501 7100 	add.w	r1, r1, #512	; 0x200
 8002f4c:	f852 1021 	ldr.w	r1, [r2, r1, lsl #2]
 8002f50:	f001 417f 	and.w	r1, r1, #4278190080	; 0xff000000
                    (GetTable(Te[1], GETBYTE(temp, 3)) & 0x000000ff) ^
 8002f54:	ea8e 0e01 	eor.w	lr, lr, r1
                    (GetTable(Te[3], GETBYTE(temp, 1)) & 0x00ff0000) ^
 8002f58:	f3c0 2107 	ubfx	r1, r0, #8, #8
 8002f5c:	f501 7140 	add.w	r1, r1, #768	; 0x300
 8002f60:	f852 1021 	ldr.w	r1, [r2, r1, lsl #2]
 8002f64:	f401 017f 	and.w	r1, r1, #16711680	; 0xff0000
                    (GetTable(Te[1], GETBYTE(temp, 3)) & 0x000000ff) ^
 8002f68:	ea8e 0101 	eor.w	r1, lr, r1
                rk[ 8] = rk[ 0] ^
 8002f6c:	6221      	str	r1, [r4, #32]
                rk[ 9] = rk[ 1] ^ rk[ 8];
 8002f6e:	ea81 0107 	eor.w	r1, r1, r7
                rk[10] = rk[ 2] ^ rk[ 9];
 8002f72:	68a7      	ldr	r7, [r4, #8]
                rk[ 9] = rk[ 1] ^ rk[ 8];
 8002f74:	6261      	str	r1, [r4, #36]	; 0x24
                rk[10] = rk[ 2] ^ rk[ 9];
 8002f76:	ea81 0107 	eor.w	r1, r1, r7
                rk[11] = rk[ 3] ^ rk[10];
 8002f7a:	68e7      	ldr	r7, [r4, #12]
                rk[10] = rk[ 2] ^ rk[ 9];
 8002f7c:	62a1      	str	r1, [r4, #40]	; 0x28
                rk[11] = rk[ 3] ^ rk[10];
 8002f7e:	ea81 0e07 	eor.w	lr, r1, r7
 8002f82:	f8c4 e02c 	str.w	lr, [r4, #44]	; 0x2c
                if (++i == 7)
 8002f86:	d074      	beq.n	8003072 <wc_AesSetKey+0x252>
                    (GetTable(Te[3], GETBYTE(temp, 2)) & 0x00ff0000) ^
 8002f88:	f3ce 4107 	ubfx	r1, lr, #16, #8
 8002f8c:	f501 7140 	add.w	r1, r1, #768	; 0x300
                rk[13] = rk[ 5] ^ rk[12];
 8002f90:	6967      	ldr	r7, [r4, #20]
                    (GetTable(Te[3], GETBYTE(temp, 2)) & 0x00ff0000) ^
 8002f92:	f852 1021 	ldr.w	r1, [r2, r1, lsl #2]
 8002f96:	f401 097f 	and.w	r9, r1, #16711680	; 0xff0000
                    (GetTable(Te[0], GETBYTE(temp, 1)) & 0x0000ff00) ^
 8002f9a:	f3ce 2107 	ubfx	r1, lr, #8, #8
                rk += 8;
 8002f9e:	3420      	adds	r4, #32
                    (GetTable(Te[0], GETBYTE(temp, 1)) & 0x0000ff00) ^
 8002fa0:	f852 1021 	ldr.w	r1, [r2, r1, lsl #2]
 8002fa4:	f401 417f 	and.w	r1, r1, #65280	; 0xff00
 8002fa8:	ea49 0901 	orr.w	r9, r9, r1
 8002fac:	f854 1c10 	ldr.w	r1, [r4, #-16]
 8002fb0:	ea89 0901 	eor.w	r9, r9, r1
                    (GetTable(Te[2], GETBYTE(temp, 3)) & 0xff000000) ^
 8002fb4:	ea4f 611e 	mov.w	r1, lr, lsr #24
 8002fb8:	f501 7100 	add.w	r1, r1, #512	; 0x200
 8002fbc:	f852 1021 	ldr.w	r1, [r2, r1, lsl #2]
 8002fc0:	f001 4a7f 	and.w	sl, r1, #4278190080	; 0xff000000
                    (GetTable(Te[1], GETBYTE(temp, 0)) & 0x000000ff);
 8002fc4:	fa5f f18e 	uxtb.w	r1, lr
 8002fc8:	f501 7180 	add.w	r1, r1, #256	; 0x100
 8002fcc:	f812 e021 	ldrb.w	lr, [r2, r1, lsl #2]
                    (GetTable(Te[0], GETBYTE(temp, 1)) & 0x0000ff00) ^
 8002fd0:	ea4a 0e0e 	orr.w	lr, sl, lr
 8002fd4:	ea89 010e 	eor.w	r1, r9, lr
                rk[12] = rk[ 4] ^
 8002fd8:	6121      	str	r1, [r4, #16]
                rk[13] = rk[ 5] ^ rk[12];
 8002fda:	4079      	eors	r1, r7
                rk[14] = rk[ 6] ^ rk[13];
 8002fdc:	f854 7c08 	ldr.w	r7, [r4, #-8]
                rk[13] = rk[ 5] ^ rk[12];
 8002fe0:	6161      	str	r1, [r4, #20]
                rk[14] = rk[ 6] ^ rk[13];
 8002fe2:	4079      	eors	r1, r7
 8002fe4:	61a1      	str	r1, [r4, #24]
                rk[15] = rk[ 7] ^ rk[14];
 8002fe6:	4041      	eors	r1, r0
 8002fe8:	61e1      	str	r1, [r4, #28]
                temp = rk[ 7];
 8002fea:	e794      	b.n	8002f16 <wc_AesSetKey+0xf6>
